Microchip MPLAB XC8 Compiler V1.12 ()

Linker command line:

--edf=/Applications/microchip/xc8/v1.12/dat/en_msgs.txt -cs \
  -h+dist/default/production/Slave.X.production.sym -z -Q18F8622 -ol.obj \
  -Mdist/default/production/Slave.X.production.map -E1 -ver=XC8 \
  -ACODE=00h-0FFFFh -ACONST=00h-0FFFFh -ASMALLCONST=01000h-010FFhx240 \
  -AMEDIUMCONST=01000h-0FFFFh -ACOMRAM=01h-05Fh -AABS1=00h-0F5Fh \
  -ABIGRAM=01h-0F5Fh -ARAM=060h-0FFh,0100h-01FFhx14,0F00h-0F5Fh \
  -ABANK0=060h-0FFh -ABANK1=0100h-01FFh -ABANK2=0200h-02FFh \
  -ABANK3=0300h-03FFh -ABANK4=0400h-04FFh -ABANK5=0500h-05FFh \
  -ABANK6=0600h-06FFh -ABANK7=0700h-07FFh -ABANK8=0800h-08FFh \
  -ABANK9=0900h-09FFh -ABANK10=0A00h-0AFFh -ABANK11=0B00h-0BFFh \
  -ABANK12=0C00h-0CFFh -ABANK13=0D00h-0DFFh -ABANK14=0E00h-0EFFh \
  -ABANK15=0F00h-0F5Fh -ASFR=0F60h-0FFFh \
  -preset_vec=00h,intcode=08h,intcodelo,powerup,init,end_init \
  -pramtop=01000h -psmallconst=SMALLCONST -pmediumconst=MEDIUMCONST \
  -pconst=CONST -AFARRAM=00h-00h -ACONFIG=0300000h-030000Dh -pconfig=CONFIG \
  -AIDLOC=0200000h-0200007h -pidloc=IDLOC -AEEDATA=0F00000h-0F003FFh \
  -peeprom_data=EEDATA \
  -prdata=COMRAM,nvrram=COMRAM,nvbit=COMRAM,rbss=COMRAM,rbit=COMRAM \
  -pfarbss=FARRAM,fardata=FARRAM \
  -pintsave_regs=BIGRAM,bigbss=BIGRAM,bigdata=BIGRAM -pbss=RAM \
  -pidata=CODE,irdata=CODE,ibigdata=CODE,ifardata=CODE /tmp/cgtrK7rYS.obj \
  dist/default/production/Slave.X.production.obj 

Object code version is 3.10

Machine type is 18F8622

Call graph: (short form)




                Name                               Link     Load   Length Selector   Space Scale
/tmp/cgtrK7rYS.obj
                end_init                            1EE      1EE        4        4       0
                reset_vec                             0        0        4        0       0
                idloc                            200000   200000        8   200000       0
                config                           300000   300000        E   300000       0
dist/default/production/Slave.X.production.obj
                intcode                               8        8      1E6        4       0
                smallconst                         1000     1000       12      800       0
                text15                             1CA0     1CA0       3E      809       0
                text13                             1A5C     1A5C       90      809       0
                text12                             1AEC     1AEC       6C      809       0
                text11                             1D32     1D32       18      E8C       0
                text10                             1340     1340      268      809       0
                text9                              1BBE     1BBE       64      809       0
                text8                              17AC     17AC      104      809       0
                text7                              18B0     18B0       FC      809       0
                text6                              1C22     1C22       40      809       0
                text5                              1CDE     1CDE       1E      809       0
                text4                              15A8     15A8      204      809       0
                text3                              1D18     1D18       1A      E8C       0
                text2                              19AC     19AC       B0      809       0
                text1                              1C62     1C62       3E      809       0
                text0                              1012     1012      32E      809       0
                cstackCOMRAM                          1        1       30        1       1
                cstackBANK0                          60       60       38       60       1
                bssBIGRAM                            C6       C6      700       C6       1
                dataBANK0                            98       98       1B       60       1
                bssBANK0                             B3       B3       13       60       1
                dataCOMRAM                           31       31        9        1       1
                cinit                              1B58     1B58       66      809       0
                idataBANK0                         1CFC     1CFC       1B      809       0
                idataCOMRAM                        1D4A     1D4A        9      E8C       0

TOTAL           Name                               Link     Load   Length     Space
        CLASS   CODE           
                end_init                            1EE      1EE        4         0
                intcode                               8        8      1E6         0
                reset_vec                             0        0        4         0
                text15                             1CA0     1CA0       3E         0
                text13                             1A5C     1A5C       90         0
                text12                             1AEC     1AEC       6C         0
                text11                             1D32     1D32       18         0
                text10                             1340     1340      268         0
                text9                              1BBE     1BBE       64         0
                text8                              17AC     17AC      104         0
                text7                              18B0     18B0       FC         0
                text6                              1C22     1C22       40         0
                text5                              1CDE     1CDE       1E         0
                text4                              15A8     15A8      204         0
                text3                              1D18     1D18       1A         0
                text2                              19AC     19AC       B0         0
                text1                              1C62     1C62       3E         0
                text0                              1012     1012      32E         0
                cinit                              1B58     1B58       66         0
                idataBANK0                         1CFC     1CFC       1B         0
                idataCOMRAM                        1D4A     1D4A        9         0

        CLASS   CONST          

        CLASS   SMALLCONST     
                smallconst                         1000     1000       12         0

        CLASS   MEDIUMCONST    

        CLASS   COMRAM         
                cstackCOMRAM                          1        1       30         1
                dataCOMRAM                           31       31        9         1

        CLASS   ABS1           

        CLASS   BIGRAM         
                bssBIGRAM                            C6       C6      700         1

        CLASS   RAM            

        CLASS   BANK0          
                cstackBANK0                          60       60       38         1
                dataBANK0                            98       98       1B         1
                bssBANK0                             B3       B3       13         1

        CLASS   BANK1          

        CLASS   BANK2          

        CLASS   BANK3          

        CLASS   BANK4          

        CLASS   BANK5          

        CLASS   BANK6          

        CLASS   BANK7          

        CLASS   BANK8          

        CLASS   BANK9          

        CLASS   BANK10         

        CLASS   BANK11         

        CLASS   BANK12         

        CLASS   BANK13         

        CLASS   BANK14         

        CLASS   BANK15         

        CLASS   SFR            

        CLASS   FARRAM         

        CLASS   CONFIG         
                config                           300000   300000        E         0

        CLASS   IDLOC          
                idloc                            200000   200000        8         0

        CLASS   EEDATA         



SEGMENTS        Name                           Load    Length   Top    Selector   Space  Class

                reset_vec                      000000  000004  000004         0       0  CODE    
                cstackCOMRAM                   000001  000039  00003A         1       1  COMRAM  
                intcode                        000008  0001EA  0001F2         4       0  CODE    
                cstackBANK0                    000060  000066  0000C6        60       1  BANK0   
                bssBIGRAM                      0000C6  000700  0007C6        C6       1  BIGRAM  
                smallconst                     001000  000012  001012       800       0  SMALLCON
                text0                          001012  000D05  001D17       809       0  CODE    
                text3                          001D18  00003B  001D53       E8C       0  CODE    
                idloc                          200000  000008  200008    200000       0  IDLOC   
                config                         300000  00000E  30000E    300000       0  CONFIG  


UNUSED ADDRESS RANGES

        Name                Unused          Largest block    Delta
        BANK10           000A00-000AFF              100
        BANK11           000B00-000BFF              100
        BANK12           000C00-000CFF              100
        BANK13           000D00-000DFF              100
        BANK14           000E00-000EFF              100
        BANK15           000F00-000F5F               60
        BANK7            0007C6-0007FF               3A
        BANK8            000800-0008FF              100
        BANK9            000900-0009FF              100
        BIGRAM           00003A-00005F               26
                         0007C6-000F5F              79A
        CODE             000004-000007                4
                         0001F2-000FFF              E0E
                         001D17-001D17                1
                         001D53-00FFFF             E2AD
        COMRAM           00003A-00005F               26
        CONST            000004-000007                4
                         0001F2-000FFF              E0E
                         001D17-001D17                1
                         001D53-00FFFF             E2AD
        EEDATA           F00000-F003FF              400
        MEDIUMCONST      001D17-001D17                1
                         001D53-00FFFF             E2AD
        RAM              0007C6-000F5F              100
        SFR              000F60-000FFF               A0
        SMALLCONST       001D17-001D17                1
                         001D53-00FFFF              100

                                  Symbol Table

?_Delay10KTCYx              cstackCOMRAM 000027
?_OpenSPI1                  cstackCOMRAM 000027
?___lwdiv                   cstackCOMRAM 000027
?___lwmod                   cstackBANK0  000060
?___wmul                    cstackCOMRAM 000001
?_ctrl_lcd_cursor           cstackCOMRAM 00002F
?_envia_dado                cstackCOMRAM 00002F
?_envia_lcd                 cstackCOMRAM 000029
?_mostra_lcd_buff           cstackBANK0  000061
?_pos_lcd                   cstackCOMRAM 00002F
?_sprintf                   cstackBANK0  000064
?_tempo_us                  cstackCOMRAM 000027
Delay10KTCYx@unit           cstackCOMRAM 000027
OpenSPI1@bus_mode           cstackCOMRAM 000028
OpenSPI1@smp_phase          cstackCOMRAM 000029
OpenSPI1@sync_mode          cstackCOMRAM 000027
_ADCON0bits                 (abs)        000FC2
_ADCON1bits                 (abs)        000FC1
_CMCONbits                  (abs)        000FB4
_Delay10KTCYx               text11       001D32
_INTCONbits                 (abs)        000FF2
_OSCCONbits                 (abs)        000FD3
_OpenSPI1                   text9        001BBE
_PEIE                       (abs)        007F96
_PIE1bits                   (abs)        000F9D
_PIR1bits                   (abs)        000F9E
_PORTA                      (abs)        000F80
_PORTB                      (abs)        000F81
_PORTBbits                  (abs)        000F81
_PORTC                      (abs)        000F82
_PORTD                      (abs)        000F83
_PORTDbits                  (abs)        000F83
_PORTE                      (abs)        000F84
_PORTF                      (abs)        000F85
_PORTG                      (abs)        000F86
_PORTH                      (abs)        000F87
_PORTJ                      (abs)        000F88
_SSP1BUF                    (abs)        000FC9
_SSP1CON1                   (abs)        000FC6
_SSP1CON1bits               (abs)        000FC6
_SSP1STAT                   (abs)        000FC7
_SSP1STATbits               (abs)        000FC7
_TRISA                      (abs)        000F92
_TRISB                      (abs)        000F93
_TRISC                      (abs)        000F94
_TRISCbits                  (abs)        000F94
_TRISD                      (abs)        000F95
_TRISE                      (abs)        000F96
_TRISF                      (abs)        000F97
_TRISFbits                  (abs)        000F97
_TRISG                      (abs)        000F98
_TRISH                      (abs)        000F99
_TRISJ                      (abs)        000F9A
__CFG_ADDRBW$ADDR20BIT      (abs)        000000
__CFG_BBSIZ$BB2K            (abs)        000000
__CFG_BOREN$OFF             (abs)        000000
__CFG_BORV$3                (abs)        000000
__CFG_CCP2MX$PORTC          (abs)        000000
__CFG_CP0$OFF               (abs)        000000
__CFG_CP1$OFF               (abs)        000000
__CFG_CP2$OFF               (abs)        000000
__CFG_CP3$OFF               (abs)        000000
__CFG_CPB$OFF               (abs)        000000
__CFG_CPD$OFF               (abs)        000000
__CFG_DATABW$DATA16BIT      (abs)        000000
__CFG_EBTR0$OFF             (abs)        000000
__CFG_EBTR1$OFF             (abs)        000000
__CFG_EBTR2$OFF             (abs)        000000
__CFG_EBTR3$OFF             (abs)        000000
__CFG_EBTRB$OFF             (abs)        000000
__CFG_ECCPMX$PORTE          (abs)        000000
__CFG_FCMEN$OFF             (abs)        000000
__CFG_IESO$OFF              (abs)        000000
__CFG_LPT1OSC$OFF           (abs)        000000
__CFG_LVP$OFF               (abs)        000000
__CFG_MCLRE$ON              (abs)        000000
__CFG_MODE$MC               (abs)        000000
__CFG_OSC$INTIO67           (abs)        000000
__CFG_PWRT$OFF              (abs)        000000
__CFG_STVREN$ON             (abs)        000000
__CFG_WAIT$OFF              (abs)        000000
__CFG_WDT$OFF               (abs)        000000
__CFG_WDTPS$32768           (abs)        000000
__CFG_WRT0$OFF              (abs)        000000
__CFG_WRT1$OFF              (abs)        000000
__CFG_WRT2$OFF              (abs)        000000
__CFG_WRT3$OFF              (abs)        000000
__CFG_WRTB$OFF              (abs)        000000
__CFG_WRTC$OFF              (abs)        000000
__CFG_WRTD$OFF              (abs)        000000
__CFG_XINST$OFF             (abs)        000000
__HRAM                      (abs)        000000
__Habs1                     abs1         000000
__Hbank0                    bank0        000000
__Hbank1                    bank1        000000
__Hbank10                   bank10       000000
__Hbank11                   bank11       000000
__Hbank12                   bank12       000000
__Hbank13                   bank13       000000
__Hbank14                   bank14       000000
__Hbank15                   bank15       000000
__Hbank2                    bank2        000000
__Hbank3                    bank3        000000
__Hbank4                    bank4        000000
__Hbank5                    bank5        000000
__Hbank6                    bank6        000000
__Hbank7                    bank7        000000
__Hbank8                    bank8        000000
__Hbank9                    bank9        000000
__Hbigbss                   bigbss       000000
__Hbigdata                  bigdata      000000
__Hbigram                   bigram       000000
__Hbss                      bss          000000
__HbssBANK0                 bssBANK0     000000
__HbssBIGRAM                bssBIGRAM    000000
__Hcinit                    cinit        000000
__Hclrtext                  clrtext      000000
__Hcomram                   comram       000000
__Hconfig                   config       30000E
__Hconst                    const        000000
__HcstackBANK0              cstackBANK0  000000
__HcstackCOMRAM             cstackCOMRAM 000000
__Hdata                     data         000000
__HdataBANK0                dataBANK0    000000
__HdataCOMRAM               dataCOMRAM   000000
__Heeprom_data              eeprom_data  000000
__Hend_init                 end_init     0001F2
__Hfarbss                   farbss       000000
__Hfardata                  fardata      000000
__Hibigdata                 ibigdata     000000
__Hidata                    idata        000000
__HidataBANK0               idataBANK0   000000
__HidataCOMRAM              idataCOMRAM  000000
__Hidloc                    idloc        200008
__Hifardata                 ifardata     000000
__Hinit                     init         0001EE
__Hintcode                  intcode      0001EE
__Hintcode_body             intcode_body 000000
__Hintcodelo                intcodelo    0001EE
__Hintentry                 intentry     000000
__Hintret                   intret       000000
__Hintsave_regs             intsave_regs 000000
__Hirdata                   irdata       000000
__Hmediumconst              mediumconst  000000
__Hnvbit                    nvbit        000000
__Hnvrram                   nvrram       000000
__Hparam                    rparam       000000
__Hpowerup                  powerup      0001EE
__Hram                      ram          000000
__Hramtop                   ramtop       001000
__Hrbit                     rbit         000000
__Hrbss                     rbss         000000
__Hrdata                    rdata        000000
__Hreset_vec                reset_vec    000004
__Hrparam                   rparam       000000
__Hsfr                      sfr          000000
__Hsmallconst               smallconst   001012
__Hstruct                   struct       000000
__Htemp                     temp         000000
__Htext                     text         000000
__Htext0                    text0        000000
__Htext1                    text1        000000
__Htext10                   text10       000000
__Htext11                   text11       000000
__Htext12                   text12       000000
__Htext13                   text13       000000
__Htext15                   text15       000000
__Htext2                    text2        000000
__Htext3                    text3        000000
__Htext4                    text4        000000
__Htext5                    text5        000000
__Htext6                    text6        000000
__Htext7                    text7        000000
__Htext8                    text8        000000
__Htext9                    text9        000000
__LRAM                      (abs)        000001
__Labs1                     abs1         000000
__Lbank0                    bank0        000000
__Lbank1                    bank1        000000
__Lbank10                   bank10       000000
__Lbank11                   bank11       000000
__Lbank12                   bank12       000000
__Lbank13                   bank13       000000
__Lbank14                   bank14       000000
__Lbank15                   bank15       000000
__Lbank2                    bank2        000000
__Lbank3                    bank3        000000
__Lbank4                    bank4        000000
__Lbank5                    bank5        000000
__Lbank6                    bank6        000000
__Lbank7                    bank7        000000
__Lbank8                    bank8        000000
__Lbank9                    bank9        000000
__Lbigbss                   bigbss       000000
__Lbigdata                  bigdata      000000
__Lbigram                   bigram       000000
__Lbss                      bss          000000
__LbssBANK0                 bssBANK0     000000
__LbssBIGRAM                bssBIGRAM    000000
__Lcinit                    cinit        000000
__Lclrtext                  clrtext      000000
__Lcomram                   comram       000000
__Lconfig                   config       300000
__Lconst                    const        000000
__LcstackBANK0              cstackBANK0  000000
__LcstackCOMRAM             cstackCOMRAM 000000
__Ldata                     data         000000
__LdataBANK0                dataBANK0    000000
__LdataCOMRAM               dataCOMRAM   000000
__Leeprom_data              eeprom_data  000000
__Lend_init                 end_init     0001EE
__Lfarbss                   farbss       000000
__Lfardata                  fardata      000000
__Libigdata                 ibigdata     000000
__Lidata                    idata        000000
__LidataBANK0               idataBANK0   000000
__LidataCOMRAM              idataCOMRAM  000000
__Lidloc                    idloc        200000
__Lifardata                 ifardata     000000
__Linit                     init         0001EE
__Lintcode                  intcode      000008
__Lintcode_body             intcode_body 000000
__Lintcodelo                intcodelo    0001EE
__Lintentry                 intentry     000000
__Lintret                   intret       000000
__Lintsave_regs             intsave_regs 000000
__Lirdata                   irdata       000000
__Lmediumconst              mediumconst  000000
__Lnvbit                    nvbit        000000
__Lnvrram                   nvrram       000000
__Lparam                    rparam       000000
__Lpowerup                  powerup      0001EE
__Lram                      ram          000000
__Lramtop                   ramtop       001000
__Lrbit                     rbit         000000
__Lrbss                     rbss         000000
__Lrdata                    rdata        000000
__Lreset_vec                reset_vec    000000
__Lrparam                   rparam       000000
__Lsfr                      sfr          000000
__Lsmallconst               smallconst   001000
__Lstruct                   struct       000000
__Ltemp                     temp         000000
__Ltext                     text         000000
__Ltext0                    text0        000000
__Ltext1                    text1        000000
__Ltext10                   text10       000000
__Ltext11                   text11       000000
__Ltext12                   text12       000000
__Ltext13                   text13       000000
__Ltext15                   text15       000000
__Ltext2                    text2        000000
__Ltext3                    text3        000000
__Ltext4                    text4        000000
__Ltext5                    text5        000000
__Ltext6                    text6        000000
__Ltext7                    text7        000000
__Ltext8                    text8        000000
__Ltext9                    text9        000000
__S0                        (abs)        30000E
__S1                        (abs)        0007C6
___lwdiv                    text12       001AEC
___lwdiv@counter            cstackCOMRAM 00002E
___lwdiv@dividend           cstackCOMRAM 000027
___lwdiv@divisor            cstackCOMRAM 000029
___lwdiv@quotient           cstackCOMRAM 00002C
___lwmod                    text13       001A5C
___lwmod@counter            cstackCOMRAM 000030
___lwmod@dividend           cstackBANK0  000060
___lwmod@divisor            cstackBANK0  000062
___wmul                     text15       001CA0
___wmul@multiplicand        cstackCOMRAM 000003
___wmul@multiplier          cstackCOMRAM 000001
___wmul@product             cstackCOMRAM 000005
__accesstop                 (abs)        000060
__activetblptr              (abs)        000003
__end_of_Delay10KTCYx       text11       001D4A
__end_of_OpenSPI1           text9        001C22
__end_of___lwdiv            text12       001B58
__end_of___lwmod            text13       001AEC
__end_of___wmul             text15       001CDE
__end_of__initialization    cinit        001BB8
__end_of__stringdata        smallconst   001011
__end_of_ctrl_lcd_cursor    text6        001C62
__end_of_dpowers            smallconst   00100A
__end_of_envia_dado         text3        001D32
__end_of_envia_lcd          text7        0019AC
__end_of_lcd_start          text4        0017AC
__end_of_limpa_tela         text5        001CFC
__end_of_main               text0        001340
__end_of_mostra_lcd_buff    text1        001CA0
__end_of_pos_lcd            text2        001A5C
__end_of_receiveData        intcode      0001EE
__end_of_sprintf            text10       0015A8
__end_of_tempo_us           text8        0018B0
__initialization            cinit        001B58
__mediumconst               mediumconst  000000
__pbssBANK0                 bssBANK0     0000B3
__pbssBIGRAM                bssBIGRAM    0000C6
__pcinit                    cinit        001B58
__pcstackBANK0              cstackBANK0  000060
__pcstackCOMRAM             cstackCOMRAM 000001
__pdataBANK0                dataBANK0    000098
__pdataCOMRAM               dataCOMRAM   000031
__pidataBANK0               idataBANK0   001CFC
__pidataCOMRAM              idataCOMRAM  001D4A
__pintcode                  intcode      000008
__psmallconst               smallconst   001000
__ptext0                    text0        001012
__ptext1                    text1        001C62
__ptext10                   text10       001340
__ptext11                   text11       001D32
__ptext12                   text12       001AEC
__ptext13                   text13       001A5C
__ptext15                   text15       001CA0
__ptext2                    text2        0019AC
__ptext3                    text3        001D18
__ptext4                    text4        0015A8
__ptext5                    text5        001CDE
__ptext6                    text6        001C22
__ptext7                    text7        0018B0
__ptext8                    text8        0017AC
__ptext9                    text9        001BBE
__ramtop                    ramtop       001000
__size_of_Delay10KTCYx      (abs)        000000
__size_of_OpenSPI1          (abs)        000000
__size_of___lwdiv           (abs)        000000
__size_of___lwmod           (abs)        000000
__size_of___wmul            (abs)        000000
__size_of_ctrl_lcd_cursor   (abs)        000000
__size_of_envia_dado        (abs)        000000
__size_of_envia_lcd         (abs)        000000
__size_of_lcd_start         (abs)        000000
__size_of_limpa_tela        (abs)        000000
__size_of_main              (abs)        000000
__size_of_mostra_lcd_buff   (abs)        000000
__size_of_pos_lcd           (abs)        000000
__size_of_receiveData       (abs)        000000
__size_of_sprintf           (abs)        000000
__size_of_tempo_us          (abs)        000000
__smallconst                smallconst   001000
__stringdata                smallconst   00100A
_ctrl_lcd_cursor            text6        001C22
_dpowers                    smallconst   001000
_envia_dado                 text3        001D18
_envia_lcd                  text7        0018B0
_lcd_start                  text4        0015A8
_ledList                    bssBIGRAM    0000C6
_limpa_tela                 text5        001CDE
_main                       text0        001012
_mensagem_lcd               bssBANK0     0000B5
_mostra_lcd_buff            text1        001C62
_pos_lcd                    text2        0019AC
_receiveData                intcode      000008
_receiveData$1794           cstackCOMRAM 00001A
_sprintf                    text10       001340
_tempo_us                   text8        0017AC
_transmissoes               bssBANK0     0000B3
_update_lcd                 dataBANK0    0000B2
ctrl_lcd_cursor@F7238       dataCOMRAM   000031
ctrl_lcd_cursor@comando     cstackBANK0  000060
ctrl_lcd_cursor@controle    cstackCOMRAM 00002F
end_of_initialization       cinit        001BB8
envia_dado@dado             cstackCOMRAM 00002F
envia_lcd@byte              cstackCOMRAM 000029
envia_lcd@cmd_data          cstackCOMRAM 00002A
envia_lcd@delay             cstackCOMRAM 00002B
intlevel0                   text         000000
intlevel1                   text         000000
intlevel2                   text         000000
intlevel3                   text         000000
lcd_start@F7252             dataBANK0    0000A8
lcd_start@contagem          cstackBANK0  000066
lcd_start@lcd_conf          cstackBANK0  000067
main@F7279                  dataBANK0    000098
main@F7281                  dataBANK0    0000AE
main@color                  cstackBANK0  000092
main@colors_offset          cstackBANK0  00008C
main@i                      cstackBANK0  000090
main@pixel                  cstackBANK0  00007C
main@x                      cstackBANK0  000094
main@y                      cstackBANK0  000096
mostra_lcd_buff@buffer_size cstackBANK0  000065
mostra_lcd_buff@column      cstackBANK0  000062
mostra_lcd_buff@line        cstackBANK0  000061
mostra_lcd_buff@p_char      cstackBANK0  000063
move_cursor@F7230           dataCOMRAM   000036
move_mensagem@F7234         dataCOMRAM   000038
pos_lcd@column              cstackCOMRAM 000030
pos_lcd@line                cstackCOMRAM 00002F
receiveData@board           cstackCOMRAM 000018
receiveData@i               cstackCOMRAM 000021
receiveData@l               cstackCOMRAM 000025
receiveData@ledData         cstackCOMRAM 000023
receiveData@totalBytes      cstackCOMRAM 00001C
receiveData@x               cstackCOMRAM 00001D
receiveData@y               cstackCOMRAM 00001F
sprintf@_val                cstackBANK0  000070
sprintf@ap                  cstackBANK0  00006C
sprintf@c                   cstackBANK0  000075
sprintf@f                   cstackBANK0  000066
sprintf@flag                cstackBANK0  00006E
sprintf@prec                cstackBANK0  00006F
sprintf@sp                  cstackBANK0  000064
start                       init         0001EE
start_initialization        cinit        001B58
tempo_us@tempo              cstackCOMRAM 000027


FUNCTION INFORMATION:

 *************** function _main *****************
 Defined at:
		line 75 in file "../main.c"
 Parameters:    Size  Location     Type
		None
 Auto vars:     Size  Location     Type
  i               2   48[BANK0 ] unsigned int 
  y               2   54[BANK0 ] unsigned int 
  x               2   52[BANK0 ] unsigned int 
  color           2   50[BANK0 ] unsigned int 
  pixel          16   28[BANK0 ] unsigned char [4][4]
  colors_offse    4   44[BANK0 ] unsigned char [4]
 Return value:  Size  Location     Type
		None               void
 Registers used:
		wreg, fsr1l, fsr1h, fsr2l, fsr2h, status,2, status,0, tblptrl, tblptrh, tblptru, prodl, prodh, cstack
 Tracked objects:
		On entry : 
		On exit  : 
		Unchanged: 
 Data sizes:     COMRAM   BANK0   BANK1   BANK2   BANK3   BANK4   BANK5   BANK6   BANK7   BANK8   BANK9  BANK10  BANK11  BANK12  BANK13  BANK14  BANK15
      Params:         0       0       0       0       0       0       0       0       0       0       0       0       0       0       0       0       0
      Locals:         0      28       0       0       0       0       0       0       0       0       0       0       0       0       0       0       0
      Temps:          0       6       0       0       0       0       0       0       0       0       0       0       0       0       0       0       0
      Totals:         0      34       0       0       0       0       0       0       0       0       0       0       0       0       0       0       0
Total ram usage:       34 bytes
 Hardware stack levels required when called:    6
 This function calls:
		_lcd_start
		_OpenSPI1
		_sprintf
		_mostra_lcd_buff
		_Delay10KTCYx
 This function is called by:
		Startup code after reset
 This function uses a non-reentrant model


 *************** function _mostra_lcd_buff *****************
 Defined at:
		line 186 in file "../LCD_16x2_Pic18.h"
 Parameters:    Size  Location     Type
  line            1    1[BANK0 ] unsigned char 
  column          1    2[BANK0 ] unsigned char 
  p_char          2    3[BANK0 ] PTR unsigned char 
		 -> mensagem_lcd(17), 
  buffer_size     1    5[BANK0 ] unsigned char 
 Auto vars:     Size  Location     Type
		None
 Return value:  Size  Location     Type
		None               void
 Registers used:
		wreg, fsr2l, fsr2h, status,2, status,0, cstack
 Tracked objects:
		On entry : 
		On exit  : 
		Unchanged: 
 Data sizes:     COMRAM   BANK0   BANK1   BANK2   BANK3   BANK4   BANK5   BANK6   BANK7   BANK8   BANK9  BANK10  BANK11  BANK12  BANK13  BANK14  BANK15
      Params:         0       5       0       0       0       0       0       0       0       0       0       0       0       0       0       0       0
      Locals:         0       0       0       0       0       0       0       0       0       0       0       0       0       0       0       0       0
      Temps:          0       0       0       0       0       0       0       0       0       0       0       0       0       0       0       0       0
      Totals:         0       5       0       0       0       0       0       0       0       0       0       0       0       0       0       0       0
Total ram usage:        5 bytes
 Hardware stack levels used:    1
 Hardware stack levels required when called:    5
 This function calls:
		_pos_lcd
		_envia_dado
 This function is called by:
		_main
 This function uses a non-reentrant model


 *************** function _pos_lcd *****************
 Defined at:
		line 155 in file "../LCD_16x2_Pic18.h"
 Parameters:    Size  Location     Type
  line            1   46[COMRAM] unsigned char 
  column          1   47[COMRAM] unsigned char 
 Auto vars:     Size  Location     Type
		None
 Return value:  Size  Location     Type
		None               void
 Registers used:
		wreg, status,2, status,0, cstack
 Tracked objects:
		On entry : 
		On exit  : 
		Unchanged: 
 Data sizes:     COMRAM   BANK0   BANK1   BANK2   BANK3   BANK4   BANK5   BANK6   BANK7   BANK8   BANK9  BANK10  BANK11  BANK12  BANK13  BANK14  BANK15
      Params:         2       0       0       0       0       0       0       0       0       0       0       0       0       0       0       0       0
      Locals:         0       0       0       0       0       0       0       0       0       0       0       0       0       0       0       0       0
      Temps:          0       1       0       0       0       0       0       0       0       0       0       0       0       0       0       0       0
      Totals:         2       1       0       0       0       0       0       0       0       0       0       0       0       0       0       0       0
Total ram usage:        3 bytes
 Hardware stack levels used:    1
 Hardware stack levels required when called:    4
 This function calls:
		_envia_lcd
 This function is called by:
		_mostra_lcd_buff
		_mostra_lcd_string
 This function uses a non-reentrant model


 *************** function _envia_dado *****************
 Defined at:
		line 168 in file "../LCD_16x2_Pic18.h"
 Parameters:    Size  Location     Type
  dado            1   46[COMRAM] unsigned char 
 Auto vars:     Size  Location     Type
		None
 Return value:  Size  Location     Type
		None               void
 Registers used:
		wreg, status,2, status,0, cstack
 Tracked objects:
		On entry : 
		On exit  : 
		Unchanged: 
 Data sizes:     COMRAM   BANK0   BANK1   BANK2   BANK3   BANK4   BANK5   BANK6   BANK7   BANK8   BANK9  BANK10  BANK11  BANK12  BANK13  BANK14  BANK15
      Params:         1       0       0       0       0       0       0       0       0       0       0       0       0       0       0       0       0
      Locals:         0       0       0       0       0       0       0       0       0       0       0       0       0       0       0       0       0
      Temps:          1       0       0       0       0       0       0       0       0       0       0       0       0       0       0       0       0
      Totals:         2       0       0       0       0       0       0       0       0       0       0       0       0       0       0       0       0
Total ram usage:        2 bytes
 Hardware stack levels used:    1
 Hardware stack levels required when called:    4
 This function calls:
		_envia_lcd
 This function is called by:
		_mostra_lcd_buff
		_mostra_lcd_string
 This function uses a non-reentrant model


 *************** function _lcd_start *****************
 Defined at:
		line 204 in file "../LCD_16x2_Pic18.h"
 Parameters:    Size  Location     Type
		None
 Auto vars:     Size  Location     Type
  lcd_conf        6    7[BANK0 ] unsigned char [6]
  contagem        1    6[BANK0 ] unsigned char 
 Return value:  Size  Location     Type
		None               void
 Registers used:
		wreg, fsr1l, fsr1h, fsr2l, fsr2h, status,2, status,0, prodl, prodh, cstack
 Tracked objects:
		On entry : 
		On exit  : 
		Unchanged: 
 Data sizes:     COMRAM   BANK0   BANK1   BANK2   BANK3   BANK4   BANK5   BANK6   BANK7   BANK8   BANK9  BANK10  BANK11  BANK12  BANK13  BANK14  BANK15
      Params:         0       0       0       0       0       0       0       0       0       0       0       0       0       0       0       0       0
      Locals:         0       7       0       0       0       0       0       0       0       0       0       0       0       0       0       0       0
      Temps:          0       1       0       0       0       0       0       0       0       0       0       0       0       0       0       0       0
      Totals:         0       8       0       0       0       0       0       0       0       0       0       0       0       0       0       0       0
Total ram usage:        8 bytes
 Hardware stack levels used:    1
 Hardware stack levels required when called:    5
 This function calls:
		_tempo_us
		_envia_lcd
		_limpa_tela
		_ctrl_lcd_cursor
 This function is called by:
		_main
 This function uses a non-reentrant model


 *************** function _limpa_tela *****************
 Defined at:
		line 123 in file "../LCD_16x2_Pic18.h"
 Parameters:    Size  Location     Type
		None
 Auto vars:     Size  Location     Type
		None
 Return value:  Size  Location     Type
		None               void
 Registers used:
		wreg, status,2, status,0, cstack
 Tracked objects:
		On entry : 
		On exit  : 
		Unchanged: 
 Data sizes:     COMRAM   BANK0   BANK1   BANK2   BANK3   BANK4   BANK5   BANK6   BANK7   BANK8   BANK9  BANK10  BANK11  BANK12  BANK13  BANK14  BANK15
      Params:         0       0       0       0       0       0       0       0       0       0       0       0       0       0       0       0       0
      Locals:         0       0       0       0       0       0       0       0       0       0       0       0       0       0       0       0       0
      Temps:          2       0       0       0       0       0       0       0       0       0       0       0       0       0       0       0       0
      Totals:         2       0       0       0       0       0       0       0       0       0       0       0       0       0       0       0       0
Total ram usage:        2 bytes
 Hardware stack levels used:    1
 Hardware stack levels required when called:    4
 This function calls:
		_envia_lcd
 This function is called by:
		_lcd_start
 This function uses a non-reentrant model


 *************** function _ctrl_lcd_cursor *****************
 Defined at:
		line 148 in file "../LCD_16x2_Pic18.h"
 Parameters:    Size  Location     Type
  controle        1   46[COMRAM] unsigned char 
 Auto vars:     Size  Location     Type
  comando         5    0[BANK0 ] unsigned char [5]
 Return value:  Size  Location     Type
		None               void
 Registers used:
		wreg, fsr1l, fsr1h, fsr2l, fsr2h, status,2, status,0, prodl, prodh, cstack
 Tracked objects:
		On entry : 
		On exit  : 
		Unchanged: 
 Data sizes:     COMRAM   BANK0   BANK1   BANK2   BANK3   BANK4   BANK5   BANK6   BANK7   BANK8   BANK9  BANK10  BANK11  BANK12  BANK13  BANK14  BANK15
      Params:         1       0       0       0       0       0       0       0       0       0       0       0       0       0       0       0       0
      Locals:         0       5       0       0       0       0       0       0       0       0       0       0       0       0       0       0       0
      Temps:          1       0       0       0       0       0       0       0       0       0       0       0       0       0       0       0       0
      Totals:         2       5       0       0       0       0       0       0       0       0       0       0       0       0       0       0       0
Total ram usage:        7 bytes
 Hardware stack levels used:    1
 Hardware stack levels required when called:    4
 This function calls:
		_envia_lcd
 This function is called by:
		_lcd_start
 This function uses a non-reentrant model


 *************** function _envia_lcd *****************
 Defined at:
		line 95 in file "../LCD_16x2_Pic18.h"
 Parameters:    Size  Location     Type
  byte            1   40[COMRAM] unsigned char 
  cmd_data        1   41[COMRAM] unsigned char 
  delay           2   42[COMRAM] int 
 Auto vars:     Size  Location     Type
		None
 Return value:  Size  Location     Type
		None               void
 Registers used:
		wreg, status,2, status,0, cstack
 Tracked objects:
		On entry : 
		On exit  : 
		Unchanged: 
 Data sizes:     COMRAM   BANK0   BANK1   BANK2   BANK3   BANK4   BANK5   BANK6   BANK7   BANK8   BANK9  BANK10  BANK11  BANK12  BANK13  BANK14  BANK15
      Params:         4       0       0       0       0       0       0       0       0       0       0       0       0       0       0       0       0
      Locals:         0       0       0       0       0       0       0       0       0       0       0       0       0       0       0       0       0
      Temps:          2       0       0       0       0       0       0       0       0       0       0       0       0       0       0       0       0
      Totals:         6       0       0       0       0       0       0       0       0       0       0       0       0       0       0       0       0
Total ram usage:        6 bytes
 Hardware stack levels used:    1
 Hardware stack levels required when called:    3
 This function calls:
		_tempo_us
 This function is called by:
		_limpa_tela
		_ctrl_lcd_cursor
		_pos_lcd
		_envia_dado
		_lcd_start
		_volta_cursor
		_move_cursor
		_move_mensagem
 This function uses a non-reentrant model


 *************** function _tempo_us *****************
 Defined at:
		line 25 in file "../LCD_16x2_Pic18.h"
 Parameters:    Size  Location     Type
  tempo           2   38[COMRAM] int 
 Auto vars:     Size  Location     Type
		None
 Return value:  Size  Location     Type
		None               void
 Registers used:
		wreg, status,2, status,0
 Tracked objects:
		On entry : 
		On exit  : 
		Unchanged: 
 Data sizes:     COMRAM   BANK0   BANK1   BANK2   BANK3   BANK4   BANK5   BANK6   BANK7   BANK8   BANK9  BANK10  BANK11  BANK12  BANK13  BANK14  BANK15
      Params:         2       0       0       0       0       0       0       0       0       0       0       0       0       0       0       0       0
      Locals:         0       0       0       0       0       0       0       0       0       0       0       0       0       0       0       0       0
      Temps:          0       0       0       0       0       0       0       0       0       0       0       0       0       0       0       0       0
      Totals:         2       0       0       0       0       0       0       0       0       0       0       0       0       0       0       0       0
Total ram usage:        2 bytes
 Hardware stack levels used:    1
 Hardware stack levels required when called:    2
 This function calls:
		Nothing
 This function is called by:
		_envia_lcd
		_lcd_start
 This function uses a non-reentrant model


 *************** function _OpenSPI1 *****************
 Defined at:
		line 14 in file "plib/SPI/spi1open.c"
 Parameters:    Size  Location     Type
  sync_mode       1   38[COMRAM] unsigned char 
  bus_mode        1   39[COMRAM] unsigned char 
  smp_phase       1   40[COMRAM] unsigned char 
 Auto vars:     Size  Location     Type
		None
 Return value:  Size  Location     Type
		None               void
 Registers used:
		wreg, status,2, status,0
 Tracked objects:
		On entry : 
		On exit  : 
		Unchanged: 
 Data sizes:     COMRAM   BANK0   BANK1   BANK2   BANK3   BANK4   BANK5   BANK6   BANK7   BANK8   BANK9  BANK10  BANK11  BANK12  BANK13  BANK14  BANK15
      Params:         3       0       0       0       0       0       0       0       0       0       0       0       0       0       0       0       0
      Locals:         0       0       0       0       0       0       0       0       0       0       0       0       0       0       0       0       0
      Temps:          0       0       0       0       0       0       0       0       0       0       0       0       0       0       0       0       0
      Totals:         3       0       0       0       0       0       0       0       0       0       0       0       0       0       0       0       0
Total ram usage:        3 bytes
 Hardware stack levels used:    1
 Hardware stack levels required when called:    2
 This function calls:
		Nothing
 This function is called by:
		_main
 This function uses a non-reentrant model


 *************** function _sprintf *****************
 Defined at:
		line 493 in file "/Applications/microchip/xc8/v1.12/sources/doprnt.c"
 Parameters:    Size  Location     Type
  sp              2    4[BANK0 ] PTR unsigned char 
		 -> mensagem_lcd(17), 
  f               2    6[BANK0 ] PTR const unsigned char 
		 -> STR_1(7), 
 Auto vars:     Size  Location     Type
  _val            5   16[BANK0 ] struct .
  ap              2   12[BANK0 ] PTR void [1]
		 -> ?_sprintf(2), 
  c               1   21[BANK0 ] char 
  prec            1   15[BANK0 ] char 
  flag            1   14[BANK0 ] unsigned char 
 Return value:  Size  Location     Type
                  2    4[BANK0 ] int 
 Registers used:
		wreg, fsr2l, fsr2h, status,2, status,0, tblptrl, tblptrh, tblptru, prodl, prodh, cstack
 Tracked objects:
		On entry : 
		On exit  : 
		Unchanged: 
 Data sizes:     COMRAM   BANK0   BANK1   BANK2   BANK3   BANK4   BANK5   BANK6   BANK7   BANK8   BANK9  BANK10  BANK11  BANK12  BANK13  BANK14  BANK15
      Params:         0       6       0       0       0       0       0       0       0       0       0       0       0       0       0       0       0
      Locals:         0      10       0       0       0       0       0       0       0       0       0       0       0       0       0       0       0
      Temps:          0       2       0       0       0       0       0       0       0       0       0       0       0       0       0       0       0
      Totals:         0      18       0       0       0       0       0       0       0       0       0       0       0       0       0       0       0
Total ram usage:       18 bytes
 Hardware stack levels used:    1
 Hardware stack levels required when called:    3
 This function calls:
		___lwdiv
		___lwmod
 This function is called by:
		_main
 This function uses a non-reentrant model


 *************** function _Delay10KTCYx *****************
 Defined at:
		line 9 in file "../common/d10ktcyx.c"
 Parameters:    Size  Location     Type
  unit            1   38[COMRAM] unsigned char 
 Auto vars:     Size  Location     Type
		None
 Return value:  Size  Location     Type
		None               void
 Registers used:
		wreg
 Tracked objects:
		On entry : 
		On exit  : 
		Unchanged: 
 Data sizes:     COMRAM   BANK0   BANK1   BANK2   BANK3   BANK4   BANK5   BANK6   BANK7   BANK8   BANK9  BANK10  BANK11  BANK12  BANK13  BANK14  BANK15
      Params:         1       0       0       0       0       0       0       0       0       0       0       0       0       0       0       0       0
      Locals:         0       0       0       0       0       0       0       0       0       0       0       0       0       0       0       0       0
      Temps:          1       0       0       0       0       0       0       0       0       0       0       0       0       0       0       0       0
      Totals:         2       0       0       0       0       0       0       0       0       0       0       0       0       0       0       0       0
Total ram usage:        2 bytes
 Hardware stack levels used:    1
 Hardware stack levels required when called:    2
 This function calls:
		Nothing
 This function is called by:
		_main
 This function uses a non-reentrant model


 *************** function ___lwdiv *****************
 Defined at:
		line 10 in file "/Applications/microchip/xc8/v1.12/sources/lwdiv.c"
 Parameters:    Size  Location     Type
  dividend        2   38[COMRAM] unsigned int 
  divisor         2   40[COMRAM] unsigned int 
 Auto vars:     Size  Location     Type
  quotient        2   43[COMRAM] unsigned int 
  counter         1   45[COMRAM] unsigned char 
 Return value:  Size  Location     Type
                  2   38[COMRAM] unsigned int 
 Registers used:
		wreg, status,2, status,0
 Tracked objects:
		On entry : 
		On exit  : 
		Unchanged: 
 Data sizes:     COMRAM   BANK0   BANK1   BANK2   BANK3   BANK4   BANK5   BANK6   BANK7   BANK8   BANK9  BANK10  BANK11  BANK12  BANK13  BANK14  BANK15
      Params:         4       0       0       0       0       0       0       0       0       0       0       0       0       0       0       0       0
      Locals:         3       0       0       0       0       0       0       0       0       0       0       0       0       0       0       0       0
      Temps:          1       0       0       0       0       0       0       0       0       0       0       0       0       0       0       0       0
      Totals:         8       0       0       0       0       0       0       0       0       0       0       0       0       0       0       0       0
Total ram usage:        8 bytes
 Hardware stack levels used:    1
 Hardware stack levels required when called:    2
 This function calls:
		Nothing
 This function is called by:
		_sprintf
 This function uses a non-reentrant model


 *************** function ___lwmod *****************
 Defined at:
		line 10 in file "/Applications/microchip/xc8/v1.12/sources/lwmod.c"
 Parameters:    Size  Location     Type
  dividend        2    0[BANK0 ] unsigned int 
  divisor         2    2[BANK0 ] unsigned int 
 Auto vars:     Size  Location     Type
  counter         1   47[COMRAM] unsigned char 
 Return value:  Size  Location     Type
                  2    0[BANK0 ] unsigned int 
 Registers used:
		wreg, status,2, status,0
 Tracked objects:
		On entry : 
		On exit  : 
		Unchanged: 
 Data sizes:     COMRAM   BANK0   BANK1   BANK2   BANK3   BANK4   BANK5   BANK6   BANK7   BANK8   BANK9  BANK10  BANK11  BANK12  BANK13  BANK14  BANK15
      Params:         0       4       0       0       0       0       0       0       0       0       0       0       0       0       0       0       0
      Locals:         1       0       0       0       0       0       0       0       0       0       0       0       0       0       0       0       0
      Temps:          1       0       0       0       0       0       0       0       0       0       0       0       0       0       0       0       0
      Totals:         2       4       0       0       0       0       0       0       0       0       0       0       0       0       0       0       0
Total ram usage:        6 bytes
 Hardware stack levels used:    1
 Hardware stack levels required when called:    2
 This function calls:
		Nothing
 This function is called by:
		_sprintf
 This function uses a non-reentrant model


 *************** function _receiveData *****************
 Defined at:
		line 28 in file "../main.c"
 Parameters:    Size  Location     Type
		None
 Auto vars:     Size  Location     Type
  ledData         2   34[COMRAM] unsigned char [2]
  l               2   36[COMRAM] PTR struct .
		 -> ledList(1792), 
  i               2   32[COMRAM] int 
  y               2   30[COMRAM] int 
  x               2   28[COMRAM] int 
  board           2   23[COMRAM] int 
  totalBytes      1   27[COMRAM] unsigned char 
 Return value:  Size  Location     Type
		None               void
 Registers used:
		wreg, fsr2l, fsr2h, status,2, status,0, cstack
 Tracked objects:
		On entry : 
		On exit  : 
		Unchanged: 
 Data sizes:     COMRAM   BANK0   BANK1   BANK2   BANK3   BANK4   BANK5   BANK6   BANK7   BANK8   BANK9  BANK10  BANK11  BANK12  BANK13  BANK14  BANK15
      Params:         0       0       0       0       0       0       0       0       0       0       0       0       0       0       0       0       0
      Locals:        15       0       0       0       0       0       0       0       0       0       0       0       0       0       0       0       0
      Temps:         17       0       0       0       0       0       0       0       0       0       0       0       0       0       0       0       0
      Totals:        32       0       0       0       0       0       0       0       0       0       0       0       0       0       0       0       0
Total ram usage:       32 bytes
 Hardware stack levels used:    1
 Hardware stack levels required when called:    1
 This function calls:
		___wmul
 This function is called by:
		Interrupt level 2
 This function uses a non-reentrant model


 *************** function ___wmul *****************
 Defined at:
		line 3 in file "/Applications/microchip/xc8/v1.12/sources/wmul.c"
 Parameters:    Size  Location     Type
  multiplier      2    0[COMRAM] unsigned int 
  multiplicand    2    2[COMRAM] unsigned int 
 Auto vars:     Size  Location     Type
  product         2    4[COMRAM] unsigned int 
 Return value:  Size  Location     Type
                  2    0[COMRAM] unsigned int 
 Registers used:
		wreg, status,2, status,0
 Tracked objects:
		On entry : 
		On exit  : 
		Unchanged: 
 Data sizes:     COMRAM   BANK0   BANK1   BANK2   BANK3   BANK4   BANK5   BANK6   BANK7   BANK8   BANK9  BANK10  BANK11  BANK12  BANK13  BANK14  BANK15
      Params:         4       0       0       0       0       0       0       0       0       0       0       0       0       0       0       0       0
      Locals:         2       0       0       0       0       0       0       0       0       0       0       0       0       0       0       0       0
      Temps:          0       0       0       0       0       0       0       0       0       0       0       0       0       0       0       0       0
      Totals:         6       0       0       0       0       0       0       0       0       0       0       0       0       0       0       0       0
Total ram usage:        6 bytes
 Hardware stack levels used:    1
 This function calls:
		Nothing
 This function is called by:
		_receiveData
 This function uses a non-reentrant model



MODULE INFORMATION

Module		Function		Class		Link	Load	Size
../main.c
		_main          		CODE           	1012	0000	814
		_receiveData   		CODE           	0008	0000	486

../main.c estimated size: 1300

plib/SPI/spi1open.c
		_OpenSPI1      		CODE           	1BBE	0000	100

plib/SPI/spi1open.c estimated size: 100

../common/d10ktcyx.c
		_Delay10KTCYx  		CODE           	1D32	0000	24

../common/d10ktcyx.c estimated size: 24

../LCD_16x2_Pic18.h
		_ctrl_lcd_curso		CODE           	1C22	0000	64
		_tempo_us      		CODE           	17AC	0000	260
		_pos_lcd       		CODE           	19AC	0000	176
		_lcd_start     		CODE           	15A8	0000	516
		_envia_lcd     		CODE           	18B0	0000	252
		_mostra_lcd_buf		CODE           	1C62	0000	62
		_envia_dado    		CODE           	1D18	0000	26
		_limpa_tela    		CODE           	1CDE	0000	30

../LCD_16x2_Pic18.h estimated size: 1386

shared
		__stringdata   		SMALLCONST     	100A	0000	7
		_dpowers       		SMALLCONST     	1000	0000	10
		__initializatio		CODE           	1B58	0000	96

shared estimated size: 113

/Applications/microchip/xc8/v1.12/sources/wmul.c
		___wmul        		CODE           	1CA0	0000	62

/Applications/microchip/xc8/v1.12/sources/wmul.c estimated size: 62

/Applications/microchip/xc8/v1.12/sources/lwmod.c
		___lwmod       		CODE           	1A5C	0000	144

/Applications/microchip/xc8/v1.12/sources/lwmod.c estimated size: 144

/Applications/microchip/xc8/v1.12/sources/lwdiv.c
		___lwdiv       		CODE           	1AEC	0000	108

/Applications/microchip/xc8/v1.12/sources/lwdiv.c estimated size: 108

/Applications/microchip/xc8/v1.12/sources/doprnt.c
		_sprintf       		CODE           	1340	0000	616

/Applications/microchip/xc8/v1.12/sources/doprnt.c estimated size: 616

