

Microchip Technology PIC18 LITE Macro Assembler V1.12 build 49521 
                                                                                               Wed May  8 01:24:40 2013

HI-TECH Software Omniscient Code Generator (Lite mode) build 49521
     1  0000                     opt subtitle "HI-TECH Software Omniscient Code Generator (Lite mode) build 49521"
     2                           opt subtitle "HI-TECH Software Omniscient Code Generator (Lite mode) build 49521"
     3                           
     4                           opt pagewidth 120
     5                           
     6                           	opt lm
     7                           
     8  0000                     porta	equ	0F80h
     9  0000                     portb	equ	0F81h
    10  0000                     portc	equ	0F82h
    11  0000                     portd	equ	0F83h
    12  0000                     porte	equ	0F84h
    13  0000                     lata	equ	0F89h
    14  0000                     latb	equ	0F8Ah
    15  0000                     latc	equ	0F8Bh
    16  0000                     latd	equ	0F8Ch
    17  0000                     late	equ	0F8Dh
    18  0000                     trisa	equ	0F92h
    19  0000                     trisb	equ	0F93h
    20  0000                     trisc	equ	0F94h
    21  0000                     trisd	equ	0F95h
    22  0000                     trise	equ	0F96h
    23  0000                     pie1	equ	0F9Dh
    24  0000                     pir1	equ	0F9Eh
    25  0000                     ipr1	equ	0F9Fh
    26  0000                     pie2	equ	0FA0h
    27  0000                     pir2	equ	0FA1h
    28  0000                     ipr2	equ	0FA2h
    29  0000                     t3con	equ	0FB1h
    30  0000                     tmr3l	equ	0FB2h
    31  0000                     tmr3h	equ	0FB3h
    32  0000                     ccp1con	equ	0FBDh
    33  0000                     ccpr1l	equ	0FBEh
    34  0000                     ccpr1h	equ	0FBFh
    35  0000                     adcon1	equ	0FC1h
    36  0000                     adcon0	equ	0FC2h
    37  0000                     adresl	equ	0FC3h
    38  0000                     adresh	equ	0FC4h
    39  0000                     sspcon2	equ	0FC5h
    40  0000                     sspcon1	equ	0FC6h
    41  0000                     sspstat	equ	0FC7h
    42  0000                     sspadd	equ	0FC8h
    43  0000                     sspbuf	equ	0FC9h
    44  0000                     t2con	equ	0FCAh
    45  0000                     pr2	equ	0FCBh
    46  0000                     tmr2	equ	0FCCh
    47  0000                     t1con	equ	0FCDh
    48  0000                     tmr1l	equ	0FCEh
    49  0000                     tmr1h	equ	0FCFh
    50  0000                     rcon	equ	0FD0h
    51  0000                     wdtcon	equ	0FD1h
    52  0000                     lvdcon	equ	0FD2h
    53  0000                     osccon	equ	0FD3h
    54  0000                     t0con	equ	0FD5h
    55  0000                     tmr0l	equ	0FD6h
    56  0000                     tmr0h	equ	0FD7h
    57  0000                     status	equ	0FD8h
    58  0000                     fsr2	equ	0FD9h
    59  0000                     fsr2l	equ	0FD9h
    60  0000                     fsr2h	equ	0FDAh
    61  0000                     plusw2	equ	0FDBh
    62  0000                     preinc2	equ	0FDCh
    63  0000                     postdec2	equ	0FDDh
    64  0000                     postinc2	equ	0FDEh
    65  0000                     indf2	equ	0FDFh
    66  0000                     bsr	equ	0FE0h
    67  0000                     fsr1	equ	0FE1h
    68  0000                     fsr1l	equ	0FE1h
    69  0000                     fsr1h	equ	0FE2h
    70  0000                     plusw1	equ	0FE3h
    71  0000                     preinc1	equ	0FE4h
    72  0000                     postdec1	equ	0FE5h
    73  0000                     postinc1	equ	0FE6h
    74  0000                     indf1	equ	0FE7h
    75  0000                     wreg	equ	0FE8h
    76  0000                     fsr0	equ	0FE9h
    77  0000                     fsr0l	equ	0FE9h
    78  0000                     fsr0h	equ	0FEAh
    79  0000                     plusw0	equ	0FEBh
    80  0000                     preinc0	equ	0FECh
    81  0000                     postdec0	equ	0FEDh
    82  0000                     postinc0	equ	0FEEh
    83  0000                     indf0	equ	0FEFh
    84  0000                     intcon3	equ	0FF0h
    85  0000                     intcon2	equ	0FF1h
    86  0000                     intcon	equ	0FF2h
    87  0000                     prod	equ	0FF3h
    88  0000                     prodl	equ	0FF3h
    89  0000                     prodh	equ	0FF4h
    90  0000                     tablat	equ	0FF5h
    91  0000                     tblptr	equ	0FF6h
    92  0000                     tblptrl	equ	0FF6h
    93  0000                     tblptrh	equ	0FF7h
    94  0000                     tblptru	equ	0FF8h
    95  0000                     pcl	equ	0FF9h
    96  0000                     pclat	equ	0FFAh
    97  0000                     pclath	equ	0FFAh
    98  0000                     pclatu	equ	0FFBh
    99  0000                     stkptr	equ	0FFCh
   100  0000                     tosl	equ	0FFDh
   101  0000                     tosh	equ	0FFEh
   102  0000                     tosu	equ	0FFFh
   103                           opt subtitle "HI-TECH Software Omniscient Code Generator (Lite mode) build 49521"
   104                           
   105  0000                     	endm
   106                           opt subtitle "HI-TECH Software Omniscient Code Generator (Lite mode) build 49521"
   107                           
   108                           opt pagewidth 120
   109  0000                     SSP2CON2 equ 0F62h ;# 
   110                           opt subtitle "HI-TECH Software Omniscient Code Generator (Lite mode) build 49521"
   111  0000                     SSP2CON1 equ 0F63h ;# 
   112                           opt subtitle "HI-TECH Software Omniscient Code Generator (Lite mode) build 49521"
   113  0000                     SSP2STAT equ 0F64h ;# 
   114                           opt subtitle "HI-TECH Software Omniscient Code Generator (Lite mode) build 49521"
   115  0000                     SSP2ADD equ 0F65h ;# 
   116                           opt subtitle "HI-TECH Software Omniscient Code Generator (Lite mode) build 49521"
   117  0000                     SSP2BUF equ 0F66h ;# 
   118                           opt subtitle "HI-TECH Software Omniscient Code Generator (Lite mode) build 49521"
   119  0000                     ECCP2DEL equ 0F67h ;# 
   120                           opt subtitle "HI-TECH Software Omniscient Code Generator (Lite mode) build 49521"
   121  0000                     ECCP2AS equ 0F68h ;# 
   122                           opt subtitle "HI-TECH Software Omniscient Code Generator (Lite mode) build 49521"
   123  0000                     ECCP3DEL equ 0F69h ;# 
   124                           opt subtitle "HI-TECH Software Omniscient Code Generator (Lite mode) build 49521"
   125  0000                     ECCP3AS equ 0F6Ah ;# 
   126                           opt subtitle "HI-TECH Software Omniscient Code Generator (Lite mode) build 49521"
   127  0000                     RCSTA2 equ 0F6Bh ;# 
   128                           opt subtitle "HI-TECH Software Omniscient Code Generator (Lite mode) build 49521"
   129  0000                     TXSTA2 equ 0F6Ch ;# 
   130                           opt subtitle "HI-TECH Software Omniscient Code Generator (Lite mode) build 49521"
   131  0000                     TXREG2 equ 0F6Dh ;# 
   132                           opt subtitle "HI-TECH Software Omniscient Code Generator (Lite mode) build 49521"
   133  0000                     RCREG2 equ 0F6Eh ;# 
   134                           opt subtitle "HI-TECH Software Omniscient Code Generator (Lite mode) build 49521"
   135  0000                     SPBRG2 equ 0F6Fh ;# 
   136                           opt subtitle "HI-TECH Software Omniscient Code Generator (Lite mode) build 49521"
   137  0000                     CCP5CON equ 0F70h ;# 
   138                           opt subtitle "HI-TECH Software Omniscient Code Generator (Lite mode) build 49521"
   139  0000                     CCPR5 equ 0F71h ;# 
   140                           opt subtitle "HI-TECH Software Omniscient Code Generator (Lite mode) build 49521"
   141  0000                     CCPR5L equ 0F71h ;# 
   142                           opt subtitle "HI-TECH Software Omniscient Code Generator (Lite mode) build 49521"
   143  0000                     CCPR5H equ 0F72h ;# 
   144                           opt subtitle "HI-TECH Software Omniscient Code Generator (Lite mode) build 49521"
   145  0000                     CCP4CON equ 0F73h ;# 
   146                           opt subtitle "HI-TECH Software Omniscient Code Generator (Lite mode) build 49521"
   147  0000                     CCPR4 equ 0F74h ;# 
   148                           opt subtitle "HI-TECH Software Omniscient Code Generator (Lite mode) build 49521"
   149  0000                     CCPR4L equ 0F74h ;# 
   150                           opt subtitle "HI-TECH Software Omniscient Code Generator (Lite mode) build 49521"
   151  0000                     CCPR4H equ 0F75h ;# 
   152                           opt subtitle "HI-TECH Software Omniscient Code Generator (Lite mode) build 49521"
   153  0000                     T4CON equ 0F76h ;# 
   154                           opt subtitle "HI-TECH Software Omniscient Code Generator (Lite mode) build 49521"
   155  0000                     PR4 equ 0F77h ;# 
   156                           opt subtitle "HI-TECH Software Omniscient Code Generator (Lite mode) build 49521"
   157  0000                     TMR4 equ 0F78h ;# 
   158                           opt subtitle "HI-TECH Software Omniscient Code Generator (Lite mode) build 49521"
   159  0000                     ECCP1DEL equ 0F79h ;# 
   160                           opt subtitle "HI-TECH Software Omniscient Code Generator (Lite mode) build 49521"
   161  0000                     BAUDCON2 equ 0F7Ch ;# 
   162                           opt subtitle "HI-TECH Software Omniscient Code Generator (Lite mode) build 49521"
   163  0000                     SPBRGH2 equ 0F7Dh ;# 
   164                           opt subtitle "HI-TECH Software Omniscient Code Generator (Lite mode) build 49521"
   165  0000                     BAUDCON1 equ 0F7Eh ;# 
   166                           opt subtitle "HI-TECH Software Omniscient Code Generator (Lite mode) build 49521"
   167  0000                     BAUDCON equ 0F7Eh ;# 
   168                           opt subtitle "HI-TECH Software Omniscient Code Generator (Lite mode) build 49521"
   169  0000                     BAUDCTL equ 0F7Eh ;# 
   170                           opt subtitle "HI-TECH Software Omniscient Code Generator (Lite mode) build 49521"
   171  0000                     SPBRGH1 equ 0F7Fh ;# 
   172                           opt subtitle "HI-TECH Software Omniscient Code Generator (Lite mode) build 49521"
   173  0000                     SPBRGH equ 0F7Fh ;# 
   174                           opt subtitle "HI-TECH Software Omniscient Code Generator (Lite mode) build 49521"
   175  0000                     PORTA equ 0F80h ;# 
   176                           opt subtitle "HI-TECH Software Omniscient Code Generator (Lite mode) build 49521"
   177  0000                     PORTB equ 0F81h ;# 
   178                           opt subtitle "HI-TECH Software Omniscient Code Generator (Lite mode) build 49521"
   179  0000                     PORTC equ 0F82h ;# 
   180                           opt subtitle "HI-TECH Software Omniscient Code Generator (Lite mode) build 49521"
   181  0000                     PORTD equ 0F83h ;# 
   182                           opt subtitle "HI-TECH Software Omniscient Code Generator (Lite mode) build 49521"
   183  0000                     PORTE equ 0F84h ;# 
   184                           opt subtitle "HI-TECH Software Omniscient Code Generator (Lite mode) build 49521"
   185  0000                     PORTF equ 0F85h ;# 
   186                           opt subtitle "HI-TECH Software Omniscient Code Generator (Lite mode) build 49521"
   187  0000                     PORTG equ 0F86h ;# 
   188                           opt subtitle "HI-TECH Software Omniscient Code Generator (Lite mode) build 49521"
   189  0000                     PORTH equ 0F87h ;# 
   190                           opt subtitle "HI-TECH Software Omniscient Code Generator (Lite mode) build 49521"
   191  0000                     PORTJ equ 0F88h ;# 
   192                           opt subtitle "HI-TECH Software Omniscient Code Generator (Lite mode) build 49521"
   193  0000                     LATA equ 0F89h ;# 
   194                           opt subtitle "HI-TECH Software Omniscient Code Generator (Lite mode) build 49521"
   195  0000                     LATB equ 0F8Ah ;# 
   196                           opt subtitle "HI-TECH Software Omniscient Code Generator (Lite mode) build 49521"
   197  0000                     LATC equ 0F8Bh ;# 
   198                           opt subtitle "HI-TECH Software Omniscient Code Generator (Lite mode) build 49521"
   199  0000                     LATD equ 0F8Ch ;# 
   200                           opt subtitle "HI-TECH Software Omniscient Code Generator (Lite mode) build 49521"
   201  0000                     LATE equ 0F8Dh ;# 
   202                           opt subtitle "HI-TECH Software Omniscient Code Generator (Lite mode) build 49521"
   203  0000                     LATF equ 0F8Eh ;# 
   204                           opt subtitle "HI-TECH Software Omniscient Code Generator (Lite mode) build 49521"
   205  0000                     LATG equ 0F8Fh ;# 
   206                           opt subtitle "HI-TECH Software Omniscient Code Generator (Lite mode) build 49521"
   207  0000                     LATH equ 0F90h ;# 
   208                           opt subtitle "HI-TECH Software Omniscient Code Generator (Lite mode) build 49521"
   209  0000                     LATJ equ 0F91h ;# 
   210                           opt subtitle "HI-TECH Software Omniscient Code Generator (Lite mode) build 49521"
   211  0000                     TRISA equ 0F92h ;# 
   212                           opt subtitle "HI-TECH Software Omniscient Code Generator (Lite mode) build 49521"
   213  0000                     DDRA equ 0F92h ;# 
   214                           opt subtitle "HI-TECH Software Omniscient Code Generator (Lite mode) build 49521"
   215  0000                     TRISB equ 0F93h ;# 
   216                           opt subtitle "HI-TECH Software Omniscient Code Generator (Lite mode) build 49521"
   217  0000                     DDRB equ 0F93h ;# 
   218                           opt subtitle "HI-TECH Software Omniscient Code Generator (Lite mode) build 49521"
   219  0000                     TRISC equ 0F94h ;# 
   220                           opt subtitle "HI-TECH Software Omniscient Code Generator (Lite mode) build 49521"
   221  0000                     DDRC equ 0F94h ;# 
   222                           opt subtitle "HI-TECH Software Omniscient Code Generator (Lite mode) build 49521"
   223  0000                     TRISD equ 0F95h ;# 
   224                           opt subtitle "HI-TECH Software Omniscient Code Generator (Lite mode) build 49521"
   225  0000                     DDRD equ 0F95h ;# 
   226                           opt subtitle "HI-TECH Software Omniscient Code Generator (Lite mode) build 49521"
   227  0000                     TRISE equ 0F96h ;# 
   228                           opt subtitle "HI-TECH Software Omniscient Code Generator (Lite mode) build 49521"
   229  0000                     DDRE equ 0F96h ;# 
   230                           opt subtitle "HI-TECH Software Omniscient Code Generator (Lite mode) build 49521"
   231  0000                     TRISF equ 0F97h ;# 
   232                           opt subtitle "HI-TECH Software Omniscient Code Generator (Lite mode) build 49521"
   233  0000                     DDRF equ 0F97h ;# 
   234                           opt subtitle "HI-TECH Software Omniscient Code Generator (Lite mode) build 49521"
   235  0000                     TRISG equ 0F98h ;# 
   236                           opt subtitle "HI-TECH Software Omniscient Code Generator (Lite mode) build 49521"
   237  0000                     DDRG equ 0F98h ;# 
   238                           opt subtitle "HI-TECH Software Omniscient Code Generator (Lite mode) build 49521"
   239  0000                     TRISH equ 0F99h ;# 
   240                           opt subtitle "HI-TECH Software Omniscient Code Generator (Lite mode) build 49521"
   241  0000                     DDRH equ 0F99h ;# 
   242                           opt subtitle "HI-TECH Software Omniscient Code Generator (Lite mode) build 49521"
   243  0000                     TRISJ equ 0F9Ah ;# 
   244                           opt subtitle "HI-TECH Software Omniscient Code Generator (Lite mode) build 49521"
   245  0000                     DDRJ equ 0F9Ah ;# 
   246                           opt subtitle "HI-TECH Software Omniscient Code Generator (Lite mode) build 49521"
   247  0000                     OSCTUNE equ 0F9Bh ;# 
   248                           opt subtitle "HI-TECH Software Omniscient Code Generator (Lite mode) build 49521"
   249  0000                     MEMCON equ 0F9Ch ;# 
   250                           opt subtitle "HI-TECH Software Omniscient Code Generator (Lite mode) build 49521"
   251  0000                     PIE1 equ 0F9Dh ;# 
   252                           opt subtitle "HI-TECH Software Omniscient Code Generator (Lite mode) build 49521"
   253  0000                     PIR1 equ 0F9Eh ;# 
   254                           opt subtitle "HI-TECH Software Omniscient Code Generator (Lite mode) build 49521"
   255  0000                     IPR1 equ 0F9Fh ;# 
   256                           opt subtitle "HI-TECH Software Omniscient Code Generator (Lite mode) build 49521"
   257  0000                     PIE2 equ 0FA0h ;# 
   258                           opt subtitle "HI-TECH Software Omniscient Code Generator (Lite mode) build 49521"
   259  0000                     PIR2 equ 0FA1h ;# 
   260                           opt subtitle "HI-TECH Software Omniscient Code Generator (Lite mode) build 49521"
   261  0000                     IPR2 equ 0FA2h ;# 
   262                           opt subtitle "HI-TECH Software Omniscient Code Generator (Lite mode) build 49521"
   263  0000                     PIE3 equ 0FA3h ;# 
   264                           opt subtitle "HI-TECH Software Omniscient Code Generator (Lite mode) build 49521"
   265  0000                     PIR3 equ 0FA4h ;# 
   266                           opt subtitle "HI-TECH Software Omniscient Code Generator (Lite mode) build 49521"
   267  0000                     IPR3 equ 0FA5h ;# 
   268                           opt subtitle "HI-TECH Software Omniscient Code Generator (Lite mode) build 49521"
   269  0000                     EECON1 equ 0FA6h ;# 
   270                           opt subtitle "HI-TECH Software Omniscient Code Generator (Lite mode) build 49521"
   271  0000                     EECON2 equ 0FA7h ;# 
   272                           opt subtitle "HI-TECH Software Omniscient Code Generator (Lite mode) build 49521"
   273  0000                     EEDATA equ 0FA8h ;# 
   274                           opt subtitle "HI-TECH Software Omniscient Code Generator (Lite mode) build 49521"
   275  0000                     EEADR equ 0FA9h ;# 
   276                           opt subtitle "HI-TECH Software Omniscient Code Generator (Lite mode) build 49521"
   277  0000                     EEADRH equ 0FAAh ;# 
   278                           opt subtitle "HI-TECH Software Omniscient Code Generator (Lite mode) build 49521"
   279  0000                     RCSTA1 equ 0FABh ;# 
   280                           opt subtitle "HI-TECH Software Omniscient Code Generator (Lite mode) build 49521"
   281  0000                     RCSTA equ 0FABh ;# 
   282                           opt subtitle "HI-TECH Software Omniscient Code Generator (Lite mode) build 49521"
   283  0000                     TXSTA1 equ 0FACh ;# 
   284                           opt subtitle "HI-TECH Software Omniscient Code Generator (Lite mode) build 49521"
   285  0000                     TXSTA equ 0FACh ;# 
   286                           opt subtitle "HI-TECH Software Omniscient Code Generator (Lite mode) build 49521"
   287  0000                     TXREG1 equ 0FADh ;# 
   288                           opt subtitle "HI-TECH Software Omniscient Code Generator (Lite mode) build 49521"
   289  0000                     TXREG equ 0FADh ;# 
   290                           opt subtitle "HI-TECH Software Omniscient Code Generator (Lite mode) build 49521"
   291  0000                     RCREG1 equ 0FAEh ;# 
   292                           opt subtitle "HI-TECH Software Omniscient Code Generator (Lite mode) build 49521"
   293  0000                     RCREG equ 0FAEh ;# 
   294                           opt subtitle "HI-TECH Software Omniscient Code Generator (Lite mode) build 49521"
   295  0000                     SPBRG1 equ 0FAFh ;# 
   296                           opt subtitle "HI-TECH Software Omniscient Code Generator (Lite mode) build 49521"
   297  0000                     SPBRG equ 0FAFh ;# 
   298                           opt subtitle "HI-TECH Software Omniscient Code Generator (Lite mode) build 49521"
   299  0000                     PSPCON equ 0FB0h ;# 
   300                           opt subtitle "HI-TECH Software Omniscient Code Generator (Lite mode) build 49521"
   301  0000                     T3CON equ 0FB1h ;# 
   302                           opt subtitle "HI-TECH Software Omniscient Code Generator (Lite mode) build 49521"
   303  0000                     TMR3 equ 0FB2h ;# 
   304                           opt subtitle "HI-TECH Software Omniscient Code Generator (Lite mode) build 49521"
   305  0000                     TMR3L equ 0FB2h ;# 
   306                           opt subtitle "HI-TECH Software Omniscient Code Generator (Lite mode) build 49521"
   307  0000                     TMR3H equ 0FB3h ;# 
   308                           opt subtitle "HI-TECH Software Omniscient Code Generator (Lite mode) build 49521"
   309  0000                     CMCON equ 0FB4h ;# 
   310                           opt subtitle "HI-TECH Software Omniscient Code Generator (Lite mode) build 49521"
   311  0000                     CVRCON equ 0FB5h ;# 
   312                           opt subtitle "HI-TECH Software Omniscient Code Generator (Lite mode) build 49521"
   313  0000                     ECCP1AS equ 0FB6h ;# 
   314                           opt subtitle "HI-TECH Software Omniscient Code Generator (Lite mode) build 49521"
   315  0000                     CCP3CON equ 0FB7h ;# 
   316                           opt subtitle "HI-TECH Software Omniscient Code Generator (Lite mode) build 49521"
   317  0000                     ECCP3CON equ 0FB7h ;# 
   318                           opt subtitle "HI-TECH Software Omniscient Code Generator (Lite mode) build 49521"
   319  0000                     CCPR3 equ 0FB8h ;# 
   320                           opt subtitle "HI-TECH Software Omniscient Code Generator (Lite mode) build 49521"
   321  0000                     CCPR3L equ 0FB8h ;# 
   322                           opt subtitle "HI-TECH Software Omniscient Code Generator (Lite mode) build 49521"
   323  0000                     CCPR3H equ 0FB9h ;# 
   324                           opt subtitle "HI-TECH Software Omniscient Code Generator (Lite mode) build 49521"
   325  0000                     CCP2CON equ 0FBAh ;# 
   326                           opt subtitle "HI-TECH Software Omniscient Code Generator (Lite mode) build 49521"
   327  0000                     ECCP2CON equ 0FBAh ;# 
   328                           opt subtitle "HI-TECH Software Omniscient Code Generator (Lite mode) build 49521"
   329  0000                     CCPR2 equ 0FBBh ;# 
   330                           opt subtitle "HI-TECH Software Omniscient Code Generator (Lite mode) build 49521"
   331  0000                     CCPR2L equ 0FBBh ;# 
   332                           opt subtitle "HI-TECH Software Omniscient Code Generator (Lite mode) build 49521"
   333  0000                     CCPR2H equ 0FBCh ;# 
   334                           opt subtitle "HI-TECH Software Omniscient Code Generator (Lite mode) build 49521"
   335  0000                     CCP1CON equ 0FBDh ;# 
   336                           opt subtitle "HI-TECH Software Omniscient Code Generator (Lite mode) build 49521"
   337  0000                     ECCP1CON equ 0FBDh ;# 
   338                           opt subtitle "HI-TECH Software Omniscient Code Generator (Lite mode) build 49521"
   339  0000                     CCPR1 equ 0FBEh ;# 
   340                           opt subtitle "HI-TECH Software Omniscient Code Generator (Lite mode) build 49521"
   341  0000                     CCPR1L equ 0FBEh ;# 
   342                           opt subtitle "HI-TECH Software Omniscient Code Generator (Lite mode) build 49521"
   343  0000                     CCPR1H equ 0FBFh ;# 
   344                           opt subtitle "HI-TECH Software Omniscient Code Generator (Lite mode) build 49521"
   345  0000                     ADCON2 equ 0FC0h ;# 
   346                           opt subtitle "HI-TECH Software Omniscient Code Generator (Lite mode) build 49521"
   347  0000                     ADCON1 equ 0FC1h ;# 
   348                           opt subtitle "HI-TECH Software Omniscient Code Generator (Lite mode) build 49521"
   349  0000                     ADCON0 equ 0FC2h ;# 
   350                           opt subtitle "HI-TECH Software Omniscient Code Generator (Lite mode) build 49521"
   351  0000                     ADRES equ 0FC3h ;# 
   352                           opt subtitle "HI-TECH Software Omniscient Code Generator (Lite mode) build 49521"
   353  0000                     ADRESL equ 0FC3h ;# 
   354                           opt subtitle "HI-TECH Software Omniscient Code Generator (Lite mode) build 49521"
   355  0000                     ADRESH equ 0FC4h ;# 
   356                           opt subtitle "HI-TECH Software Omniscient Code Generator (Lite mode) build 49521"
   357  0000                     SSP1CON2 equ 0FC5h ;# 
   358                           opt subtitle "HI-TECH Software Omniscient Code Generator (Lite mode) build 49521"
   359  0000                     SSPCON2 equ 0FC5h ;# 
   360                           opt subtitle "HI-TECH Software Omniscient Code Generator (Lite mode) build 49521"
   361  0000                     SSP1CON1 equ 0FC6h ;# 
   362                           opt subtitle "HI-TECH Software Omniscient Code Generator (Lite mode) build 49521"
   363  0000                     SSPCON1 equ 0FC6h ;# 
   364                           opt subtitle "HI-TECH Software Omniscient Code Generator (Lite mode) build 49521"
   365  0000                     SSP1STAT equ 0FC7h ;# 
   366                           opt subtitle "HI-TECH Software Omniscient Code Generator (Lite mode) build 49521"
   367  0000                     SSPSTAT equ 0FC7h ;# 
   368                           opt subtitle "HI-TECH Software Omniscient Code Generator (Lite mode) build 49521"
   369  0000                     SSP1ADD equ 0FC8h ;# 
   370                           opt subtitle "HI-TECH Software Omniscient Code Generator (Lite mode) build 49521"
   371  0000                     SSPADD equ 0FC8h ;# 
   372                           opt subtitle "HI-TECH Software Omniscient Code Generator (Lite mode) build 49521"
   373  0000                     SSP1BUF equ 0FC9h ;# 
   374                           opt subtitle "HI-TECH Software Omniscient Code Generator (Lite mode) build 49521"
   375  0000                     SSPBUF equ 0FC9h ;# 
   376                           opt subtitle "HI-TECH Software Omniscient Code Generator (Lite mode) build 49521"
   377  0000                     T2CON equ 0FCAh ;# 
   378                           opt subtitle "HI-TECH Software Omniscient Code Generator (Lite mode) build 49521"
   379  0000                     PR2 equ 0FCBh ;# 
   380                           opt subtitle "HI-TECH Software Omniscient Code Generator (Lite mode) build 49521"
   381  0000                     TMR2 equ 0FCCh ;# 
   382                           opt subtitle "HI-TECH Software Omniscient Code Generator (Lite mode) build 49521"
   383  0000                     T1CON equ 0FCDh ;# 
   384                           opt subtitle "HI-TECH Software Omniscient Code Generator (Lite mode) build 49521"
   385  0000                     TMR1 equ 0FCEh ;# 
   386                           opt subtitle "HI-TECH Software Omniscient Code Generator (Lite mode) build 49521"
   387  0000                     TMR1L equ 0FCEh ;# 
   388                           opt subtitle "HI-TECH Software Omniscient Code Generator (Lite mode) build 49521"
   389  0000                     TMR1H equ 0FCFh ;# 
   390                           opt subtitle "HI-TECH Software Omniscient Code Generator (Lite mode) build 49521"
   391  0000                     RCON equ 0FD0h ;# 
   392                           opt subtitle "HI-TECH Software Omniscient Code Generator (Lite mode) build 49521"
   393  0000                     WDTCON equ 0FD1h ;# 
   394                           opt subtitle "HI-TECH Software Omniscient Code Generator (Lite mode) build 49521"
   395  0000                     HLVDCON equ 0FD2h ;# 
   396                           opt subtitle "HI-TECH Software Omniscient Code Generator (Lite mode) build 49521"
   397  0000                     LVDCON equ 0FD2h ;# 
   398                           opt subtitle "HI-TECH Software Omniscient Code Generator (Lite mode) build 49521"
   399  0000                     OSCCON equ 0FD3h ;# 
   400                           opt subtitle "HI-TECH Software Omniscient Code Generator (Lite mode) build 49521"
   401  0000                     T0CON equ 0FD5h ;# 
   402                           opt subtitle "HI-TECH Software Omniscient Code Generator (Lite mode) build 49521"
   403  0000                     TMR0 equ 0FD6h ;# 
   404                           opt subtitle "HI-TECH Software Omniscient Code Generator (Lite mode) build 49521"
   405  0000                     TMR0L equ 0FD6h ;# 
   406                           opt subtitle "HI-TECH Software Omniscient Code Generator (Lite mode) build 49521"
   407  0000                     TMR0H equ 0FD7h ;# 
   408                           opt subtitle "HI-TECH Software Omniscient Code Generator (Lite mode) build 49521"
   409  0000                     STATUS equ 0FD8h ;# 
   410                           opt subtitle "HI-TECH Software Omniscient Code Generator (Lite mode) build 49521"
   411  0000                     FSR2 equ 0FD9h ;# 
   412                           opt subtitle "HI-TECH Software Omniscient Code Generator (Lite mode) build 49521"
   413  0000                     FSR2L equ 0FD9h ;# 
   414                           opt subtitle "HI-TECH Software Omniscient Code Generator (Lite mode) build 49521"
   415  0000                     FSR2H equ 0FDAh ;# 
   416                           opt subtitle "HI-TECH Software Omniscient Code Generator (Lite mode) build 49521"
   417  0000                     PLUSW2 equ 0FDBh ;# 
   418                           opt subtitle "HI-TECH Software Omniscient Code Generator (Lite mode) build 49521"
   419  0000                     PREINC2 equ 0FDCh ;# 
   420                           opt subtitle "HI-TECH Software Omniscient Code Generator (Lite mode) build 49521"
   421  0000                     POSTDEC2 equ 0FDDh ;# 
   422                           opt subtitle "HI-TECH Software Omniscient Code Generator (Lite mode) build 49521"
   423  0000                     POSTINC2 equ 0FDEh ;# 
   424                           opt subtitle "HI-TECH Software Omniscient Code Generator (Lite mode) build 49521"
   425  0000                     INDF2 equ 0FDFh ;# 
   426                           opt subtitle "HI-TECH Software Omniscient Code Generator (Lite mode) build 49521"
   427  0000                     BSR equ 0FE0h ;# 
   428                           opt subtitle "HI-TECH Software Omniscient Code Generator (Lite mode) build 49521"
   429  0000                     FSR1 equ 0FE1h ;# 
   430                           opt subtitle "HI-TECH Software Omniscient Code Generator (Lite mode) build 49521"
   431  0000                     FSR1L equ 0FE1h ;# 
   432                           opt subtitle "HI-TECH Software Omniscient Code Generator (Lite mode) build 49521"
   433  0000                     FSR1H equ 0FE2h ;# 
   434                           opt subtitle "HI-TECH Software Omniscient Code Generator (Lite mode) build 49521"
   435  0000                     PLUSW1 equ 0FE3h ;# 
   436                           opt subtitle "HI-TECH Software Omniscient Code Generator (Lite mode) build 49521"
   437  0000                     PREINC1 equ 0FE4h ;# 
   438                           opt subtitle "HI-TECH Software Omniscient Code Generator (Lite mode) build 49521"
   439  0000                     POSTDEC1 equ 0FE5h ;# 
   440                           opt subtitle "HI-TECH Software Omniscient Code Generator (Lite mode) build 49521"
   441  0000                     POSTINC1 equ 0FE6h ;# 
   442                           opt subtitle "HI-TECH Software Omniscient Code Generator (Lite mode) build 49521"
   443  0000                     INDF1 equ 0FE7h ;# 
   444                           opt subtitle "HI-TECH Software Omniscient Code Generator (Lite mode) build 49521"
   445  0000                     WREG equ 0FE8h ;# 
   446                           opt subtitle "HI-TECH Software Omniscient Code Generator (Lite mode) build 49521"
   447  0000                     FSR0 equ 0FE9h ;# 
   448                           opt subtitle "HI-TECH Software Omniscient Code Generator (Lite mode) build 49521"
   449  0000                     FSR0L equ 0FE9h ;# 
   450                           opt subtitle "HI-TECH Software Omniscient Code Generator (Lite mode) build 49521"
   451  0000                     FSR0H equ 0FEAh ;# 
   452                           opt subtitle "HI-TECH Software Omniscient Code Generator (Lite mode) build 49521"
   453  0000                     PLUSW0 equ 0FEBh ;# 
   454                           opt subtitle "HI-TECH Software Omniscient Code Generator (Lite mode) build 49521"
   455  0000                     PREINC0 equ 0FECh ;# 
   456                           opt subtitle "HI-TECH Software Omniscient Code Generator (Lite mode) build 49521"
   457  0000                     POSTDEC0 equ 0FEDh ;# 
   458                           opt subtitle "HI-TECH Software Omniscient Code Generator (Lite mode) build 49521"
   459  0000                     POSTINC0 equ 0FEEh ;# 
   460                           opt subtitle "HI-TECH Software Omniscient Code Generator (Lite mode) build 49521"
   461  0000                     INDF0 equ 0FEFh ;# 
   462                           opt subtitle "HI-TECH Software Omniscient Code Generator (Lite mode) build 49521"
   463  0000                     INTCON3 equ 0FF0h ;# 
   464                           opt subtitle "HI-TECH Software Omniscient Code Generator (Lite mode) build 49521"
   465  0000                     INTCON2 equ 0FF1h ;# 
   466                           opt subtitle "HI-TECH Software Omniscient Code Generator (Lite mode) build 49521"
   467  0000                     INTCON equ 0FF2h ;# 
   468                           opt subtitle "HI-TECH Software Omniscient Code Generator (Lite mode) build 49521"
   469  0000                     PROD equ 0FF3h ;# 
   470                           opt subtitle "HI-TECH Software Omniscient Code Generator (Lite mode) build 49521"
   471  0000                     PRODL equ 0FF3h ;# 
   472                           opt subtitle "HI-TECH Software Omniscient Code Generator (Lite mode) build 49521"
   473  0000                     PRODH equ 0FF4h ;# 
   474                           opt subtitle "HI-TECH Software Omniscient Code Generator (Lite mode) build 49521"
   475  0000                     TABLAT equ 0FF5h ;# 
   476                           opt subtitle "HI-TECH Software Omniscient Code Generator (Lite mode) build 49521"
   477  0000                     TBLPTR equ 0FF6h ;# 
   478                           opt subtitle "HI-TECH Software Omniscient Code Generator (Lite mode) build 49521"
   479  0000                     TBLPTRL equ 0FF6h ;# 
   480                           opt subtitle "HI-TECH Software Omniscient Code Generator (Lite mode) build 49521"
   481  0000                     TBLPTRH equ 0FF7h ;# 
   482                           opt subtitle "HI-TECH Software Omniscient Code Generator (Lite mode) build 49521"
   483  0000                     TBLPTRU equ 0FF8h ;# 
   484                           opt subtitle "HI-TECH Software Omniscient Code Generator (Lite mode) build 49521"
   485  0000                     PCLAT equ 0FF9h ;# 
   486                           opt subtitle "HI-TECH Software Omniscient Code Generator (Lite mode) build 49521"
   487  0000                     PC equ 0FF9h ;# 
   488                           opt subtitle "HI-TECH Software Omniscient Code Generator (Lite mode) build 49521"
   489  0000                     PCL equ 0FF9h ;# 
   490                           opt subtitle "HI-TECH Software Omniscient Code Generator (Lite mode) build 49521"
   491  0000                     PCLATH equ 0FFAh ;# 
   492                           opt subtitle "HI-TECH Software Omniscient Code Generator (Lite mode) build 49521"
   493  0000                     PCLATU equ 0FFBh ;# 
   494                           opt subtitle "HI-TECH Software Omniscient Code Generator (Lite mode) build 49521"
   495  0000                     STKPTR equ 0FFCh ;# 
   496                           opt subtitle "HI-TECH Software Omniscient Code Generator (Lite mode) build 49521"
   497  0000                     TOS equ 0FFDh ;# 
   498                           opt subtitle "HI-TECH Software Omniscient Code Generator (Lite mode) build 49521"
   499  0000                     TOSL equ 0FFDh ;# 
   500                           opt subtitle "HI-TECH Software Omniscient Code Generator (Lite mode) build 49521"
   501  0000                     TOSH equ 0FFEh ;# 
   502                           opt subtitle "HI-TECH Software Omniscient Code Generator (Lite mode) build 49521"
   503  0000                     TOSU equ 0FFFh ;# 
   504                           opt subtitle "HI-TECH Software Omniscient Code Generator (Lite mode) build 49521"
   505                           
   506                           opt pagewidth 120
   507                           
   508                           	opt lm
   509                           
   510                           	processor	18F8622
   511                           porta	equ	0F80h
   512                           portb	equ	0F81h
   513                           portc	equ	0F82h
   514                           portd	equ	0F83h
   515                           porte	equ	0F84h
   516                           lata	equ	0F89h
   517                           latb	equ	0F8Ah
   518                           latc	equ	0F8Bh
   519                           latd	equ	0F8Ch
   520                           late	equ	0F8Dh
   521                           trisa	equ	0F92h
   522                           trisb	equ	0F93h
   523                           trisc	equ	0F94h
   524                           trisd	equ	0F95h
   525                           trise	equ	0F96h
   526                           pie1	equ	0F9Dh
   527                           pir1	equ	0F9Eh
   528                           ipr1	equ	0F9Fh
   529                           pie2	equ	0FA0h
   530                           pir2	equ	0FA1h
   531                           ipr2	equ	0FA2h
   532                           t3con	equ	0FB1h
   533                           tmr3l	equ	0FB2h
   534                           tmr3h	equ	0FB3h
   535                           ccp1con	equ	0FBDh
   536  001D4A                     __pidataCOMRAM:
   537                           opt subtitle "HI-TECH Software Omniscient Code Generator (Lite mode) build 49521"
   538                           
   539                           opt pagewidth 120
   540                           
   541  001D4A  0C                 	db	low(0Ch)
   542  001D4B  08                 	db	low(08h)
   543  001D4C  0F                 	db	low(0Fh)
   544  001D4D  0E                 	db	low(0Eh)
   545  001D4E  0D                 	db	low(0Dh)
   546                           opt subtitle "HI-TECH Software Omniscient Code Generator (Lite mode) build 49521"
   547                           
   548                           opt pagewidth 120
   549  001D4F  14                 	db	low(014h)
   550  001D50  10                 	db	low(010h)
   551                           opt subtitle "HI-TECH Software Omniscient Code Generator (Lite mode) build 49521"
   552                           
   553                           opt pagewidth 120
   554  001D51  1C                 	db	low(01Ch)
   555  001D52  18                 	db	low(018h)
   556                           opt subtitle "HI-TECH Software Omniscient Code Generator (Lite mode) build 49521"
   557                           
   558  001CFC                     __pidataBANK0:
   559                           opt subtitle "HI-TECH Software Omniscient Code Generator (Lite mode) build 49521"
   560                           
   561                           opt pagewidth 120
   562                           
   563  001CFC  00                 	db	low(0)
   564  001CFD  20                 	db	low(020h)
   565  001CFE  08                 	db	low(08h)
   566  001CFF  28                 	db	low(028h)
   567  001D00  02                 	db	low(02h)
   568  001D01  22                 	db	low(022h)
   569  001D02  0A                 	db	low(0Ah)
   570  001D03  2A                 	db	low(02Ah)
   571  001D04  10                 	db	low(010h)
   572  001D05  30                 	db	low(030h)
   573  001D06  18                 	db	low(018h)
   574  001D07  38                 	db	low(038h)
   575  001D08  12                 	db	low(012h)
   576  001D09  32                 	db	low(032h)
   577  001D0A  1A                 	db	low(01Ah)
   578  001D0B  3A                 	db	low(03Ah)
   579                           opt subtitle "HI-TECH Software Omniscient Code Generator (Lite mode) build 49521"
   580                           
   581                           opt pagewidth 120
   582                           
   583  001D0C  03                 	db	low(03h)
   584  001D0D  02                 	db	low(02h)
   585  001D0E  00                 	db	low(0)
   586  001D0F  00                 	db	low(0)
   587  001D10  00                 	db	low(0)
   588  001D11  00                 	db   0
   589                           opt subtitle "HI-TECH Software Omniscient Code Generator (Lite mode) build 49521"
   590                           
   591                           opt pagewidth 120
   592                           
   593  001D12  00                 	db	low(0)
   594  001D13  01                 	db	low(01h)
   595  001D14  04                 	db	low(04h)
   596  001D15  05                 	db	low(05h)
   597                           opt subtitle "HI-TECH Software Omniscient Code Generator (Lite mode) build 49521"
   598                           
   599                           opt pagewidth 120
   600  001D16  01                 	db	low(01h)
   601                           opt subtitle "HI-TECH Software Omniscient Code Generator (Lite mode) build 49521"
   602                           
   603                           opt pagewidth 120
   604  001000                     __psmallconst:
   605                           opt subtitle "HI-TECH Software Omniscient Code Generator (Lite mode) build 49521"
   606                           
   607  001000                     _dpowers:
   608  001000  0001               	dw	(01h)&0ffffh
   609  001002  000A               	dw	(0Ah)&0ffffh
   610  001004  0064               	dw	(064h)&0ffffh
   611  001006  03E8               	dw	(03E8h)&0ffffh
   612  001008  2710               	dw	(02710h)&0ffffh
   613                           opt subtitle "HI-TECH Software Omniscient Code Generator (Lite mode) build 49521"
   614  00100A                     __end_of_dpowers:
   615                           opt subtitle "HI-TECH Software Omniscient Code Generator (Lite mode) build 49521"
   616                           
   617                           opt pagewidth 120
   618                           
   619                           	opt lm
   620  0000                     _ADCON0bits	set	0xFC2
   621                           opt subtitle "HI-TECH Software Omniscient Code Generator (Lite mode) build 49521"
   622  0000                     _ADCON1bits	set	0xFC1
   623                           opt subtitle "HI-TECH Software Omniscient Code Generator (Lite mode) build 49521"
   624  0000                     _CMCONbits	set	0xFB4
   625                           opt subtitle "HI-TECH Software Omniscient Code Generator (Lite mode) build 49521"
   626  0000                     _INTCONbits	set	0xFF2
   627                           opt subtitle "HI-TECH Software Omniscient Code Generator (Lite mode) build 49521"
   628  0000                     _OSCCONbits	set	0xFD3
   629                           opt subtitle "HI-TECH Software Omniscient Code Generator (Lite mode) build 49521"
   630  0000                     _PIE1bits	set	0xF9D
   631                           opt subtitle "HI-TECH Software Omniscient Code Generator (Lite mode) build 49521"
   632  0000                     _PIR1bits	set	0xF9E
   633                           opt subtitle "HI-TECH Software Omniscient Code Generator (Lite mode) build 49521"
   634  0000                     _PORTA	set	0xF80
   635                           opt subtitle "HI-TECH Software Omniscient Code Generator (Lite mode) build 49521"
   636  0000                     _PORTB	set	0xF81
   637                           opt subtitle "HI-TECH Software Omniscient Code Generator (Lite mode) build 49521"
   638  0000                     _PORTBbits	set	0xF81
   639                           opt subtitle "HI-TECH Software Omniscient Code Generator (Lite mode) build 49521"
   640  0000                     _PORTC	set	0xF82
   641                           opt subtitle "HI-TECH Software Omniscient Code Generator (Lite mode) build 49521"
   642  0000                     _PORTD	set	0xF83
   643                           opt subtitle "HI-TECH Software Omniscient Code Generator (Lite mode) build 49521"
   644  0000                     _PORTDbits	set	0xF83
   645                           opt subtitle "HI-TECH Software Omniscient Code Generator (Lite mode) build 49521"
   646  0000                     _PORTE	set	0xF84
   647                           opt subtitle "HI-TECH Software Omniscient Code Generator (Lite mode) build 49521"
   648  0000                     _PORTF	set	0xF85
   649                           opt subtitle "HI-TECH Software Omniscient Code Generator (Lite mode) build 49521"
   650  0000                     _PORTG	set	0xF86
   651                           opt subtitle "HI-TECH Software Omniscient Code Generator (Lite mode) build 49521"
   652  0000                     _PORTH	set	0xF87
   653                           opt subtitle "HI-TECH Software Omniscient Code Generator (Lite mode) build 49521"
   654  0000                     _PORTJ	set	0xF88
   655                           opt subtitle "HI-TECH Software Omniscient Code Generator (Lite mode) build 49521"
   656  0000                     _SSP1BUF	set	0xFC9
   657                           opt subtitle "HI-TECH Software Omniscient Code Generator (Lite mode) build 49521"
   658  0000                     _SSP1CON1	set	0xFC6
   659                           opt subtitle "HI-TECH Software Omniscient Code Generator (Lite mode) build 49521"
   660  0000                     _SSP1CON1bits	set	0xFC6
   661                           opt subtitle "HI-TECH Software Omniscient Code Generator (Lite mode) build 49521"
   662  0000                     _SSP1STAT	set	0xFC7
   663                           opt subtitle "HI-TECH Software Omniscient Code Generator (Lite mode) build 49521"
   664  0000                     _SSP1STATbits	set	0xFC7
   665                           opt subtitle "HI-TECH Software Omniscient Code Generator (Lite mode) build 49521"
   666  0000                     _TRISA	set	0xF92
   667                           opt subtitle "HI-TECH Software Omniscient Code Generator (Lite mode) build 49521"
   668  0000                     _TRISB	set	0xF93
   669                           opt subtitle "HI-TECH Software Omniscient Code Generator (Lite mode) build 49521"
   670  0000                     _TRISC	set	0xF94
   671                           opt subtitle "HI-TECH Software Omniscient Code Generator (Lite mode) build 49521"
   672  0000                     _TRISCbits	set	0xF94
   673                           opt subtitle "HI-TECH Software Omniscient Code Generator (Lite mode) build 49521"
   674  0000                     _TRISD	set	0xF95
   675                           opt subtitle "HI-TECH Software Omniscient Code Generator (Lite mode) build 49521"
   676  0000                     _TRISE	set	0xF96
   677                           opt subtitle "HI-TECH Software Omniscient Code Generator (Lite mode) build 49521"
   678  0000                     _TRISF	set	0xF97
   679                           opt subtitle "HI-TECH Software Omniscient Code Generator (Lite mode) build 49521"
   680  0000                     _TRISFbits	set	0xF97
   681                           opt subtitle "HI-TECH Software Omniscient Code Generator (Lite mode) build 49521"
   682  0000                     _TRISG	set	0xF98
   683                           opt subtitle "HI-TECH Software Omniscient Code Generator (Lite mode) build 49521"
   684  0000                     _TRISH	set	0xF99
   685                           opt subtitle "HI-TECH Software Omniscient Code Generator (Lite mode) build 49521"
   686  0000                     _TRISJ	set	0xF9A
   687                           opt subtitle "HI-TECH Software Omniscient Code Generator (Lite mode) build 49521"
   688  0000                     _PEIE	set	0x7F96
   689                           opt subtitle "HI-TECH Software Omniscient Code Generator (Lite mode) build 49521"
   690  00100A                     __stringdata:
   691                           opt subtitle "HI-TECH Software Omniscient Code Generator (Lite mode) build 49521"
   692  00100A                     STR_1:
   693  00100A  54                 	db	84	;'T'
   694  00100B  3D                 	db	61	;'='
   695  00100C  25                 	db	37
   696  00100D  64                 	db	100	;'d'
   697  00100E  20                 	db	32
   698  00100F  20                 	db	32
   699  001010  00                 	db	0
   700                           opt subtitle "HI-TECH Software Omniscient Code Generator (Lite mode) build 49521"
   701  001011                     __end_of__stringdata:
   702                           opt subtitle "HI-TECH Software Omniscient Code Generator (Lite mode) build 49521"
   703                           
   704  0000                     __CFG_IESO$OFF equ 0x0
   705                           opt subtitle "HI-TECH Software Omniscient Code Generator (Lite mode) build 49521"
   706  0000                     __CFG_OSC$INTIO67 equ 0x0
   707                           opt subtitle "HI-TECH Software Omniscient Code Generator (Lite mode) build 49521"
   708  0000                     __CFG_FCMEN$OFF equ 0x0
   709                           opt subtitle "HI-TECH Software Omniscient Code Generator (Lite mode) build 49521"
   710  0000                     __CFG_BOREN$OFF equ 0x0
   711                           opt subtitle "HI-TECH Software Omniscient Code Generator (Lite mode) build 49521"
   712  0000                     __CFG_BORV$3 equ 0x0
   713                           opt subtitle "HI-TECH Software Omniscient Code Generator (Lite mode) build 49521"
   714  0000                     __CFG_PWRT$OFF equ 0x0
   715                           opt subtitle "HI-TECH Software Omniscient Code Generator (Lite mode) build 49521"
   716  0000                     __CFG_WDTPS$32768 equ 0x0
   717                           opt subtitle "HI-TECH Software Omniscient Code Generator (Lite mode) build 49521"
   718  0000                     __CFG_WDT$OFF equ 0x0
   719                           opt subtitle "HI-TECH Software Omniscient Code Generator (Lite mode) build 49521"
   720  0000                     __CFG_MODE$MC equ 0x0
   721                           opt subtitle "HI-TECH Software Omniscient Code Generator (Lite mode) build 49521"
   722  0000                     __CFG_WAIT$OFF equ 0x0
   723                           opt subtitle "HI-TECH Software Omniscient Code Generator (Lite mode) build 49521"
   724  0000                     __CFG_DATABW$DATA16BIT equ 0x0
   725                           opt subtitle "HI-TECH Software Omniscient Code Generator (Lite mode) build 49521"
   726  0000                     __CFG_ADDRBW$ADDR20BIT equ 0x0
   727                           opt subtitle "HI-TECH Software Omniscient Code Generator (Lite mode) build 49521"
   728  0000                     __CFG_CCP2MX$PORTC equ 0x0
   729                           opt subtitle "HI-TECH Software Omniscient Code Generator (Lite mode) build 49521"
   730  0000                     __CFG_LPT1OSC$OFF equ 0x0
   731                           opt subtitle "HI-TECH Software Omniscient Code Generator (Lite mode) build 49521"
   732  0000                     __CFG_ECCPMX$PORTE equ 0x0
   733                           opt subtitle "HI-TECH Software Omniscient Code Generator (Lite mode) build 49521"
   734  0000                     __CFG_MCLRE$ON equ 0x0
   735                           opt subtitle "HI-TECH Software Omniscient Code Generator (Lite mode) build 49521"
   736  0000                     __CFG_STVREN$ON equ 0x0
   737                           opt subtitle "HI-TECH Software Omniscient Code Generator (Lite mode) build 49521"
   738  0000                     __CFG_XINST$OFF equ 0x0
   739                           opt subtitle "HI-TECH Software Omniscient Code Generator (Lite mode) build 49521"
   740  0000                     __CFG_BBSIZ$BB2K equ 0x0
   741                           opt subtitle "HI-TECH Software Omniscient Code Generator (Lite mode) build 49521"
   742  0000                     __CFG_LVP$OFF equ 0x0
   743                           opt subtitle "HI-TECH Software Omniscient Code Generator (Lite mode) build 49521"
   744  0000                     __CFG_CP0$OFF equ 0x0
   745                           opt subtitle "HI-TECH Software Omniscient Code Generator (Lite mode) build 49521"
   746  0000                     __CFG_CP1$OFF equ 0x0
   747                           opt subtitle "HI-TECH Software Omniscient Code Generator (Lite mode) build 49521"
   748  0000                     __CFG_CP2$OFF equ 0x0
   749                           opt subtitle "HI-TECH Software Omniscient Code Generator (Lite mode) build 49521"
   750  0000                     __CFG_CP3$OFF equ 0x0
   751                           opt subtitle "HI-TECH Software Omniscient Code Generator (Lite mode) build 49521"
   752  0000                     __CFG_CPD$OFF equ 0x0
   753                           opt subtitle "HI-TECH Software Omniscient Code Generator (Lite mode) build 49521"
   754  0000                     __CFG_CPB$OFF equ 0x0
   755                           opt subtitle "HI-TECH Software Omniscient Code Generator (Lite mode) build 49521"
   756  0000                     __CFG_WRT0$OFF equ 0x0
   757                           opt subtitle "HI-TECH Software Omniscient Code Generator (Lite mode) build 49521"
   758  0000                     __CFG_WRT1$OFF equ 0x0
   759                           opt subtitle "HI-TECH Software Omniscient Code Generator (Lite mode) build 49521"
   760  0000                     __CFG_WRT2$OFF equ 0x0
   761                           opt subtitle "HI-TECH Software Omniscient Code Generator (Lite mode) build 49521"
   762  0000                     __CFG_WRT3$OFF equ 0x0
   763                           opt subtitle "HI-TECH Software Omniscient Code Generator (Lite mode) build 49521"
   764  0000                     __CFG_WRTB$OFF equ 0x0
   765                           opt subtitle "HI-TECH Software Omniscient Code Generator (Lite mode) build 49521"
   766  0000                     __CFG_WRTC$OFF equ 0x0
   767                           opt subtitle "HI-TECH Software Omniscient Code Generator (Lite mode) build 49521"
   768  0000                     __CFG_WRTD$OFF equ 0x0
   769                           opt subtitle "HI-TECH Software Omniscient Code Generator (Lite mode) build 49521"
   770  0000                     __CFG_EBTR0$OFF equ 0x0
   771                           opt subtitle "HI-TECH Software Omniscient Code Generator (Lite mode) build 49521"
   772  0000                     __CFG_EBTR1$OFF equ 0x0
   773                           opt subtitle "HI-TECH Software Omniscient Code Generator (Lite mode) build 49521"
   774  0000                     __CFG_EBTR2$OFF equ 0x0
   775                           opt subtitle "HI-TECH Software Omniscient Code Generator (Lite mode) build 49521"
   776  0000                     __CFG_EBTR3$OFF equ 0x0
   777                           opt subtitle "HI-TECH Software Omniscient Code Generator (Lite mode) build 49521"
   778  0000                     __CFG_EBTRB$OFF equ 0x0
   779                           opt subtitle "HI-TECH Software Omniscient Code Generator (Lite mode) build 49521"
   780                           
   781                           opt pagewidth 120
   782                           
   783  001B58                     __pcinit:
   784                           opt subtitle "HI-TECH Software Omniscient Code Generator (Lite mode) build 49521"
   785  001B58                     start_initialization:
   786                           opt subtitle "HI-TECH Software Omniscient Code Generator (Lite mode) build 49521"
   787                           
   788  001B58                     __initialization:
   789                           opt subtitle "HI-TECH Software Omniscient Code Generator (Lite mode) build 49521"
   790                           
   791  000031                     __pdataCOMRAM:
   792                           opt subtitle "HI-TECH Software Omniscient Code Generator (Lite mode) build 49521"
   793                           
   794  000031                     ctrl_lcd_cursor@F7238:
   795  000031                            ds      5
   796                           opt subtitle "HI-TECH Software Omniscient Code Generator (Lite mode) build 49521"
   797                           
   798                           opt pagewidth 120
   799  000036                     move_cursor@F7230:
   800  000036                            ds      2
   801                           opt subtitle "HI-TECH Software Omniscient Code Generator (Lite mode) build 49521"
   802                           
   803                           opt pagewidth 120
   804  000038                     move_mensagem@F7234:
   805  000038                            ds      2
   806                           opt subtitle "HI-TECH Software Omniscient Code Generator (Lite mode) build 49521"
   807                           
   808  0000B3                     __pbssBANK0:
   809                           opt subtitle "HI-TECH Software Omniscient Code Generator (Lite mode) build 49521"
   810  0000B3                     _transmissoes:
   811  0000B3                            ds      2
   812                           opt subtitle "HI-TECH Software Omniscient Code Generator (Lite mode) build 49521"
   813  0000B5                     _mensagem_lcd:
   814  0000B5                            ds      17
   815                           opt subtitle "HI-TECH Software Omniscient Code Generator (Lite mode) build 49521"
   816                           
   817  000098                     __pdataBANK0:
   818                           opt subtitle "HI-TECH Software Omniscient Code Generator (Lite mode) build 49521"
   819                           
   820  000098                     main@F7279:
   821  000098                            ds      16
   822                           opt subtitle "HI-TECH Software Omniscient Code Generator (Lite mode) build 49521"
   823                           
   824                           opt pagewidth 120
   825  0000A8                     lcd_start@F7252:
   826  0000A8                            ds      6
   827                           opt subtitle "HI-TECH Software Omniscient Code Generator (Lite mode) build 49521"
   828                           
   829                           opt pagewidth 120
   830  0000AE                     main@F7281:
   831  0000AE                            ds      4
   832                           opt subtitle "HI-TECH Software Omniscient Code Generator (Lite mode) build 49521"
   833                           
   834                           opt pagewidth 120
   835                           
   836  0000B2                     _update_lcd:
   837  0000B2                            ds      1
   838                           opt subtitle "HI-TECH Software Omniscient Code Generator (Lite mode) build 49521"
   839                           
   840  0000C6                     __pbssBIGRAM:
   841                           opt subtitle "HI-TECH Software Omniscient Code Generator (Lite mode) build 49521"
   842  0000C6                     _ledList:
   843  0000C6                            ds      1792
   844                           opt subtitle "HI-TECH Software Omniscient Code Generator (Lite mode) build 49521"
   845                           
   846                           opt pagewidth 120
   847  001B58  EE00  F0C6         lfsr	0,__pbssBIGRAM
   848  001B5C  EE17 F000          lfsr	1,1792
   849  001B60                     clear_0:
   850  001B60  6AEE               clrf	postinc0,c
   851  001B62  50E5               movf	postdec1,w
   852  001B64  50E1               movf	fsr1l,w
   853  001B66  E1FC               bnz	clear_0
   854  001B68  50E2               movf	fsr1h,w
   855  001B6A  E1FA               bnz	clear_0
   856                           opt subtitle "HI-TECH Software Omniscient Code Generator (Lite mode) build 49521"
   857                           
   858  001B6C  EE00  F0B3         lfsr	0,__pbssBANK0
   859  001B70  0E13               movlw	19
   860  001B72                     clear_1:
   861  001B72  6AEE               clrf	postinc0,c
   862  001B74  06E8               decf	wreg
   863  001B76  E1FD               bnz	clear_1
   864                           opt subtitle "HI-TECH Software Omniscient Code Generator (Lite mode) build 49521"
   865                           
   866                           opt pagewidth 120
   867  001B78  0EFC               	movlw	low (__pidataBANK0)
   868  001B7A  6EF6               	movwf	tblptrl
   869  001B7C  0E1C               	movlw	high(__pidataBANK0)
   870  001B7E  6EF7               	movwf	tblptrh
   871  001B80  0E00               	movlw	low highword(__pidataBANK0)
   872  001B82  6EF8               	movwf	tblptru
   873  001B84  EE00  F098         	lfsr	0,__pdataBANK0
   874  001B88  EE10 F01B          	lfsr	1,27
   875  001B8C                     	copy_data0:
   876  001B8C  0009               	tblrd	*+
   877  001B8E  CFF5 FFEE          	movff	tablat, postinc0
   878  001B92  50E5               	movf	postdec1,w
   879  001B94  50E1               	movf	fsr1l,w
   880  001B96  E1FA               	bnz	copy_data0
   881                           opt subtitle "HI-TECH Software Omniscient Code Generator (Lite mode) build 49521"
   882                           
   883                           opt pagewidth 120
   884  001B98  0E4A               	movlw	low (__pidataCOMRAM)
   885  001B9A  6EF6               	movwf	tblptrl
   886  001B9C  0E1D               	movlw	high(__pidataCOMRAM)
   887  001B9E  6EF7               	movwf	tblptrh
   888  001BA0  0E00               	movlw	low highword(__pidataCOMRAM)
   889  001BA2  6EF8               	movwf	tblptru
   890  001BA4  EE00  F031         	lfsr	0,__pdataCOMRAM
   891  001BA8  EE10 F009          	lfsr	1,9
   892  001BAC                     	copy_data1:
   893  001BAC  0009               	tblrd	*+
   894  001BAE  CFF5 FFEE          	movff	tablat, postinc0
   895  001BB2  50E5               	movf	postdec1,w
   896  001BB4  50E1               	movf	fsr1l,w
   897  001BB6  E1FA               	bnz	copy_data1
   898                           opt subtitle "HI-TECH Software Omniscient Code Generator (Lite mode) build 49521"
   899                           
   900                           opt pagewidth 120
   901                           
   902                           	opt lm
   903  001BB8                     end_of_initialization:
   904  001BB8                     __end_of__initialization:movlb 0
   905  001BBA  EF09  F008         goto _main	;jump to C main() function
   906                           opt subtitle "HI-TECH Software Omniscient Code Generator (Lite mode) build 49521"
   907                           
   908  000060                     __pcstackBANK0:
   909  000060                     ??_pos_lcd:	; 0 bytes @ 0x0
   910                           opt subtitle "HI-TECH Software Omniscient Code Generator (Lite mode) build 49521"
   911  000060                     ?___lwmod:	; 2 bytes @ 0x0
   912                           opt subtitle "HI-TECH Software Omniscient Code Generator (Lite mode) build 49521"
   913  000060                     ___lwmod@dividend:	; 2 bytes @ 0x0
   914                           opt subtitle "HI-TECH Software Omniscient Code Generator (Lite mode) build 49521"
   915  000060                     ctrl_lcd_cursor@comando:	; 5 bytes @ 0x0
   916  000060                     	ds   1
   917                           opt subtitle "HI-TECH Software Omniscient Code Generator (Lite mode) build 49521"
   918  000061                     ?_mostra_lcd_buff:	; 0 bytes @ 0x1
   919                           opt subtitle "HI-TECH Software Omniscient Code Generator (Lite mode) build 49521"
   920  000061                     mostra_lcd_buff@line:	; 1 bytes @ 0x1
   921  000061                     	ds   1
   922                           opt subtitle "HI-TECH Software Omniscient Code Generator (Lite mode) build 49521"
   923  000062                     mostra_lcd_buff@column:	; 1 bytes @ 0x2
   924                           opt subtitle "HI-TECH Software Omniscient Code Generator (Lite mode) build 49521"
   925  000062                     ___lwmod@divisor:	; 2 bytes @ 0x2
   926  000062                     	ds   1
   927                           opt subtitle "HI-TECH Software Omniscient Code Generator (Lite mode) build 49521"
   928  000063                     mostra_lcd_buff@p_char:	; 2 bytes @ 0x3
   929  000063                     	ds   1
   930                           opt subtitle "HI-TECH Software Omniscient Code Generator (Lite mode) build 49521"
   931  000064                     ?_sprintf:	; 2 bytes @ 0x4
   932                           opt subtitle "HI-TECH Software Omniscient Code Generator (Lite mode) build 49521"
   933  000064                     sprintf@sp:	; 2 bytes @ 0x4
   934  000064                     	ds   1
   935  000065                     ??_lcd_start:	; 0 bytes @ 0x5
   936                           opt subtitle "HI-TECH Software Omniscient Code Generator (Lite mode) build 49521"
   937  000065                     mostra_lcd_buff@buffer_size:	; 1 bytes @ 0x5
   938  000065                     	ds   1
   939                           opt subtitle "HI-TECH Software Omniscient Code Generator (Lite mode) build 49521"
   940  000066                     lcd_start@contagem:	; 1 bytes @ 0x6
   941                           opt subtitle "HI-TECH Software Omniscient Code Generator (Lite mode) build 49521"
   942  000066                     sprintf@f:	; 2 bytes @ 0x6
   943  000066                     	ds   1
   944                           opt subtitle "HI-TECH Software Omniscient Code Generator (Lite mode) build 49521"
   945  000067                     lcd_start@lcd_conf:	; 6 bytes @ 0x7
   946  000067                     	ds   3
   947  00006A                     ??_sprintf:	; 0 bytes @ 0xA
   948  00006A                     	ds   2
   949                           opt subtitle "HI-TECH Software Omniscient Code Generator (Lite mode) build 49521"
   950  00006C                     sprintf@ap:	; 2 bytes @ 0xC
   951  00006C                     	ds   2
   952                           opt subtitle "HI-TECH Software Omniscient Code Generator (Lite mode) build 49521"
   953  00006E                     sprintf@flag:	; 1 bytes @ 0xE
   954  00006E                     	ds   1
   955                           opt subtitle "HI-TECH Software Omniscient Code Generator (Lite mode) build 49521"
   956  00006F                     sprintf@prec:	; 1 bytes @ 0xF
   957  00006F                     	ds   1
   958                           opt subtitle "HI-TECH Software Omniscient Code Generator (Lite mode) build 49521"
   959  000070                     sprintf@_val:	; 5 bytes @ 0x10
   960  000070                     	ds   5
   961                           opt subtitle "HI-TECH Software Omniscient Code Generator (Lite mode) build 49521"
   962  000075                     sprintf@c:	; 1 bytes @ 0x15
   963  000075                     	ds   1
   964  000076                     ??_main:	; 0 bytes @ 0x16
   965  000076                     	ds   6
   966                           opt subtitle "HI-TECH Software Omniscient Code Generator (Lite mode) build 49521"
   967  00007C                     main@pixel:	; 16 bytes @ 0x1C
   968  00007C                     	ds   16
   969                           opt subtitle "HI-TECH Software Omniscient Code Generator (Lite mode) build 49521"
   970  00008C                     main@colors_offset:	; 4 bytes @ 0x2C
   971  00008C                     	ds   4
   972                           opt subtitle "HI-TECH Software Omniscient Code Generator (Lite mode) build 49521"
   973  000090                     main@i:	; 2 bytes @ 0x30
   974  000090                     	ds   2
   975                           opt subtitle "HI-TECH Software Omniscient Code Generator (Lite mode) build 49521"
   976  000092                     main@color:	; 2 bytes @ 0x32
   977  000092                     	ds   2
   978                           opt subtitle "HI-TECH Software Omniscient Code Generator (Lite mode) build 49521"
   979  000094                     main@x:	; 2 bytes @ 0x34
   980  000094                     	ds   2
   981                           opt subtitle "HI-TECH Software Omniscient Code Generator (Lite mode) build 49521"
   982  000096                     main@y:	; 2 bytes @ 0x36
   983  000096                     	ds   2
   984                           opt subtitle "HI-TECH Software Omniscient Code Generator (Lite mode) build 49521"
   985                           
   986  000001                     __pcstackCOMRAM:
   987  000001                     ?_limpa_tela:	; 0 bytes @ 0x0
   988  000001                     ?_lcd_start:	; 0 bytes @ 0x0
   989  000001                     ?_receiveData:	; 0 bytes @ 0x0
   990  000001                     ?_main:	; 0 bytes @ 0x0
   991                           opt subtitle "HI-TECH Software Omniscient Code Generator (Lite mode) build 49521"
   992  000001                     ?___wmul:	; 2 bytes @ 0x0
   993                           opt subtitle "HI-TECH Software Omniscient Code Generator (Lite mode) build 49521"
   994  000001                     ___wmul@multiplier:	; 2 bytes @ 0x0
   995  000001                     	ds   2
   996                           opt subtitle "HI-TECH Software Omniscient Code Generator (Lite mode) build 49521"
   997  000003                     ___wmul@multiplicand:	; 2 bytes @ 0x2
   998  000003                     	ds   2
   999  000005                     ??___wmul:	; 0 bytes @ 0x4
  1000                           opt subtitle "HI-TECH Software Omniscient Code Generator (Lite mode) build 49521"
  1001  000005                     ___wmul@product:	; 2 bytes @ 0x4
  1002  000005                     	ds   2
  1003  000007                     ??_receiveData:	; 0 bytes @ 0x6
  1004  000007                     	ds   17
  1005                           opt subtitle "HI-TECH Software Omniscient Code Generator (Lite mode) build 49521"
  1006  000018                     receiveData@board:	; 2 bytes @ 0x17
  1007  000018                     	ds   2
  1008                           opt subtitle "HI-TECH Software Omniscient Code Generator (Lite mode) build 49521"
  1009  00001A                     _receiveData$1794:	; 2 bytes @ 0x19
  1010  00001A                     	ds   2
  1011                           opt subtitle "HI-TECH Software Omniscient Code Generator (Lite mode) build 49521"
  1012  00001C                     receiveData@totalBytes:	; 1 bytes @ 0x1B
  1013  00001C                     	ds   1
  1014                           opt subtitle "HI-TECH Software Omniscient Code Generator (Lite mode) build 49521"
  1015  00001D                     receiveData@x:	; 2 bytes @ 0x1C
  1016  00001D                     	ds   2
  1017                           opt subtitle "HI-TECH Software Omniscient Code Generator (Lite mode) build 49521"
  1018  00001F                     receiveData@y:	; 2 bytes @ 0x1E
  1019  00001F                     	ds   2
  1020                           opt subtitle "HI-TECH Software Omniscient Code Generator (Lite mode) build 49521"
  1021  000021                     receiveData@i:	; 2 bytes @ 0x20
  1022  000021                     	ds   2
  1023                           opt subtitle "HI-TECH Software Omniscient Code Generator (Lite mode) build 49521"
  1024  000023                     receiveData@ledData:	; 2 bytes @ 0x22
  1025  000023                     	ds   2
  1026                           opt subtitle "HI-TECH Software Omniscient Code Generator (Lite mode) build 49521"
  1027  000025                     receiveData@l:	; 2 bytes @ 0x24
  1028  000025                     	ds   2
  1029                           opt subtitle "HI-TECH Software Omniscient Code Generator (Lite mode) build 49521"
  1030  000027                     ?_OpenSPI1:	; 0 bytes @ 0x26
  1031                           opt subtitle "HI-TECH Software Omniscient Code Generator (Lite mode) build 49521"
  1032  000027                     ?_Delay10KTCYx:	; 0 bytes @ 0x26
  1033                           opt subtitle "HI-TECH Software Omniscient Code Generator (Lite mode) build 49521"
  1034  000027                     ?_tempo_us:	; 0 bytes @ 0x26
  1035                           opt subtitle "HI-TECH Software Omniscient Code Generator (Lite mode) build 49521"
  1036  000027                     ?___lwdiv:	; 2 bytes @ 0x26
  1037                           opt subtitle "HI-TECH Software Omniscient Code Generator (Lite mode) build 49521"
  1038  000027                     OpenSPI1@sync_mode:	; 1 bytes @ 0x26
  1039                           opt subtitle "HI-TECH Software Omniscient Code Generator (Lite mode) build 49521"
  1040  000027                     Delay10KTCYx@unit:	; 1 bytes @ 0x26
  1041                           opt subtitle "HI-TECH Software Omniscient Code Generator (Lite mode) build 49521"
  1042  000027                     tempo_us@tempo:	; 2 bytes @ 0x26
  1043                           opt subtitle "HI-TECH Software Omniscient Code Generator (Lite mode) build 49521"
  1044  000027                     ___lwdiv@dividend:	; 2 bytes @ 0x26
  1045  000027                     	ds   1
  1046  000028                     ??_Delay10KTCYx:	; 0 bytes @ 0x27
  1047                           opt subtitle "HI-TECH Software Omniscient Code Generator (Lite mode) build 49521"
  1048  000028                     OpenSPI1@bus_mode:	; 1 bytes @ 0x27
  1049  000028                     	ds   1
  1050  000029                     ??_tempo_us:	; 0 bytes @ 0x28
  1051                           opt subtitle "HI-TECH Software Omniscient Code Generator (Lite mode) build 49521"
  1052  000029                     ?_envia_lcd:	; 0 bytes @ 0x28
  1053                           opt subtitle "HI-TECH Software Omniscient Code Generator (Lite mode) build 49521"
  1054  000029                     envia_lcd@byte:	; 1 bytes @ 0x28
  1055                           opt subtitle "HI-TECH Software Omniscient Code Generator (Lite mode) build 49521"
  1056  000029                     OpenSPI1@smp_phase:	; 1 bytes @ 0x28
  1057                           opt subtitle "HI-TECH Software Omniscient Code Generator (Lite mode) build 49521"
  1058  000029                     ___lwdiv@divisor:	; 2 bytes @ 0x28
  1059  000029                     	ds   1
  1060  00002A                     ??_OpenSPI1:	; 0 bytes @ 0x29
  1061                           opt subtitle "HI-TECH Software Omniscient Code Generator (Lite mode) build 49521"
  1062  00002A                     envia_lcd@cmd_data:	; 1 bytes @ 0x29
  1063  00002A                     	ds   1
  1064  00002B                     ??___lwdiv:	; 0 bytes @ 0x2A
  1065                           opt subtitle "HI-TECH Software Omniscient Code Generator (Lite mode) build 49521"
  1066  00002B                     envia_lcd@delay:	; 2 bytes @ 0x2A
  1067  00002B                     	ds   1
  1068                           opt subtitle "HI-TECH Software Omniscient Code Generator (Lite mode) build 49521"
  1069  00002C                     ___lwdiv@quotient:	; 2 bytes @ 0x2B
  1070  00002C                     	ds   1
  1071  00002D                     ??_envia_lcd:	; 0 bytes @ 0x2C
  1072  00002D                     	ds   1
  1073                           opt subtitle "HI-TECH Software Omniscient Code Generator (Lite mode) build 49521"
  1074  00002E                     ___lwdiv@counter:	; 1 bytes @ 0x2D
  1075  00002E                     	ds   1
  1076  00002F                     ??_limpa_tela:	; 0 bytes @ 0x2E
  1077                           opt subtitle "HI-TECH Software Omniscient Code Generator (Lite mode) build 49521"
  1078  00002F                     ?_ctrl_lcd_cursor:	; 0 bytes @ 0x2E
  1079                           opt subtitle "HI-TECH Software Omniscient Code Generator (Lite mode) build 49521"
  1080  00002F                     ?_pos_lcd:	; 0 bytes @ 0x2E
  1081                           opt subtitle "HI-TECH Software Omniscient Code Generator (Lite mode) build 49521"
  1082  00002F                     ?_envia_dado:	; 0 bytes @ 0x2E
  1083  00002F                     ??___lwmod:	; 0 bytes @ 0x2E
  1084                           opt subtitle "HI-TECH Software Omniscient Code Generator (Lite mode) build 49521"
  1085  00002F                     ctrl_lcd_cursor@controle:	; 1 bytes @ 0x2E
  1086                           opt subtitle "HI-TECH Software Omniscient Code Generator (Lite mode) build 49521"
  1087  00002F                     pos_lcd@line:	; 1 bytes @ 0x2E
  1088                           opt subtitle "HI-TECH Software Omniscient Code Generator (Lite mode) build 49521"
  1089  00002F                     envia_dado@dado:	; 1 bytes @ 0x2E
  1090  00002F                     	ds   1
  1091  000030                     ??_ctrl_lcd_cursor:	; 0 bytes @ 0x2F
  1092  000030                     ??_envia_dado:	; 0 bytes @ 0x2F
  1093                           opt subtitle "HI-TECH Software Omniscient Code Generator (Lite mode) build 49521"
  1094  000030                     pos_lcd@column:	; 1 bytes @ 0x2F
  1095                           opt subtitle "HI-TECH Software Omniscient Code Generator (Lite mode) build 49521"
  1096  000030                     ___lwmod@counter:	; 1 bytes @ 0x2F
  1097  000030                     	ds   1
  1098  000031                     ??_mostra_lcd_buff:	; 0 bytes @ 0x30
  1099                           opt subtitle "HI-TECH Software Omniscient Code Generator (Lite mode) build 49521"
  1100                           
  1101                           opt pagewidth 120
  1102                           
  1103                           	opt lm
  1104                           
  1105                           	processor	18F8622
  1106                           porta	equ	0F80h
  1107                           portb	equ	0F81h
  1108                           portc	equ	0F82h
  1109                           portd	equ	0F83h
  1110                           porte	equ	0F84h
  1111                           lata	equ	0F89h
  1112                           latb	equ	0F8Ah
  1113                           latc	equ	0F8Bh
  1114                           latd	equ	0F8Ch
  1115                           late	equ	0F8Dh
  1116                           trisa	equ	0F92h
  1117                           trisb	equ	0F93h
  1118                           trisc	equ	0F94h
  1119                           trisd	equ	0F95h
  1120                           trise	equ	0F96h
  1121                           pie1	equ	0F9Dh
  1122                           pir1	equ	0F9Eh
  1123                           ipr1	equ	0F9Fh
  1124                           pie2	equ	0FA0h
  1125                           pir2	equ	0FA1h
  1126                           ipr2	equ	0FA2h
  1127                           t3con	equ	0FB1h
  1128                           tmr3l	equ	0FB2h
  1129                           tmr3h	equ	0FB3h
  1130                           ccp1con	equ	0FBDh
  1131                           ccpr1l	equ	0FBEh
  1132                           ccpr1h	equ	0FBFh
  1133                           adcon1	equ	0FC1h
  1134                           adcon0	equ	0FC2h
  1135                           adresl	equ	0FC3h
  1136                           adresh	equ	0FC4h
  1137                           sspcon2	equ	0FC5h
  1138                           sspcon1	equ	0FC6h
  1139                           sspstat	equ	0FC7h
  1140                           sspadd	equ	0FC8h
  1141                           sspbuf	equ	0FC9h
  1142                           t2con	equ	0FCAh
  1143                           pr2	equ	0FCBh
  1144                           tmr2	equ	0FCCh
  1145                           t1con	equ	0FCDh
  1146                           tmr1l	equ	0FCEh
  1147                           tmr1h	equ	0FCFh
  1148                           rcon	equ	0FD0h
  1149                           wdtcon	equ	0FD1h
  1150                           lvdcon	equ	0FD2h
  1151                           osccon	equ	0FD3h
  1152                           t0con	equ	0FD5h
  1153                           tmr0l	equ	0FD6h
  1154                           tmr0h	equ	0FD7h
  1155                           status	equ	0FD8h
  1156                           fsr2	equ	0FD9h
  1157                           fsr2l	equ	0FD9h
  1158                           fsr2h	equ	0FDAh
  1159                           plusw2	equ	0FDBh
  1160                           preinc2	equ	0FDCh
  1161                           postdec2	equ	0FDDh
  1162                           postinc2	equ	0FDEh
  1163                           indf2	equ	0FDFh
  1164                           bsr	equ	0FE0h
  1165                           fsr1	equ	0FE1h
  1166                           fsr1l	equ	0FE1h
  1167                           fsr1h	equ	0FE2h
  1168                           plusw1	equ	0FE3h
  1169                           preinc1	equ	0FE4h
  1170                           postdec1	equ	0FE5h
  1171                           postinc1	equ	0FE6h
  1172                           indf1	equ	0FE7h
  1173                           wreg	equ	0FE8h
  1174                           fsr0	equ	0FE9h
  1175                           fsr0l	equ	0FE9h
  1176                           fsr0h	equ	0FEAh
  1177                           plusw0	equ	0FEBh
  1178                           preinc0	equ	0FECh
  1179                           postdec0	equ	0FEDh
  1180                           postinc0	equ	0FEEh
  1181                           indf0	equ	0FEFh
  1182                           intcon3	equ	0FF0h
  1183                           intcon2	equ	0FF1h
  1184                           intcon	equ	0FF2h
  1185                           prod	equ	0FF3h
  1186                           prodl	equ	0FF3h
  1187                           prodh	equ	0FF4h
  1188                           tablat	equ	0FF5h
  1189                           tblptr	equ	0FF6h
  1190                           tblptrl	equ	0FF6h
  1191                           tblptrh	equ	0FF7h
  1192                           tblptru	equ	0FF8h
  1193                           pcl	equ	0FF9h
  1194                           pclat	equ	0FFAh
  1195                           pclath	equ	0FFAh
  1196                           pclatu	equ	0FFBh
  1197                           stkptr	equ	0FFCh
  1198                           tosl	equ	0FFDh
  1199                           tosh	equ	0FFEh
  1200                           tosu	equ	0FFFh
  1201                           skipnz macro
  1202                           	btfsc	status,2
  1203                           	endm
  1204                           	global	__ramtop
  1205                           	global	__accesstop
  1206                           # 46 "/Applications/microchip/xc8/v1.12/include/pic18f8622.h"
  1207                           SSP2CON2 equ 0F62h ;# 
  1208                           # 202 "/Applications/microchip/xc8/v1.12/include/pic18f8622.h"
  1209                           SSP2CON1 equ 0F63h ;# 
  1210                           # 321 "/Applications/microchip/xc8/v1.12/include/pic18f8622.h"
  1211                           SSP2STAT equ 0F64h ;# 
  1212                           # 727 "/Applications/microchip/xc8/v1.12/include/pic18f8622.h"
  1213                           SSP2ADD equ 0F65h ;# 
  1214                           # 809 "/Applications/microchip/xc8/v1.12/include/pic18f8622.h"
  1215                           SSP2BUF equ 0F66h ;# 
  1216                           # 815 "/Applications/microchip/xc8/v1.12/include/pic18f8622.h"
  1217                           ECCP2DEL equ 0F67h ;# 
  1218                           # 934 "/Applications/microchip/xc8/v1.12/include/pic18f8622.h"
  1219                           ECCP2AS equ 0F68h ;# 
  1220                           # 1065 "/Applications/microchip/xc8/v1.12/include/pic18f8622.h"
  1221                           ECCP3DEL equ 0F69h ;# 
  1222                           # 1184 "/Applications/microchip/xc8/v1.12/include/pic18f8622.h"
  1223                           ECCP3AS equ 0F6Ah ;# 
  1224                           # 1315 "/Applications/microchip/xc8/v1.12/include/pic18f8622.h"
  1225                           RCSTA2 equ 0F6Bh ;# 
  1226                           # 1494 "/Applications/microchip/xc8/v1.12/include/pic18f8622.h"
  1227                           TXSTA2 equ 0F6Ch ;# 
  1228                           # 1655 "/Applications/microchip/xc8/v1.12/include/pic18f8622.h"
  1229                           TXREG2 equ 0F6Dh ;# 
  1230                           # 1661 "/Applications/microchip/xc8/v1.12/include/pic18f8622.h"
  1231                           RCREG2 equ 0F6Eh ;# 
  1232                           # 1667 "/Applications/microchip/xc8/v1.12/include/pic18f8622.h"
  1233                           SPBRG2 equ 0F6Fh ;# 
  1234                           # 1673 "/Applications/microchip/xc8/v1.12/include/pic18f8622.h"
  1235                           CCP5CON equ 0F70h ;# 
  1236                           # 1751 "/Applications/microchip/xc8/v1.12/include/pic18f8622.h"
  1237                           CCPR5 equ 0F71h ;# 
  1238                           # 1757 "/Applications/microchip/xc8/v1.12/include/pic18f8622.h"
  1239                           CCPR5L equ 0F71h ;# 
  1240                           # 1763 "/Applications/microchip/xc8/v1.12/include/pic18f8622.h"
  1241                           CCPR5H equ 0F72h ;# 
  1242                           # 1769 "/Applications/microchip/xc8/v1.12/include/pic18f8622.h"
  1243                           CCP4CON equ 0F73h ;# 
  1244                           # 1847 "/Applications/microchip/xc8/v1.12/include/pic18f8622.h"
  1245                           CCPR4 equ 0F74h ;# 
  1246                           # 1853 "/Applications/microchip/xc8/v1.12/include/pic18f8622.h"
  1247                           CCPR4L equ 0F74h ;# 
  1248                           # 1859 "/Applications/microchip/xc8/v1.12/include/pic18f8622.h"
  1249                           CCPR4H equ 0F75h ;# 
  1250                           # 1865 "/Applications/microchip/xc8/v1.12/include/pic18f8622.h"
  1251                           T4CON equ 0F76h ;# 
  1252                           # 1935 "/Applications/microchip/xc8/v1.12/include/pic18f8622.h"
  1253                           PR4 equ 0F77h ;# 
  1254                           # 1941 "/Applications/microchip/xc8/v1.12/include/pic18f8622.h"
  1255                           TMR4 equ 0F78h ;# 
  1256                           # 1947 "/Applications/microchip/xc8/v1.12/include/pic18f8622.h"
  1257                           ECCP1DEL equ 0F79h ;# 
  1258                           # 2066 "/Applications/microchip/xc8/v1.12/include/pic18f8622.h"
  1259                           BAUDCON2 equ 0F7Ch ;# 
  1260                           # 2184 "/Applications/microchip/xc8/v1.12/include/pic18f8622.h"
  1261                           SPBRGH2 equ 0F7Dh ;# 
  1262                           # 2190 "/Applications/microchip/xc8/v1.12/include/pic18f8622.h"
  1263                           BAUDCON1 equ 0F7Eh ;# 
  1264                           # 2195 "/Applications/microchip/xc8/v1.12/include/pic18f8622.h"
  1265                           BAUDCON equ 0F7Eh ;# 
  1266                           # 2199 "/Applications/microchip/xc8/v1.12/include/pic18f8622.h"
  1267                           BAUDCTL equ 0F7Eh ;# 
  1268                           # 2594 "/Applications/microchip/xc8/v1.12/include/pic18f8622.h"
  1269                           SPBRGH1 equ 0F7Fh ;# 
  1270                           # 2599 "/Applications/microchip/xc8/v1.12/include/pic18f8622.h"
  1271                           SPBRGH equ 0F7Fh ;# 
  1272                           # 2605 "/Applications/microchip/xc8/v1.12/include/pic18f8622.h"
  1273                           PORTA equ 0F80h ;# 
  1274                           # 2752 "/Applications/microchip/xc8/v1.12/include/pic18f8622.h"
  1275                           PORTB equ 0F81h ;# 
  1276                           # 2905 "/Applications/microchip/xc8/v1.12/include/pic18f8622.h"
  1277                           PORTC equ 0F82h ;# 
  1278                           # 3159 "/Applications/microchip/xc8/v1.12/include/pic18f8622.h"
  1279                           PORTD equ 0F83h ;# 
  1280                           # 3377 "/Applications/microchip/xc8/v1.12/include/pic18f8622.h"
  1281                           PORTE equ 0F84h ;# 
  1282                           # 3760 "/Applications/microchip/xc8/v1.12/include/pic18f8622.h"
  1283                           PORTF equ 0F85h ;# 
  1284                           # 3927 "/Applications/microchip/xc8/v1.12/include/pic18f8622.h"
  1285                           PORTG equ 0F86h ;# 
  1286                           # 4105 "/Applications/microchip/xc8/v1.12/include/pic18f8622.h"
  1287                           PORTH equ 0F87h ;# 
  1288                           # 4315 "/Applications/microchip/xc8/v1.12/include/pic18f8622.h"
  1289                           PORTJ equ 0F88h ;# 
  1290                           # 4520 "/Applications/microchip/xc8/v1.12/include/pic18f8622.h"
  1291                           LATA equ 0F89h ;# 
  1292                           # 4652 "/Applications/microchip/xc8/v1.12/include/pic18f8622.h"
  1293                           LATB equ 0F8Ah ;# 
  1294                           # 4784 "/Applications/microchip/xc8/v1.12/include/pic18f8622.h"
  1295                           LATC equ 0F8Bh ;# 
  1296                           # 4916 "/Applications/microchip/xc8/v1.12/include/pic18f8622.h"
  1297                           LATD equ 0F8Ch ;# 
  1298                           # 5048 "/Applications/microchip/xc8/v1.12/include/pic18f8622.h"
  1299                           LATE equ 0F8Dh ;# 
  1300                           # 5180 "/Applications/microchip/xc8/v1.12/include/pic18f8622.h"
  1301                           LATF equ 0F8Eh ;# 
  1302                           # 5312 "/Applications/microchip/xc8/v1.12/include/pic18f8622.h"
  1303                           LATG equ 0F8Fh ;# 
  1304                           # 5405 "/Applications/microchip/xc8/v1.12/include/pic18f8622.h"
  1305                           LATH equ 0F90h ;# 
  1306                           # 5537 "/Applications/microchip/xc8/v1.12/include/pic18f8622.h"
  1307                           LATJ equ 0F91h ;# 
  1308                           # 5669 "/Applications/microchip/xc8/v1.12/include/pic18f8622.h"
  1309                           TRISA equ 0F92h ;# 
  1310                           # 5674 "/Applications/microchip/xc8/v1.12/include/pic18f8622.h"
  1311                           DDRA equ 0F92h ;# 
  1312                           # 5890 "/Applications/microchip/xc8/v1.12/include/pic18f8622.h"
  1313                           TRISB equ 0F93h ;# 
  1314                           # 5895 "/Applications/microchip/xc8/v1.12/include/pic18f8622.h"
  1315                           DDRB equ 0F93h ;# 
  1316                           # 6111 "/Applications/microchip/xc8/v1.12/include/pic18f8622.h"
  1317                           TRISC equ 0F94h ;# 
  1318                           # 6116 "/Applications/microchip/xc8/v1.12/include/pic18f8622.h"
  1319                           DDRC equ 0F94h ;# 
  1320                           # 6332 "/Applications/microchip/xc8/v1.12/include/pic18f8622.h"
  1321                           TRISD equ 0F95h ;# 
  1322                           # 6337 "/Applications/microchip/xc8/v1.12/include/pic18f8622.h"
  1323                           DDRD equ 0F95h ;# 
  1324                           # 6553 "/Applications/microchip/xc8/v1.12/include/pic18f8622.h"
  1325                           TRISE equ 0F96h ;# 
  1326                           # 6558 "/Applications/microchip/xc8/v1.12/include/pic18f8622.h"
  1327                           DDRE equ 0F96h ;# 
  1328                           # 6774 "/Applications/microchip/xc8/v1.12/include/pic18f8622.h"
  1329                           TRISF equ 0F97h ;# 
  1330                           # 6779 "/Applications/microchip/xc8/v1.12/include/pic18f8622.h"
  1331                           DDRF equ 0F97h ;# 
  1332                           # 6995 "/Applications/microchip/xc8/v1.12/include/pic18f8622.h"
  1333                           TRISG equ 0F98h ;# 
  1334                           # 7000 "/Applications/microchip/xc8/v1.12/include/pic18f8622.h"
  1335                           DDRG equ 0F98h ;# 
  1336                           # 7144 "/Applications/microchip/xc8/v1.12/include/pic18f8622.h"
  1337                           TRISH equ 0F99h ;# 
  1338                           # 7149 "/Applications/microchip/xc8/v1.12/include/pic18f8622.h"
  1339                           DDRH equ 0F99h ;# 
  1340                           # 7365 "/Applications/microchip/xc8/v1.12/include/pic18f8622.h"
  1341                           TRISJ equ 0F9Ah ;# 
  1342                           # 7370 "/Applications/microchip/xc8/v1.12/include/pic18f8622.h"
  1343                           DDRJ equ 0F9Ah ;# 
  1344                           # 7586 "/Applications/microchip/xc8/v1.12/include/pic18f8622.h"
  1345                           OSCTUNE equ 0F9Bh ;# 
  1346                           # 7650 "/Applications/microchip/xc8/v1.12/include/pic18f8622.h"
  1347                           MEMCON equ 0F9Ch ;# 
  1348                           # 7710 "/Applications/microchip/xc8/v1.12/include/pic18f8622.h"
  1349                           PIE1 equ 0F9Dh ;# 
  1350                           # 7792 "/Applications/microchip/xc8/v1.12/include/pic18f8622.h"
  1351                           PIR1 equ 0F9Eh ;# 
  1352                           # 7874 "/Applications/microchip/xc8/v1.12/include/pic18f8622.h"
  1353                           IPR1 equ 0F9Fh ;# 
  1354                           # 7956 "/Applications/microchip/xc8/v1.12/include/pic18f8622.h"
  1355                           PIE2 equ 0FA0h ;# 
  1356                           # 8027 "/Applications/microchip/xc8/v1.12/include/pic18f8622.h"
  1357                           PIR2 equ 0FA1h ;# 
  1358                           # 8098 "/Applications/microchip/xc8/v1.12/include/pic18f8622.h"
  1359                           IPR2 equ 0FA2h ;# 
  1360                           # 8169 "/Applications/microchip/xc8/v1.12/include/pic18f8622.h"
  1361                           PIE3 equ 0FA3h ;# 
  1362                           # 8292 "/Applications/microchip/xc8/v1.12/include/pic18f8622.h"
  1363                           PIR3 equ 0FA4h ;# 
  1364                           # 8371 "/Applications/microchip/xc8/v1.12/include/pic18f8622.h"
  1365                           IPR3 equ 0FA5h ;# 
  1366                           # 8450 "/Applications/microchip/xc8/v1.12/include/pic18f8622.h"
  1367                           EECON1 equ 0FA6h ;# 
  1368                           # 8515 "/Applications/microchip/xc8/v1.12/include/pic18f8622.h"
  1369                           EECON2 equ 0FA7h ;# 
  1370                           # 8521 "/Applications/microchip/xc8/v1.12/include/pic18f8622.h"
  1371                           EEDATA equ 0FA8h ;# 
  1372                           # 8527 "/Applications/microchip/xc8/v1.12/include/pic18f8622.h"
  1373                           EEADR equ 0FA9h ;# 
  1374                           # 8533 "/Applications/microchip/xc8/v1.12/include/pic18f8622.h"
  1375                           EEADRH equ 0FAAh ;# 
  1376                           # 8539 "/Applications/microchip/xc8/v1.12/include/pic18f8622.h"
  1377                           RCSTA1 equ 0FABh ;# 
  1378                           # 8544 "/Applications/microchip/xc8/v1.12/include/pic18f8622.h"
  1379                           RCSTA equ 0FABh ;# 
  1380                           # 8862 "/Applications/microchip/xc8/v1.12/include/pic18f8622.h"
  1381                           TXSTA1 equ 0FACh ;# 
  1382                           # 8867 "/Applications/microchip/xc8/v1.12/include/pic18f8622.h"
  1383                           TXSTA equ 0FACh ;# 
  1384                           # 9149 "/Applications/microchip/xc8/v1.12/include/pic18f8622.h"
  1385                           TXREG1 equ 0FADh ;# 
  1386                           # 9154 "/Applications/microchip/xc8/v1.12/include/pic18f8622.h"
  1387                           TXREG equ 0FADh ;# 
  1388                           # 9160 "/Applications/microchip/xc8/v1.12/include/pic18f8622.h"
  1389                           RCREG1 equ 0FAEh ;# 
  1390                           # 9165 "/Applications/microchip/xc8/v1.12/include/pic18f8622.h"
  1391                           RCREG equ 0FAEh ;# 
  1392                           # 9171 "/Applications/microchip/xc8/v1.12/include/pic18f8622.h"
  1393                           SPBRG1 equ 0FAFh ;# 
  1394                           # 9176 "/Applications/microchip/xc8/v1.12/include/pic18f8622.h"
  1395                           SPBRG equ 0FAFh ;# 
  1396                           # 9182 "/Applications/microchip/xc8/v1.12/include/pic18f8622.h"
  1397                           PSPCON equ 0FB0h ;# 
  1398                           # 9220 "/Applications/microchip/xc8/v1.12/include/pic18f8622.h"
  1399                           T3CON equ 0FB1h ;# 
  1400                           # 9342 "/Applications/microchip/xc8/v1.12/include/pic18f8622.h"
  1401                           TMR3 equ 0FB2h ;# 
  1402                           # 9348 "/Applications/microchip/xc8/v1.12/include/pic18f8622.h"
  1403                           TMR3L equ 0FB2h ;# 
  1404                           # 9354 "/Applications/microchip/xc8/v1.12/include/pic18f8622.h"
  1405                           TMR3H equ 0FB3h ;# 
  1406                           # 9360 "/Applications/microchip/xc8/v1.12/include/pic18f8622.h"
  1407                           CMCON equ 0FB4h ;# 
  1408                           # 9455 "/Applications/microchip/xc8/v1.12/include/pic18f8622.h"
  1409                           CVRCON equ 0FB5h ;# 
  1410                           # 9533 "/Applications/microchip/xc8/v1.12/include/pic18f8622.h"
  1411                           ECCP1AS equ 0FB6h ;# 
  1412                           # 9664 "/Applications/microchip/xc8/v1.12/include/pic18f8622.h"
  1413                           CCP3CON equ 0FB7h ;# 
  1414                           # 9669 "/Applications/microchip/xc8/v1.12/include/pic18f8622.h"
  1415                           ECCP3CON equ 0FB7h ;# 
  1416                           # 9855 "/Applications/microchip/xc8/v1.12/include/pic18f8622.h"
  1417                           CCPR3 equ 0FB8h ;# 
  1418                           # 9861 "/Applications/microchip/xc8/v1.12/include/pic18f8622.h"
  1419                           CCPR3L equ 0FB8h ;# 
  1420                           # 9867 "/Applications/microchip/xc8/v1.12/include/pic18f8622.h"
  1421                           CCPR3H equ 0FB9h ;# 
  1422                           # 9873 "/Applications/microchip/xc8/v1.12/include/pic18f8622.h"
  1423                           CCP2CON equ 0FBAh ;# 
  1424                           # 9878 "/Applications/microchip/xc8/v1.12/include/pic18f8622.h"
  1425                           ECCP2CON equ 0FBAh ;# 
  1426                           # 10064 "/Applications/microchip/xc8/v1.12/include/pic18f8622.h"
  1427                           CCPR2 equ 0FBBh ;# 
  1428                           # 10070 "/Applications/microchip/xc8/v1.12/include/pic18f8622.h"
  1429                           CCPR2L equ 0FBBh ;# 
  1430                           # 10076 "/Applications/microchip/xc8/v1.12/include/pic18f8622.h"
  1431                           CCPR2H equ 0FBCh ;# 
  1432                           # 10082 "/Applications/microchip/xc8/v1.12/include/pic18f8622.h"
  1433                           CCP1CON equ 0FBDh ;# 
  1434                           # 10087 "/Applications/microchip/xc8/v1.12/include/pic18f8622.h"
  1435                           ECCP1CON equ 0FBDh ;# 
  1436                           # 10273 "/Applications/microchip/xc8/v1.12/include/pic18f8622.h"
  1437                           CCPR1 equ 0FBEh ;# 
  1438                           # 10279 "/Applications/microchip/xc8/v1.12/include/pic18f8622.h"
  1439                           CCPR1L equ 0FBEh ;# 
  1440                           # 10285 "/Applications/microchip/xc8/v1.12/include/pic18f8622.h"
  1441                           CCPR1H equ 0FBFh ;# 
  1442                           # 10291 "/Applications/microchip/xc8/v1.12/include/pic18f8622.h"
  1443                           ADCON2 equ 0FC0h ;# 
  1444                           # 10361 "/Applications/microchip/xc8/v1.12/include/pic18f8622.h"
  1445                           ADCON1 equ 0FC1h ;# 
  1446                           # 10451 "/Applications/microchip/xc8/v1.12/include/pic18f8622.h"
  1447                           ADCON0 equ 0FC2h ;# 
  1448                           # 10573 "/Applications/microchip/xc8/v1.12/include/pic18f8622.h"
  1449                           ADRES equ 0FC3h ;# 
  1450                           # 10579 "/Applications/microchip/xc8/v1.12/include/pic18f8622.h"
  1451                           ADRESL equ 0FC3h ;# 
  1452                           # 10585 "/Applications/microchip/xc8/v1.12/include/pic18f8622.h"
  1453                           ADRESH equ 0FC4h ;# 
  1454                           # 10591 "/Applications/microchip/xc8/v1.12/include/pic18f8622.h"
  1455                           SSP1CON2 equ 0FC5h ;# 
  1456                           # 10596 "/Applications/microchip/xc8/v1.12/include/pic18f8622.h"
  1457                           SSPCON2 equ 0FC5h ;# 
  1458                           # 11034 "/Applications/microchip/xc8/v1.12/include/pic18f8622.h"
  1459                           SSP1CON1 equ 0FC6h ;# 
  1460                           # 11039 "/Applications/microchip/xc8/v1.12/include/pic18f8622.h"
  1461                           SSPCON1 equ 0FC6h ;# 
  1462                           # 11313 "/Applications/microchip/xc8/v1.12/include/pic18f8622.h"
  1463                           SSP1STAT equ 0FC7h ;# 
  1464                           # 11318 "/Applications/microchip/xc8/v1.12/include/pic18f8622.h"
  1465                           SSPSTAT equ 0FC7h ;# 
  1466                           # 11986 "/Applications/microchip/xc8/v1.12/include/pic18f8622.h"
  1467                           SSP1ADD equ 0FC8h ;# 
  1468                           # 11991 "/Applications/microchip/xc8/v1.12/include/pic18f8622.h"
  1469                           SSPADD equ 0FC8h ;# 
  1470                           # 12291 "/Applications/microchip/xc8/v1.12/include/pic18f8622.h"
  1471                           SSP1BUF equ 0FC9h ;# 
  1472                           # 12296 "/Applications/microchip/xc8/v1.12/include/pic18f8622.h"
  1473                           SSPBUF equ 0FC9h ;# 
  1474                           # 12302 "/Applications/microchip/xc8/v1.12/include/pic18f8622.h"
  1475                           T2CON equ 0FCAh ;# 
  1476                           # 12372 "/Applications/microchip/xc8/v1.12/include/pic18f8622.h"
  1477                           PR2 equ 0FCBh ;# 
  1478                           # 12378 "/Applications/microchip/xc8/v1.12/include/pic18f8622.h"
  1479                           TMR2 equ 0FCCh ;# 
  1480                           # 12384 "/Applications/microchip/xc8/v1.12/include/pic18f8622.h"
  1481                           T1CON equ 0FCDh ;# 
  1482                           # 12497 "/Applications/microchip/xc8/v1.12/include/pic18f8622.h"
  1483                           TMR1 equ 0FCEh ;# 
  1484                           # 12503 "/Applications/microchip/xc8/v1.12/include/pic18f8622.h"
  1485                           TMR1L equ 0FCEh ;# 
  1486                           # 12509 "/Applications/microchip/xc8/v1.12/include/pic18f8622.h"
  1487                           TMR1H equ 0FCFh ;# 
  1488                           # 12515 "/Applications/microchip/xc8/v1.12/include/pic18f8622.h"
  1489                           RCON equ 0FD0h ;# 
  1490                           # 12647 "/Applications/microchip/xc8/v1.12/include/pic18f8622.h"
  1491                           WDTCON equ 0FD1h ;# 
  1492                           # 12674 "/Applications/microchip/xc8/v1.12/include/pic18f8622.h"
  1493                           HLVDCON equ 0FD2h ;# 
  1494                           # 12679 "/Applications/microchip/xc8/v1.12/include/pic18f8622.h"
  1495                           LVDCON equ 0FD2h ;# 
  1496                           # 12945 "/Applications/microchip/xc8/v1.12/include/pic18f8622.h"
  1497                           OSCCON equ 0FD3h ;# 
  1498                           # 13027 "/Applications/microchip/xc8/v1.12/include/pic18f8622.h"
  1499                           T0CON equ 0FD5h ;# 
  1500                           # 13102 "/Applications/microchip/xc8/v1.12/include/pic18f8622.h"
  1501                           TMR0 equ 0FD6h ;# 
  1502                           # 13108 "/Applications/microchip/xc8/v1.12/include/pic18f8622.h"
  1503                           TMR0L equ 0FD6h ;# 
  1504                           # 13114 "/Applications/microchip/xc8/v1.12/include/pic18f8622.h"
  1505                           TMR0H equ 0FD7h ;# 
  1506                           # 13120 "/Applications/microchip/xc8/v1.12/include/pic18f8622.h"
  1507                           STATUS equ 0FD8h ;# 
  1508                           # 13198 "/Applications/microchip/xc8/v1.12/include/pic18f8622.h"
  1509                           FSR2 equ 0FD9h ;# 
  1510                           # 13204 "/Applications/microchip/xc8/v1.12/include/pic18f8622.h"
  1511                           FSR2L equ 0FD9h ;# 
  1512                           # 13210 "/Applications/microchip/xc8/v1.12/include/pic18f8622.h"
  1513                           FSR2H equ 0FDAh ;# 
  1514                           # 13216 "/Applications/microchip/xc8/v1.12/include/pic18f8622.h"
  1515                           PLUSW2 equ 0FDBh ;# 
  1516                           # 13222 "/Applications/microchip/xc8/v1.12/include/pic18f8622.h"
  1517  001012                     __ptext0:
  1518                           opt subtitle "HI-TECH Software Omniscient Code Generator (Lite mode) build 49521"
  1519                           
  1520                           opt pagewidth 120
  1521                           
  1522  0000                     	__size_of_main	equ	__end_of_main-_main
  1523                           opt subtitle "HI-TECH Software Omniscient Code Generator (Lite mode) build 49521"
  1524  001012                     _main:
  1525                           opt subtitle "HI-TECH Software Omniscient Code Generator (Lite mode) build 49521"
  1526                           
  1527                           opt pagewidth 120
  1528  001012                     l1930:
  1529                           opt subtitle "HI-TECH Software Omniscient Code Generator (Lite mode) build 49521"
  1530  001012  88D3               		bsf	((c:4051)),c, 4+0	;volatile
  1531  001014  8AD3               	bsf	((c:4051)),c, 4+1	;volatile
  1532  001016  8CD3               	bsf	((c:4051)),c, 4+2	;volatile
  1533                           opt subtitle "HI-TECH Software Omniscient Code Generator (Lite mode) build 49521"
  1534                           
  1535                           opt pagewidth 120
  1536  001018  90C2               	bcf	((c:4034)),c,0	;volatile
  1537                           opt subtitle "HI-TECH Software Omniscient Code Generator (Lite mode) build 49521"
  1538                           
  1539  00101A  80C1               	bsf	((c:4033)),c,0	;volatile
  1540                           opt subtitle "HI-TECH Software Omniscient Code Generator (Lite mode) build 49521"
  1541                           
  1542  00101C  82C1               	bsf	((c:4033)),c,1	;volatile
  1543                           opt subtitle "HI-TECH Software Omniscient Code Generator (Lite mode) build 49521"
  1544                           
  1545  00101E  84C1               	bsf	((c:4033)),c,2	;volatile
  1546                           opt subtitle "HI-TECH Software Omniscient Code Generator (Lite mode) build 49521"
  1547                           
  1548  001020  86C1               	bsf	((c:4033)),c,3	;volatile
  1549                           opt subtitle "HI-TECH Software Omniscient Code Generator (Lite mode) build 49521"
  1550                           
  1551  001022  80B4               	bsf	((c:4020)),c,0	;volatile
  1552                           opt subtitle "HI-TECH Software Omniscient Code Generator (Lite mode) build 49521"
  1553                           
  1554  001024  82B4               	bsf	((c:4020)),c,1	;volatile
  1555                           opt subtitle "HI-TECH Software Omniscient Code Generator (Lite mode) build 49521"
  1556                           
  1557  001026  84B4               	bsf	((c:4020)),c,2	;volatile
  1558                           opt subtitle "HI-TECH Software Omniscient Code Generator (Lite mode) build 49521"
  1559                           
  1560  001028                     l1932:
  1561                           opt subtitle "HI-TECH Software Omniscient Code Generator (Lite mode) build 49521"
  1562  001028  0E00               	movlw	low(0)
  1563  00102A  6E92               	movwf	((c:3986)),c	;volatile
  1564                           opt subtitle "HI-TECH Software Omniscient Code Generator (Lite mode) build 49521"
  1565                           
  1566  00102C  0E00               	movlw	low(0)
  1567  00102E  6E93               	movwf	((c:3987)),c	;volatile
  1568                           opt subtitle "HI-TECH Software Omniscient Code Generator (Lite mode) build 49521"
  1569                           
  1570  001030  0E18               	movlw	low(018h)
  1571  001032  6E94               	movwf	((c:3988)),c	;volatile
  1572                           opt subtitle "HI-TECH Software Omniscient Code Generator (Lite mode) build 49521"
  1573                           
  1574  001034  0E00               	movlw	low(0)
  1575  001036  6E95               	movwf	((c:3989)),c	;volatile
  1576                           opt subtitle "HI-TECH Software Omniscient Code Generator (Lite mode) build 49521"
  1577                           
  1578  001038  0E00               	movlw	low(0)
  1579  00103A  6E96               	movwf	((c:3990)),c	;volatile
  1580                           opt subtitle "HI-TECH Software Omniscient Code Generator (Lite mode) build 49521"
  1581                           
  1582  00103C  0E00               	movlw	low(0)
  1583  00103E  6E97               	movwf	((c:3991)),c	;volatile
  1584                           opt subtitle "HI-TECH Software Omniscient Code Generator (Lite mode) build 49521"
  1585                           
  1586  001040  0E00               	movlw	low(0)
  1587  001042  6E98               	movwf	((c:3992)),c	;volatile
  1588                           opt subtitle "HI-TECH Software Omniscient Code Generator (Lite mode) build 49521"
  1589                           
  1590  001044  0E00               	movlw	low(0)
  1591  001046  6E99               	movwf	((c:3993)),c	;volatile
  1592                           opt subtitle "HI-TECH Software Omniscient Code Generator (Lite mode) build 49521"
  1593                           
  1594  001048  0E00               	movlw	low(0)
  1595  00104A  6E9A               	movwf	((c:3994)),c	;volatile
  1596                           opt subtitle "HI-TECH Software Omniscient Code Generator (Lite mode) build 49521"
  1597                           
  1598  00104C  0E00               	movlw	low(0)
  1599  00104E  6E80               	movwf	((c:3968)),c	;volatile
  1600                           opt subtitle "HI-TECH Software Omniscient Code Generator (Lite mode) build 49521"
  1601                           
  1602  001050  0E00               	movlw	low(0)
  1603  001052  6E81               	movwf	((c:3969)),c	;volatile
  1604                           opt subtitle "HI-TECH Software Omniscient Code Generator (Lite mode) build 49521"
  1605                           
  1606  001054  0E00               	movlw	low(0)
  1607  001056  6E82               	movwf	((c:3970)),c	;volatile
  1608                           opt subtitle "HI-TECH Software Omniscient Code Generator (Lite mode) build 49521"
  1609                           
  1610  001058  0E00               	movlw	low(0)
  1611  00105A  6E83               	movwf	((c:3971)),c	;volatile
  1612                           opt subtitle "HI-TECH Software Omniscient Code Generator (Lite mode) build 49521"
  1613                           
  1614  00105C  0E00               	movlw	low(0)
  1615  00105E  6E84               	movwf	((c:3972)),c	;volatile
  1616                           opt subtitle "HI-TECH Software Omniscient Code Generator (Lite mode) build 49521"
  1617                           
  1618  001060  0E00               	movlw	low(0)
  1619  001062  6E85               	movwf	((c:3973)),c	;volatile
  1620                           opt subtitle "HI-TECH Software Omniscient Code Generator (Lite mode) build 49521"
  1621                           
  1622  001064  0E00               	movlw	low(0)
  1623  001066  6E86               	movwf	((c:3974)),c	;volatile
  1624                           opt subtitle "HI-TECH Software Omniscient Code Generator (Lite mode) build 49521"
  1625                           
  1626  001068  0E00               	movlw	low(0)
  1627  00106A  6E87               	movwf	((c:3975)),c	;volatile
  1628                           opt subtitle "HI-TECH Software Omniscient Code Generator (Lite mode) build 49521"
  1629                           
  1630  00106C                     l1934:
  1631                           opt subtitle "HI-TECH Software Omniscient Code Generator (Lite mode) build 49521"
  1632  00106C  6888               	setf	((c:3976)),c	;volatile
  1633                           opt subtitle "HI-TECH Software Omniscient Code Generator (Lite mode) build 49521"
  1634                           
  1635  00106E                     l1936:
  1636                           opt subtitle "HI-TECH Software Omniscient Code Generator (Lite mode) build 49521"
  1637  00106E  8EF2               	bsf	((c:4082)),c,7	;volatile
  1638                           opt subtitle "HI-TECH Software Omniscient Code Generator (Lite mode) build 49521"
  1639                           
  1640  001070                     l1938:
  1641                           opt subtitle "HI-TECH Software Omniscient Code Generator (Lite mode) build 49521"
  1642  001070  8CF2               	bsf	c:(32662/8),(32662)&7	;volatile
  1643                           opt subtitle "HI-TECH Software Omniscient Code Generator (Lite mode) build 49521"
  1644                           
  1645  001072                     l1940:
  1646                           opt subtitle "HI-TECH Software Omniscient Code Generator (Lite mode) build 49521"
  1647  001072  ECD4  F00A         	call	_lcd_start	;wreg free
  1648                           opt subtitle "HI-TECH Software Omniscient Code Generator (Lite mode) build 49521"
  1649                           
  1650  001076                     l1942:
  1651                           opt subtitle "HI-TECH Software Omniscient Code Generator (Lite mode) build 49521"
  1652  001076  9AC6               	bcf	(0+(5/8)+(c:4038)),c,(5)&7	;volatile
  1653                           opt subtitle "HI-TECH Software Omniscient Code Generator (Lite mode) build 49521"
  1654                           
  1655  001078                     l1944:
  1656                           opt subtitle "HI-TECH Software Omniscient Code Generator (Lite mode) build 49521"
  1657  001078  0100               	movlb	0	; () banked
  1658  00107A  6F76               	movwf	(??_main+0+0)&0ffh
  1659  00107C  0E04               	movlw	low(04h)
  1660  00107E  6E27               	movwf	((c:?_OpenSPI1)),c
  1661  001080  0100               	movlb	0	; () banked
  1662  001082  5176               	movf	(??_main+0+0)&0ffh,w
  1663  001084  0100               	movlb	0	; () banked
  1664  001086  6F77               	movwf	(??_main+1+0)&0ffh
  1665  001088  0E00               	movlw	low(0)
  1666  00108A  6E28               	movwf	(0+((c:?_OpenSPI1)+01h)),c
  1667  00108C  0100               	movlb	0	; () banked
  1668  00108E  5177               	movf	(??_main+1+0)&0ffh,w
  1669  001090  0100               	movlb	0	; () banked
  1670  001092  6F78               	movwf	(??_main+2+0)&0ffh
  1671  001094  0E00               	movlw	low(0)
  1672  001096  6E29               	movwf	(0+((c:?_OpenSPI1)+02h)),c
  1673  001098  0100               	movlb	0	; () banked
  1674  00109A  5178               	movf	(??_main+2+0)&0ffh,w
  1675  00109C  ECDF  F00D         	call	_OpenSPI1	;wreg free
  1676                           opt subtitle "HI-TECH Software Omniscient Code Generator (Lite mode) build 49521"
  1677                           
  1678  0010A0                     l1946:
  1679                           opt subtitle "HI-TECH Software Omniscient Code Generator (Lite mode) build 49521"
  1680  0010A0  969E               	bcf	((c:3998)),c,3	;volatile
  1681                           opt subtitle "HI-TECH Software Omniscient Code Generator (Lite mode) build 49521"
  1682                           
  1683  0010A2                     l1948:
  1684                           opt subtitle "HI-TECH Software Omniscient Code Generator (Lite mode) build 49521"
  1685  0010A2  869D               	bsf	((c:3997)),c,3	;volatile
  1686  0010A4  D000               	goto	l1950
  1687                           opt subtitle "HI-TECH Software Omniscient Code Generator (Lite mode) build 49521"
  1688                           
  1689                           opt pagewidth 120
  1690  0010A6                     l172:
  1691                           opt subtitle "HI-TECH Software Omniscient Code Generator (Lite mode) build 49521"
  1692                           
  1693  0010A6                     l1950:
  1694                           opt subtitle "HI-TECH Software Omniscient Code Generator (Lite mode) build 49521"
  1695                           
  1696  0010A6  0100               	movlb	0	; () banked
  1697  0010A8  0100               	movlb	0	; () banked
  1698  0010AA  51B2               	movf	((_update_lcd))&0ffh,w
  1699  0010AC  B4D8               	btfsc	status,2
  1700  0010AE  D001               	goto	u1271
  1701  0010B0  D001               	goto	u1270
  1702  0010B2                     u1271:
  1703  0010B2  D044               	goto	l1958
  1704  0010B4                     u1270:
  1705                           opt subtitle "HI-TECH Software Omniscient Code Generator (Lite mode) build 49521"
  1706                           
  1707  0010B4                     l1952:; BSR set to: 0
  1708                           opt subtitle "HI-TECH Software Omniscient Code Generator (Lite mode) build 49521"
  1709                           
  1710                           opt pagewidth 120
  1711  0010B4  0100               	movlb	0	; () banked
  1712  0010B6  0E00               	movlw	high(_mensagem_lcd)
  1713  0010B8  0100               	movlb	0	; () banked
  1714  0010BA  0100               	movlb	0	; () banked
  1715  0010BC  6F65               	movwf	((?_sprintf+1))&0ffh
  1716  0010BE  0100               	movlb	0	; () banked
  1717  0010C0  0EB5               	movlw	low(_mensagem_lcd)
  1718  0010C2  0100               	movlb	0	; () banked
  1719  0010C4  6F64               	movwf	((?_sprintf))&0ffh
  1720  0010C6  0E10               	movlw	high(STR_1)
  1721  0010C8  0100               	movlb	0	; () banked
  1722  0010CA  0100               	movlb	0	; () banked
  1723  0010CC  6F67               	movwf	(1+(?_sprintf+02h))&0ffh
  1724  0010CE  0E0A               	movlw	low(STR_1)
  1725  0010D0  0100               	movlb	0	; () banked
  1726  0010D2  6F66               	movwf	(0+(?_sprintf+02h))&0ffh
  1727  0010D4  C0B3  F068         	movff	(_transmissoes),0+(?_sprintf+04h)
  1728  0010D8  C0B4  F069         	movff	(_transmissoes+1),1+(?_sprintf+04h)
  1729  0010DC  0100               	movlb	0	; () banked
  1730  0010DE  ECA0  F009         	call	_sprintf	;wreg free
  1731                           opt subtitle "HI-TECH Software Omniscient Code Generator (Lite mode) build 49521"
  1732                           
  1733  0010E2                     l1954:
  1734                           opt subtitle "HI-TECH Software Omniscient Code Generator (Lite mode) build 49521"
  1735  0010E2  0100               	movlb	0	; () banked
  1736  0010E4  6F76               	movwf	(??_main+0+0)&0ffh
  1737  0010E6  0E01               	movlw	low(01h)
  1738  0010E8  0100               	movlb	0	; () banked
  1739  0010EA  0100               	movlb	0	; () banked
  1740  0010EC  6F61               	movwf	((?_mostra_lcd_buff))&0ffh
  1741  0010EE  0100               	movlb	0	; () banked
  1742  0010F0  5176               	movf	(??_main+0+0)&0ffh,w
  1743  0010F2  0100               	movlb	0	; () banked
  1744  0010F4  6F77               	movwf	(??_main+1+0)&0ffh
  1745  0010F6  0E01               	movlw	low(01h)
  1746  0010F8  0100               	movlb	0	; () banked
  1747  0010FA  0100               	movlb	0	; () banked
  1748  0010FC  6F62               	movwf	(0+(?_mostra_lcd_buff+01h))&0ffh
  1749  0010FE  0100               	movlb	0	; () banked
  1750  001100  5177               	movf	(??_main+1+0)&0ffh,w
  1751  001102  0100               	movlb	0	; () banked
  1752  001104  0E00               	movlw	high(_mensagem_lcd)
  1753  001106  0100               	movlb	0	; () banked
  1754  001108  0100               	movlb	0	; () banked
  1755  00110A  6F64               	movwf	(1+(?_mostra_lcd_buff+02h))&0ffh
  1756  00110C  0100               	movlb	0	; () banked
  1757  00110E  0EB5               	movlw	low(_mensagem_lcd)
  1758  001110  0100               	movlb	0	; () banked
  1759  001112  6F63               	movwf	(0+(?_mostra_lcd_buff+02h))&0ffh
  1760  001114  0100               	movlb	0	; () banked
  1761  001116  6F78               	movwf	(??_main+2+0)&0ffh
  1762  001118  0E10               	movlw	low(010h)
  1763  00111A  0100               	movlb	0	; () banked
  1764  00111C  0100               	movlb	0	; () banked
  1765  00111E  6F65               	movwf	(0+(?_mostra_lcd_buff+04h))&0ffh
  1766  001120  0100               	movlb	0	; () banked
  1767  001122  5178               	movf	(??_main+2+0)&0ffh,w
  1768  001124  0100               	movlb	0	; () banked
  1769  001126  EC31  F00E         	call	_mostra_lcd_buff	;wreg free
  1770                           opt subtitle "HI-TECH Software Omniscient Code Generator (Lite mode) build 49521"
  1771                           
  1772  00112A                     l1956:
  1773                           opt subtitle "HI-TECH Software Omniscient Code Generator (Lite mode) build 49521"
  1774  00112A  0100               	movlb	0	; () banked
  1775  00112C  6F76               	movwf	(??_main+0+0)&0ffh
  1776  00112E  0E00               	movlw	low(0)
  1777  001130  0100               	movlb	0	; () banked
  1778  001132  0100               	movlb	0	; () banked
  1779  001134  6FB2               	movwf	((_update_lcd))&0ffh
  1780  001136  0100               	movlb	0	; () banked
  1781  001138  5176               	movf	(??_main+0+0)&0ffh,w
  1782  00113A  D000               	goto	l1958
  1783                           opt subtitle "HI-TECH Software Omniscient Code Generator (Lite mode) build 49521"
  1784                           
  1785  00113C                     l173:; BSR set to: 0
  1786                           opt subtitle "HI-TECH Software Omniscient Code Generator (Lite mode) build 49521"
  1787                           
  1788                           opt pagewidth 120
  1789  00113C                     l1958:; BSR set to: 0
  1790                           opt subtitle "HI-TECH Software Omniscient Code Generator (Lite mode) build 49521"
  1791                           
  1792                           opt pagewidth 120
  1793                           
  1794                           	opt lm
  1795                           
  1796                           	processor	18F8622
  1797                           porta	equ	0F80h
  1798  00113C  EE20  F098         	lfsr	2,(main@F7279)
  1799  001140  EE10  F07C         	lfsr	1,(main@pixel)
  1800  001144  0E10               	movlw	16
  1801  001146                     u1281:
  1802  001146  CFDE FFE6          	movff	postinc2,postinc1
  1803  00114A  2EE8               	decfsz	wreg
  1804  00114C  D7FC               	goto	u1281
  1805                           opt subtitle "HI-TECH Software Omniscient Code Generator (Lite mode) build 49521"
  1806                           
  1807  00114E                     l1960:; BSR set to: 0
  1808                           opt subtitle "HI-TECH Software Omniscient Code Generator (Lite mode) build 49521"
  1809                           
  1810  00114E  C0AE  F08C         	movff	(main@F7281),(main@colors_offset)
  1811  001152  C0AF  F08D         	movff	(main@F7281+1),(main@colors_offset+1)
  1812  001156  C0B0  F08E         	movff	(main@F7281+2),(main@colors_offset+2)
  1813  00115A  C0B1  F08F         	movff	(main@F7281+3),(main@colors_offset+3)
  1814                           opt subtitle "HI-TECH Software Omniscient Code Generator (Lite mode) build 49521"
  1815                           
  1816  00115E                     l1962:; BSR set to: 0
  1817                           opt subtitle "HI-TECH Software Omniscient Code Generator (Lite mode) build 49521"
  1818                           
  1819  00115E  0E00               	movlw	high(0)
  1820  001160  0100               	movlb	0	; () banked
  1821  001162  0100               	movlb	0	; () banked
  1822  001164  6F93               	movwf	((main@color+1))&0ffh
  1823  001166  0E00               	movlw	low(0)
  1824  001168  0100               	movlb	0	; () banked
  1825  00116A  6F92               	movwf	((main@color))&0ffh
  1826                           opt subtitle "HI-TECH Software Omniscient Code Generator (Lite mode) build 49521"
  1827  00116C                     l1964:; BSR set to: 0
  1828                           opt subtitle "HI-TECH Software Omniscient Code Generator (Lite mode) build 49521"
  1829  00116C  0E04               	movlw	04h
  1830  00116E  0100               	movlb	0	; () banked
  1831  001170  0100               	movlb	0	; () banked
  1832  001172  5D92               	subwf	((main@color))&0ffh,w
  1833  001174  0E00               	movlw	0
  1834  001176  0100               	movlb	0	; () banked
  1835  001178  5993               	subwfb	((main@color+1))&0ffh,w
  1836  00117A  A0D8               	btfss	status,0
  1837  00117C  D001               	goto	u1291
  1838  00117E  D001               	goto	u1290
  1839  001180                     u1291:
  1840  001180  D002               	goto	l1968
  1841  001182                     u1290:
  1842  001182  D791               	goto	l1950
  1843                           opt subtitle "HI-TECH Software Omniscient Code Generator (Lite mode) build 49521"
  1844  001184                     l1966:; BSR set to: 0
  1845                           opt subtitle "HI-TECH Software Omniscient Code Generator (Lite mode) build 49521"
  1846  001184  D790               	goto	l1950
  1847                           opt subtitle "HI-TECH Software Omniscient Code Generator (Lite mode) build 49521"
  1848                           
  1849  001186                     l178:; BSR set to: 0
  1850                           opt subtitle "HI-TECH Software Omniscient Code Generator (Lite mode) build 49521"
  1851                           
  1852  001186                     l1968:; BSR set to: 0
  1853                           opt subtitle "HI-TECH Software Omniscient Code Generator (Lite mode) build 49521"
  1854                           
  1855  001186  0E00               	movlw	high(0)
  1856  001188  0100               	movlb	0	; () banked
  1857  00118A  0100               	movlb	0	; () banked
  1858  00118C  6F95               	movwf	((main@x+1))&0ffh
  1859  00118E  0E00               	movlw	low(0)
  1860  001190  0100               	movlb	0	; () banked
  1861  001192  6F94               	movwf	((main@x))&0ffh
  1862                           opt subtitle "HI-TECH Software Omniscient Code Generator (Lite mode) build 49521"
  1863  001194                     l1970:; BSR set to: 0
  1864                           opt subtitle "HI-TECH Software Omniscient Code Generator (Lite mode) build 49521"
  1865  001194  0E04               	movlw	04h
  1866  001196  0100               	movlb	0	; () banked
  1867  001198  0100               	movlb	0	; () banked
  1868  00119A  5D94               	subwf	((main@x))&0ffh,w
  1869  00119C  0E00               	movlw	0
  1870  00119E  0100               	movlb	0	; () banked
  1871  0011A0  5995               	subwfb	((main@x+1))&0ffh,w
  1872  0011A2  A0D8               	btfss	status,0
  1873  0011A4  D001               	goto	u1301
  1874  0011A6  D001               	goto	u1300
  1875  0011A8                     u1301:
  1876  0011A8  D002               	goto	l1974
  1877  0011AA                     u1300:
  1878  0011AA  D0B6               	goto	l1996
  1879                           opt subtitle "HI-TECH Software Omniscient Code Generator (Lite mode) build 49521"
  1880  0011AC                     l1972:; BSR set to: 0
  1881                           opt subtitle "HI-TECH Software Omniscient Code Generator (Lite mode) build 49521"
  1882  0011AC  D0B5               	goto	l1996
  1883                           opt subtitle "HI-TECH Software Omniscient Code Generator (Lite mode) build 49521"
  1884                           
  1885  0011AE                     l180:; BSR set to: 0
  1886                           opt subtitle "HI-TECH Software Omniscient Code Generator (Lite mode) build 49521"
  1887                           
  1888  0011AE                     l1974:; BSR set to: 0
  1889                           opt subtitle "HI-TECH Software Omniscient Code Generator (Lite mode) build 49521"
  1890                           
  1891  0011AE  0E00               	movlw	high(0)
  1892  0011B0  0100               	movlb	0	; () banked
  1893  0011B2  0100               	movlb	0	; () banked
  1894  0011B4  6F97               	movwf	((main@y+1))&0ffh
  1895  0011B6  0E00               	movlw	low(0)
  1896  0011B8  0100               	movlb	0	; () banked
  1897  0011BA  6F96               	movwf	((main@y))&0ffh
  1898                           opt subtitle "HI-TECH Software Omniscient Code Generator (Lite mode) build 49521"
  1899  0011BC                     l1976:; BSR set to: 0
  1900                           opt subtitle "HI-TECH Software Omniscient Code Generator (Lite mode) build 49521"
  1901  0011BC  0E04               	movlw	04h
  1902  0011BE  0100               	movlb	0	; () banked
  1903  0011C0  0100               	movlb	0	; () banked
  1904  0011C2  5D96               	subwf	((main@y))&0ffh,w
  1905  0011C4  0E00               	movlw	0
  1906  0011C6  0100               	movlb	0	; () banked
  1907  0011C8  5997               	subwfb	((main@y+1))&0ffh,w
  1908  0011CA  A0D8               	btfss	status,0
  1909  0011CC  D001               	goto	u1311
  1910  0011CE  D001               	goto	u1310
  1911  0011D0                     u1311:
  1912  0011D0  D002               	goto	l1980
  1913  0011D2                     u1310:
  1914  0011D2  D092               	goto	l1992
  1915                           opt subtitle "HI-TECH Software Omniscient Code Generator (Lite mode) build 49521"
  1916  0011D4                     l1978:; BSR set to: 0
  1917                           opt subtitle "HI-TECH Software Omniscient Code Generator (Lite mode) build 49521"
  1918  0011D4  D091               	goto	l1992
  1919                           opt subtitle "HI-TECH Software Omniscient Code Generator (Lite mode) build 49521"
  1920                           
  1921  0011D6                     l182:; BSR set to: 0
  1922                           opt subtitle "HI-TECH Software Omniscient Code Generator (Lite mode) build 49521"
  1923                           
  1924                           opt pagewidth 120
  1925  0011D6                     l1980:; BSR set to: 0
  1926                           opt subtitle "HI-TECH Software Omniscient Code Generator (Lite mode) build 49521"
  1927                           
  1928                           opt pagewidth 120
  1929  0011D6  0100               	movlb	0	; () banked
  1930  0011D8  0E8C               	movlw	low(main@colors_offset)
  1931  0011DA  0100               	movlb	0	; () banked
  1932  0011DC  0100               	movlb	0	; () banked
  1933  0011DE  2592               	addwf	((main@color))&0ffh,w
  1934  0011E0  6ED9               	movwf	c:fsr2l
  1935  0011E2  0100               	movlb	0	; () banked
  1936  0011E4  0E00               	movlw	high(main@colors_offset)
  1937  0011E6  0100               	movlb	0	; () banked
  1938  0011E8  0100               	movlb	0	; () banked
  1939  0011EA  2193               	addwfc	((main@color+1))&0ffh,w
  1940  0011EC  6EDA               	movwf	1+c:fsr2l
  1941  0011EE  50DF               	movf	indf2,w
  1942  0011F0  0100               	movlb	0	; () banked
  1943  0011F2  6F76               	movwf	(??_main+0+0)&0ffh
  1944  0011F4  0100               	movlb	0	; () banked
  1945  0011F6  C096  F077         	movff	(main@y),??_main+1+0
  1946  0011FA  0100               	movlb	0	; () banked
  1947  0011FC  C097  F078         	movff	(main@y+1),??_main+1+0+1
  1948  001200  0100               	movlb	0	; () banked
  1949  001202  90D8               	bcf	status,0
  1950  001204  3777               	rlcf	(??_main+1+0)&0ffh
  1951  001206  3778               	rlcf	(??_main+1+1)&0ffh
  1952  001208  0100               	movlb	0	; () banked
  1953  00120A  90D8               	bcf	status,0
  1954  00120C  3777               	rlcf	(??_main+1+0)&0ffh
  1955  00120E  3778               	rlcf	(??_main+1+1)&0ffh
  1956  001210  0100               	movlb	0	; () banked
  1957  001212  0E7C               	movlw	low(main@pixel)
  1958  001214  0100               	movlb	0	; () banked
  1959  001216  2577               	addwf	(??_main+1+0)&0ffh,w
  1960  001218  0100               	movlb	0	; () banked
  1961  00121A  6F79               	movwf	(??_main+3+0)&0ffh
  1962  00121C  0100               	movlb	0	; () banked
  1963  00121E  0E00               	movlw	high(main@pixel)
  1964  001220  0100               	movlb	0	; () banked
  1965  001222  2178               	addwfc	(??_main+1+1)&0ffh,w
  1966  001224  0100               	movlb	0	; () banked
  1967  001226  6F7A               	movwf	1+(??_main+3+0)&0ffh
  1968  001228  0100               	movlb	0	; () banked
  1969  00122A  0100               	movlb	0	; () banked
  1970  00122C  5194               	movf	((main@x))&0ffh,w
  1971  00122E  0100               	movlb	0	; () banked
  1972  001230  2579               	addwf	(??_main+3+0)&0ffh,w
  1973  001232  6ED9               	movwf	c:fsr2l
  1974  001234  0100               	movlb	0	; () banked
  1975  001236  0100               	movlb	0	; () banked
  1976  001238  5195               	movf	((main@x+1))&0ffh,w
  1977  00123A  0100               	movlb	0	; () banked
  1978  00123C  217A               	addwfc	(??_main+3+1)&0ffh,w
  1979  00123E  6EDA               	movwf	1+c:fsr2l
  1980  001240  50DF               	movf	indf2,w
  1981  001242  0100               	movlb	0	; () banked
  1982  001244  6F7B               	movwf	(??_main+5+0)&0ffh
  1983  001246  0100               	movlb	0	; () banked
  1984  001248  517B               	movf	((??_main+5+0))&0ffh,w
  1985  00124A  0100               	movlb	0	; () banked
  1986  00124C  2576               	addwf	((??_main+0+0))&0ffh,w
  1987  00124E  0100               	movlb	0	; () banked
  1988                           opt subtitle "HI-TECH Software Omniscient Code Generator (Lite mode) build 49521"
  1989  001250  0100               	movlb	0	; () banked
  1990  001252  6F90               	movwf	((main@i))&0ffh
  1991  001254  0100               	movlb	0	; () banked
  1992  001256  6B91               	clrf	1+((main@i))&0ffh
  1993  001258  0100               	movlb	0	; () banked
  1994  00125A  3791               	rlcf	1+((main@i))&0ffh
  1995                           opt subtitle "HI-TECH Software Omniscient Code Generator (Lite mode) build 49521"
  1996                           
  1997                           opt pagewidth 120
  1998  00125C                     l1982:; BSR set to: 0
  1999                           opt subtitle "HI-TECH Software Omniscient Code Generator (Lite mode) build 49521"
  2000                           
  2001  00125C  C090  F076         	movff	(main@i),??_main+0+0
  2002  001260  0E07               	movlw	07h
  2003  001262  0100               	movlb	0	; () banked
  2004  001264  1776               	andwf	(??_main+0+0)&0ffh
  2005  001266  0E01               	movlw	(01h)&0ffh
  2006  001268  0100               	movlb	0	; () banked
  2007  00126A  6F77               	movwf	(??_main+1+0)&0ffh
  2008  00126C  0100               	movlb	0	; () banked
  2009  00126E  2B76               	incf	(??_main+0+0)&0ffh
  2010  001270  D003               	goto	u1324
  2011  001272                     u1325:
  2012  001272  0100               	movlb	0	; () banked
  2013  001274  90D8               	bcf	status,0
  2014  001276  3777               	rlcf	((??_main+1+0))&0ffh
  2015  001278                     u1324:
  2016  001278  0100               	movlb	0	; () banked
  2017  00127A  2F76               	decfsz	(??_main+0+0)&0ffh
  2018  00127C  D7FA               	goto	u1325
  2019  00127E  0100               	movlb	0	; () banked
  2020  001280  5177               	movf	((??_main+1+0))&0ffh,w
  2021  001282  0AFF               	xorlw	0ffh
  2022  001284  6E87               	movwf	((c:3975)),c	;volatile
  2023                           opt subtitle "HI-TECH Software Omniscient Code Generator (Lite mode) build 49521"
  2024                           
  2025  001286                     l1984:; BSR set to: 0
  2026                           opt subtitle "HI-TECH Software Omniscient Code Generator (Lite mode) build 49521"
  2027                           
  2028  001286  0100               	movlb	0	; () banked
  2029  001288  C090  F076         	movff	(main@i),??_main+0+0
  2030  00128C  0100               	movlb	0	; () banked
  2031  00128E  C091  F077         	movff	(main@i+1),??_main+0+0+1
  2032  001292  0100               	movlb	0	; () banked
  2033  001294  90D8               	bcf	status,0
  2034  001296  3377               	rrcf	(??_main+0+1)&0ffh
  2035  001298  3376               	rrcf	(??_main+0+0)&0ffh
  2036  00129A  0100               	movlb	0	; () banked
  2037  00129C  90D8               	bcf	status,0
  2038  00129E  3377               	rrcf	(??_main+0+1)&0ffh
  2039  0012A0  3376               	rrcf	(??_main+0+0)&0ffh
  2040  0012A2  0100               	movlb	0	; () banked
  2041  0012A4  90D8               	bcf	status,0
  2042  0012A6  3377               	rrcf	(??_main+0+1)&0ffh
  2043  0012A8  3376               	rrcf	(??_main+0+0)&0ffh
  2044  0012AA  0E01               	movlw	(01h)&0ffh
  2045  0012AC  0100               	movlb	0	; () banked
  2046  0012AE  6F78               	movwf	(??_main+2+0)&0ffh
  2047  0012B0  0100               	movlb	0	; () banked
  2048  0012B2  2B76               	incf	(??_main+0+0)&0ffh
  2049  0012B4  D003               	goto	u1334
  2050  0012B6                     u1335:
  2051  0012B6  0100               	movlb	0	; () banked
  2052  0012B8  90D8               	bcf	status,0
  2053  0012BA  3778               	rlcf	((??_main+2+0))&0ffh
  2054  0012BC                     u1334:
  2055  0012BC  0100               	movlb	0	; () banked
  2056  0012BE  2F76               	decfsz	(??_main+0+0)&0ffh
  2057  0012C0  D7FA               	goto	u1335
  2058  0012C2  0100               	movlb	0	; () banked
  2059  0012C4  5178               	movf	((??_main+2+0))&0ffh,w
  2060  0012C6  6E88               	movwf	((c:3976)),c	;volatile
  2061                           opt subtitle "HI-TECH Software Omniscient Code Generator (Lite mode) build 49521"
  2062                           
  2063  0012C8                     l1986:; BSR set to: 0
  2064                           opt subtitle "HI-TECH Software Omniscient Code Generator (Lite mode) build 49521"
  2065                           
  2066  0012C8  0100               	movlb	0	; () banked
  2067  0012CA  6F76               	movwf	(??_main+0+0)&0ffh
  2068  0012CC  0E14               	movlw	low(014h)
  2069  0012CE  6E27               	movwf	((c:?_Delay10KTCYx)),c
  2070  0012D0  0100               	movlb	0	; () banked
  2071  0012D2  5176               	movf	(??_main+0+0)&0ffh,w
  2072  0012D4  EC99  F00E         	call	_Delay10KTCYx	;wreg free
  2073                           opt subtitle "HI-TECH Software Omniscient Code Generator (Lite mode) build 49521"
  2074                           
  2075  0012D8                     l1988:
  2076  0012D8  0100               	movlb	0	; () banked
  2077  0012DA  0100               	movlb	0	; () banked
  2078  0012DC  4B96               	infsnz	((main@y))&0ffh
  2079  0012DE  2B97               	incf	((main@y+1))&0ffh
  2080                           opt subtitle "HI-TECH Software Omniscient Code Generator (Lite mode) build 49521"
  2081  0012E0                     l1990:; BSR set to: 0
  2082                           opt subtitle "HI-TECH Software Omniscient Code Generator (Lite mode) build 49521"
  2083  0012E0  0E04               	movlw	04h
  2084  0012E2  0100               	movlb	0	; () banked
  2085  0012E4  0100               	movlb	0	; () banked
  2086  0012E6  5D96               	subwf	((main@y))&0ffh,w
  2087  0012E8  0E00               	movlw	0
  2088  0012EA  0100               	movlb	0	; () banked
  2089  0012EC  5997               	subwfb	((main@y+1))&0ffh,w
  2090  0012EE  A0D8               	btfss	status,0
  2091  0012F0  D001               	goto	u1341
  2092  0012F2  D001               	goto	u1340
  2093  0012F4                     u1341:
  2094  0012F4  D770               	goto	l1980
  2095  0012F6                     u1340:
  2096  0012F6  D000               	goto	l1992
  2097                           opt subtitle "HI-TECH Software Omniscient Code Generator (Lite mode) build 49521"
  2098  0012F8                     l183:; BSR set to: 0
  2099                           opt subtitle "HI-TECH Software Omniscient Code Generator (Lite mode) build 49521"
  2100                           
  2101                           opt pagewidth 120
  2102  0012F8                     l1992:; BSR set to: 0
  2103                           opt subtitle "HI-TECH Software Omniscient Code Generator (Lite mode) build 49521"
  2104  0012F8  0100               	movlb	0	; () banked
  2105  0012FA  0100               	movlb	0	; () banked
  2106  0012FC  4B94               	infsnz	((main@x))&0ffh
  2107  0012FE  2B95               	incf	((main@x+1))&0ffh
  2108                           opt subtitle "HI-TECH Software Omniscient Code Generator (Lite mode) build 49521"
  2109  001300                     l1994:; BSR set to: 0
  2110                           opt subtitle "HI-TECH Software Omniscient Code Generator (Lite mode) build 49521"
  2111  001300  0E04               	movlw	04h
  2112  001302  0100               	movlb	0	; () banked
  2113  001304  0100               	movlb	0	; () banked
  2114  001306  5D94               	subwf	((main@x))&0ffh,w
  2115  001308  0E00               	movlw	0
  2116  00130A  0100               	movlb	0	; () banked
  2117  00130C  5995               	subwfb	((main@x+1))&0ffh,w
  2118  00130E  A0D8               	btfss	status,0
  2119  001310  D001               	goto	u1351
  2120  001312  D001               	goto	u1350
  2121  001314                     u1351:
  2122  001314  D74C               	goto	l1974
  2123  001316                     u1350:
  2124  001316  D000               	goto	l1996
  2125                           opt subtitle "HI-TECH Software Omniscient Code Generator (Lite mode) build 49521"
  2126  001318                     l181:; BSR set to: 0
  2127                           opt subtitle "HI-TECH Software Omniscient Code Generator (Lite mode) build 49521"
  2128                           
  2129                           opt pagewidth 120
  2130  001318                     l1996:; BSR set to: 0
  2131                           opt subtitle "HI-TECH Software Omniscient Code Generator (Lite mode) build 49521"
  2132  001318  0100               	movlb	0	; () banked
  2133  00131A  0100               	movlb	0	; () banked
  2134  00131C  4B92               	infsnz	((main@color))&0ffh
  2135  00131E  2B93               	incf	((main@color+1))&0ffh
  2136                           opt subtitle "HI-TECH Software Omniscient Code Generator (Lite mode) build 49521"
  2137  001320                     l1998:; BSR set to: 0
  2138                           opt subtitle "HI-TECH Software Omniscient Code Generator (Lite mode) build 49521"
  2139  001320  0E04               	movlw	04h
  2140  001322  0100               	movlb	0	; () banked
  2141  001324  0100               	movlb	0	; () banked
  2142  001326  5D92               	subwf	((main@color))&0ffh,w
  2143  001328  0E00               	movlw	0
  2144  00132A  0100               	movlb	0	; () banked
  2145  00132C  5993               	subwfb	((main@color+1))&0ffh,w
  2146  00132E  A0D8               	btfss	status,0
  2147  001330  D001               	goto	u1361
  2148  001332  D001               	goto	u1360
  2149  001334                     u1361:
  2150  001334  D728               	goto	l1968
  2151  001336                     u1360:
  2152  001336  D6B7               	goto	l1950
  2153                           opt subtitle "HI-TECH Software Omniscient Code Generator (Lite mode) build 49521"
  2154  001338                     l179:; BSR set to: 0
  2155                           opt subtitle "HI-TECH Software Omniscient Code Generator (Lite mode) build 49521"
  2156  001338  D6B6               	goto	l1950
  2157                           opt subtitle "HI-TECH Software Omniscient Code Generator (Lite mode) build 49521"
  2158                           
  2159  00133A                     l184:; BSR set to: 0
  2160                           opt subtitle "HI-TECH Software Omniscient Code Generator (Lite mode) build 49521"
  2161                           
  2162  00133A  D6B5               	goto	l1950
  2163                           opt subtitle "HI-TECH Software Omniscient Code Generator (Lite mode) build 49521"
  2164  00133C                     l185:; BSR set to: 0
  2165                           opt subtitle "HI-TECH Software Omniscient Code Generator (Lite mode) build 49521"
  2166                           
  2167                           opt pagewidth 120
  2168  00133C                     l186:; BSR set to: 0
  2169                           opt subtitle "HI-TECH Software Omniscient Code Generator (Lite mode) build 49521"
  2170                           
  2171  00133C  EFF7  F000         	goto	start
  2172                           opt subtitle "HI-TECH Software Omniscient Code Generator (Lite mode) build 49521"
  2173                           
  2174  001340                     	__end_of_main:
  2175                           opt subtitle "HI-TECH Software Omniscient Code Generator (Lite mode) build 49521"
  2176                           
  2177                           opt pagewidth 120
  2178                           
  2179                           	opt lm
  2180                           
  2181                           	processor	18F8622
  2182                           porta	equ	0F80h
  2183                           portb	equ	0F81h
  2184                           portc	equ	0F82h
  2185                           portd	equ	0F83h
  2186                           porte	equ	0F84h
  2187                           lata	equ	0F89h
  2188                           latb	equ	0F8Ah
  2189                           latc	equ	0F8Bh
  2190                           latd	equ	0F8Ch
  2191                           late	equ	0F8Dh
  2192                           trisa	equ	0F92h
  2193                           trisb	equ	0F93h
  2194                           trisc	equ	0F94h
  2195                           trisd	equ	0F95h
  2196                           trise	equ	0F96h
  2197                           pie1	equ	0F9Dh
  2198                           pir1	equ	0F9Eh
  2199                           ipr1	equ	0F9Fh
  2200                           pie2	equ	0FA0h
  2201                           pir2	equ	0FA1h
  2202                           ipr2	equ	0FA2h
  2203                           t3con	equ	0FB1h
  2204                           tmr3l	equ	0FB2h
  2205                           tmr3h	equ	0FB3h
  2206                           ccp1con	equ	0FBDh
  2207                           ccpr1l	equ	0FBEh
  2208                           ccpr1h	equ	0FBFh
  2209                           adcon1	equ	0FC1h
  2210                           adcon0	equ	0FC2h
  2211                           adresl	equ	0FC3h
  2212                           adresh	equ	0FC4h
  2213                           sspcon2	equ	0FC5h
  2214  001C62                     __ptext1:
  2215                           opt subtitle "HI-TECH Software Omniscient Code Generator (Lite mode) build 49521"
  2216                           
  2217                           opt pagewidth 120
  2218                           
  2219  0000                     	__size_of_mostra_lcd_buff	equ	__end_of_mostra_lcd_buff-_mostra_lcd_buff
  2220                           opt subtitle "HI-TECH Software Omniscient Code Generator (Lite mode) build 49521"
  2221  001C62                     _mostra_lcd_buff:; BSR set to: 0
  2222                           opt subtitle "HI-TECH Software Omniscient Code Generator (Lite mode) build 49521"
  2223                           
  2224                           opt pagewidth 120
  2225                           
  2226  001C62                     l1870:
  2227                           opt subtitle "HI-TECH Software Omniscient Code Generator (Lite mode) build 49521"
  2228  001C62  C061  F02F         	movff	(mostra_lcd_buff@line),(c:?_pos_lcd)
  2229  001C66  C062  F030         	movff	(mostra_lcd_buff@column),0+((c:?_pos_lcd)+01h)
  2230  001C6A  ECD6  F00C         	call	_pos_lcd	;wreg free
  2231                           opt subtitle "HI-TECH Software Omniscient Code Generator (Lite mode) build 49521"
  2232                           
  2233  001C6E  D00D               	goto	l1876
  2234                           opt subtitle "HI-TECH Software Omniscient Code Generator (Lite mode) build 49521"
  2235  001C70                     l141:
  2236                           opt subtitle "HI-TECH Software Omniscient Code Generator (Lite mode) build 49521"
  2237                           
  2238  001C70                     l1872:
  2239                           opt subtitle "HI-TECH Software Omniscient Code Generator (Lite mode) build 49521"
  2240                           
  2241  001C70  C063  FFD9         	movff	(mostra_lcd_buff@p_char),fsr2l
  2242  001C74  C064  FFDA         	movff	(mostra_lcd_buff@p_char+1),fsr2h
  2243  001C78  50DF               	movf	indf2,w
  2244  001C7A  6E2F               	movwf	((c:?_envia_dado)),c
  2245  001C7C  EC8C  F00E         	call	_envia_dado	;wreg free
  2246                           opt subtitle "HI-TECH Software Omniscient Code Generator (Lite mode) build 49521"
  2247                           
  2248  001C80                     l1874:
  2249                           opt subtitle "HI-TECH Software Omniscient Code Generator (Lite mode) build 49521"
  2250  001C80  0100               	movlb	0	; () banked
  2251  001C82  0100               	movlb	0	; () banked
  2252  001C84  4B63               	infsnz	((mostra_lcd_buff@p_char))&0ffh
  2253  001C86  2B64               	incf	((mostra_lcd_buff@p_char+1))&0ffh
  2254  001C88  D000               	goto	l1876
  2255                           opt subtitle "HI-TECH Software Omniscient Code Generator (Lite mode) build 49521"
  2256                           
  2257  001C8A                     l140:; BSR set to: 0
  2258                           opt subtitle "HI-TECH Software Omniscient Code Generator (Lite mode) build 49521"
  2259                           
  2260                           opt pagewidth 120
  2261  001C8A                     l1876:
  2262  001C8A  0100               	movlb	0	; () banked
  2263  001C8C  0100               	movlb	0	; () banked
  2264  001C8E  0765               	decf	((mostra_lcd_buff@buffer_size))&0ffh
  2265  001C90  0100               	movlb	0	; () banked
  2266  001C92  2965               	incf	((mostra_lcd_buff@buffer_size))&0ffh,w
  2267                           opt subtitle "HI-TECH Software Omniscient Code Generator (Lite mode) build 49521"
  2268  001C94  A4D8               	btfss	status,2
  2269  001C96  D001               	goto	u1221
  2270  001C98  D001               	goto	u1220
  2271  001C9A                     u1221:
  2272  001C9A  D7EA               	goto	l1872
  2273  001C9C                     u1220:
  2274  001C9C  D000               	goto	l143
  2275                           opt subtitle "HI-TECH Software Omniscient Code Generator (Lite mode) build 49521"
  2276  001C9E                     l142:; BSR set to: 0
  2277                           opt subtitle "HI-TECH Software Omniscient Code Generator (Lite mode) build 49521"
  2278                           
  2279                           opt pagewidth 120
  2280  001C9E                     l143:; BSR set to: 0
  2281                           opt subtitle "HI-TECH Software Omniscient Code Generator (Lite mode) build 49521"
  2282  001C9E  0012               	return
  2283                           opt subtitle "HI-TECH Software Omniscient Code Generator (Lite mode) build 49521"
  2284                           
  2285  001CA0                     	__end_of_mostra_lcd_buff:
  2286                           opt subtitle "HI-TECH Software Omniscient Code Generator (Lite mode) build 49521"
  2287                           
  2288                           opt pagewidth 120
  2289                           
  2290                           	opt lm
  2291                           
  2292                           	processor	18F8622
  2293                           porta	equ	0F80h
  2294                           portb	equ	0F81h
  2295                           portc	equ	0F82h
  2296                           portd	equ	0F83h
  2297                           porte	equ	0F84h
  2298                           lata	equ	0F89h
  2299                           latb	equ	0F8Ah
  2300                           latc	equ	0F8Bh
  2301                           latd	equ	0F8Ch
  2302                           late	equ	0F8Dh
  2303                           trisa	equ	0F92h
  2304                           trisb	equ	0F93h
  2305                           trisc	equ	0F94h
  2306                           trisd	equ	0F95h
  2307                           trise	equ	0F96h
  2308                           pie1	equ	0F9Dh
  2309                           pir1	equ	0F9Eh
  2310                           ipr1	equ	0F9Fh
  2311                           pie2	equ	0FA0h
  2312                           pir2	equ	0FA1h
  2313                           ipr2	equ	0FA2h
  2314                           t3con	equ	0FB1h
  2315                           tmr3l	equ	0FB2h
  2316                           tmr3h	equ	0FB3h
  2317                           ccp1con	equ	0FBDh
  2318                           ccpr1l	equ	0FBEh
  2319                           ccpr1h	equ	0FBFh
  2320                           adcon1	equ	0FC1h
  2321                           adcon0	equ	0FC2h
  2322  0019AC                     __ptext2:
  2323                           opt subtitle "HI-TECH Software Omniscient Code Generator (Lite mode) build 49521"
  2324                           
  2325                           opt pagewidth 120
  2326                           
  2327  0000                     	__size_of_pos_lcd	equ	__end_of_pos_lcd-_pos_lcd
  2328                           opt subtitle "HI-TECH Software Omniscient Code Generator (Lite mode) build 49521"
  2329  0019AC                     _pos_lcd:; BSR set to: 0
  2330                           opt subtitle "HI-TECH Software Omniscient Code Generator (Lite mode) build 49521"
  2331                           
  2332                           opt pagewidth 120
  2333                           
  2334  0019AC                     l1844:
  2335                           opt subtitle "HI-TECH Software Omniscient Code Generator (Lite mode) build 49521"
  2336  0019AC  042F               	decf	((c:pos_lcd@line)),c,w
  2337                           opt subtitle "HI-TECH Software Omniscient Code Generator (Lite mode) build 49521"
  2338  0019AE  A4D8               	btfss	status,2
  2339  0019B0  D001               	goto	u1171
  2340  0019B2  D001               	goto	u1170
  2341  0019B4                     u1171:
  2342  0019B4  D010               	goto	l1848
  2343  0019B6                     u1170:
  2344                           opt subtitle "HI-TECH Software Omniscient Code Generator (Lite mode) build 49521"
  2345                           
  2346  0019B6                     l1846:
  2347                           opt subtitle "HI-TECH Software Omniscient Code Generator (Lite mode) build 49521"
  2348  0019B6  5030               	movf	((c:pos_lcd@column)),c,w
  2349  0019B8  0F7F               	addlw	low(07Fh)
  2350  0019BA  6E29               	movwf	((c:?_envia_lcd)),c
  2351  0019BC  0100               	movlb	0	; () banked
  2352  0019BE  6F60               	movwf	(??_pos_lcd+0+0)&0ffh
  2353  0019C0  0E00               	movlw	low(0)
  2354  0019C2  6E2A               	movwf	(0+((c:?_envia_lcd)+01h)),c
  2355  0019C4  0100               	movlb	0	; () banked
  2356  0019C6  5160               	movf	(??_pos_lcd+0+0)&0ffh,w
  2357  0019C8  0E00               	movlw	high(028h)
  2358  0019CA  6E2C               	movwf	(1+((c:?_envia_lcd)+02h)),c
  2359  0019CC  0E28               	movlw	low(028h)
  2360  0019CE  6E2B               	movwf	(0+((c:?_envia_lcd)+02h)),c
  2361  0019D0  EC58  F00C         	call	_envia_lcd	;wreg free
  2362  0019D4  D000               	goto	l1848
  2363                           opt subtitle "HI-TECH Software Omniscient Code Generator (Lite mode) build 49521"
  2364  0019D6                     l124:
  2365                           opt subtitle "HI-TECH Software Omniscient Code Generator (Lite mode) build 49521"
  2366                           
  2367  0019D6                     l1848:
  2368                           opt subtitle "HI-TECH Software Omniscient Code Generator (Lite mode) build 49521"
  2369  0019D6  502F               	movf	((c:pos_lcd@line)),c,w
  2370  0019D8  0A02               	xorlw	2
  2371                           opt subtitle "HI-TECH Software Omniscient Code Generator (Lite mode) build 49521"
  2372  0019DA  A4D8               	btfss	status,2
  2373  0019DC  D001               	goto	u1181
  2374  0019DE  D001               	goto	u1180
  2375  0019E0                     u1181:
  2376  0019E0  D010               	goto	l1852
  2377  0019E2                     u1180:
  2378                           opt subtitle "HI-TECH Software Omniscient Code Generator (Lite mode) build 49521"
  2379                           
  2380  0019E2                     l1850:
  2381                           opt subtitle "HI-TECH Software Omniscient Code Generator (Lite mode) build 49521"
  2382  0019E2  5030               	movf	((c:pos_lcd@column)),c,w
  2383  0019E4  0FBF               	addlw	low(0BFh)
  2384  0019E6  6E29               	movwf	((c:?_envia_lcd)),c
  2385  0019E8  0100               	movlb	0	; () banked
  2386  0019EA  6F60               	movwf	(??_pos_lcd+0+0)&0ffh
  2387  0019EC  0E00               	movlw	low(0)
  2388  0019EE  6E2A               	movwf	(0+((c:?_envia_lcd)+01h)),c
  2389  0019F0  0100               	movlb	0	; () banked
  2390  0019F2  5160               	movf	(??_pos_lcd+0+0)&0ffh,w
  2391  0019F4  0E00               	movlw	high(028h)
  2392  0019F6  6E2C               	movwf	(1+((c:?_envia_lcd)+02h)),c
  2393  0019F8  0E28               	movlw	low(028h)
  2394  0019FA  6E2B               	movwf	(0+((c:?_envia_lcd)+02h)),c
  2395  0019FC  EC58  F00C         	call	_envia_lcd	;wreg free
  2396  001A00  D000               	goto	l1852
  2397                           opt subtitle "HI-TECH Software Omniscient Code Generator (Lite mode) build 49521"
  2398  001A02                     l125:
  2399                           opt subtitle "HI-TECH Software Omniscient Code Generator (Lite mode) build 49521"
  2400                           
  2401  001A02                     l1852:
  2402                           opt subtitle "HI-TECH Software Omniscient Code Generator (Lite mode) build 49521"
  2403  001A02  502F               	movf	((c:pos_lcd@line)),c,w
  2404  001A04  0A03               	xorlw	3
  2405                           opt subtitle "HI-TECH Software Omniscient Code Generator (Lite mode) build 49521"
  2406  001A06  A4D8               	btfss	status,2
  2407  001A08  D001               	goto	u1191
  2408  001A0A  D001               	goto	u1190
  2409  001A0C                     u1191:
  2410  001A0C  D010               	goto	l1856
  2411  001A0E                     u1190:
  2412                           opt subtitle "HI-TECH Software Omniscient Code Generator (Lite mode) build 49521"
  2413                           
  2414  001A0E                     l1854:
  2415                           opt subtitle "HI-TECH Software Omniscient Code Generator (Lite mode) build 49521"
  2416  001A0E  5030               	movf	((c:pos_lcd@column)),c,w
  2417  001A10  0F93               	addlw	low(093h)
  2418  001A12  6E29               	movwf	((c:?_envia_lcd)),c
  2419  001A14  0100               	movlb	0	; () banked
  2420  001A16  6F60               	movwf	(??_pos_lcd+0+0)&0ffh
  2421  001A18  0E00               	movlw	low(0)
  2422  001A1A  6E2A               	movwf	(0+((c:?_envia_lcd)+01h)),c
  2423  001A1C  0100               	movlb	0	; () banked
  2424  001A1E  5160               	movf	(??_pos_lcd+0+0)&0ffh,w
  2425  001A20  0E00               	movlw	high(028h)
  2426  001A22  6E2C               	movwf	(1+((c:?_envia_lcd)+02h)),c
  2427  001A24  0E28               	movlw	low(028h)
  2428  001A26  6E2B               	movwf	(0+((c:?_envia_lcd)+02h)),c
  2429  001A28  EC58  F00C         	call	_envia_lcd	;wreg free
  2430  001A2C  D000               	goto	l1856
  2431                           opt subtitle "HI-TECH Software Omniscient Code Generator (Lite mode) build 49521"
  2432  001A2E                     l126:
  2433                           opt subtitle "HI-TECH Software Omniscient Code Generator (Lite mode) build 49521"
  2434                           
  2435  001A2E                     l1856:
  2436                           opt subtitle "HI-TECH Software Omniscient Code Generator (Lite mode) build 49521"
  2437  001A2E  502F               	movf	((c:pos_lcd@line)),c,w
  2438  001A30  0A04               	xorlw	4
  2439                           opt subtitle "HI-TECH Software Omniscient Code Generator (Lite mode) build 49521"
  2440  001A32  A4D8               	btfss	status,2
  2441  001A34  D001               	goto	u1201
  2442  001A36  D001               	goto	u1200
  2443  001A38                     u1201:
  2444  001A38  D010               	goto	l128
  2445  001A3A                     u1200:
  2446                           opt subtitle "HI-TECH Software Omniscient Code Generator (Lite mode) build 49521"
  2447                           
  2448  001A3A                     l1858:
  2449                           opt subtitle "HI-TECH Software Omniscient Code Generator (Lite mode) build 49521"
  2450  001A3A  5030               	movf	((c:pos_lcd@column)),c,w
  2451  001A3C  0FD3               	addlw	low(0D3h)
  2452  001A3E  6E29               	movwf	((c:?_envia_lcd)),c
  2453  001A40  0100               	movlb	0	; () banked
  2454  001A42  6F60               	movwf	(??_pos_lcd+0+0)&0ffh
  2455  001A44  0E00               	movlw	low(0)
  2456  001A46  6E2A               	movwf	(0+((c:?_envia_lcd)+01h)),c
  2457  001A48  0100               	movlb	0	; () banked
  2458  001A4A  5160               	movf	(??_pos_lcd+0+0)&0ffh,w
  2459  001A4C  0E00               	movlw	high(028h)
  2460  001A4E  6E2C               	movwf	(1+((c:?_envia_lcd)+02h)),c
  2461  001A50  0E28               	movlw	low(028h)
  2462  001A52  6E2B               	movwf	(0+((c:?_envia_lcd)+02h)),c
  2463  001A54  EC58  F00C         	call	_envia_lcd	;wreg free
  2464  001A58  D000               	goto	l128
  2465                           opt subtitle "HI-TECH Software Omniscient Code Generator (Lite mode) build 49521"
  2466  001A5A                     l127:
  2467                           opt subtitle "HI-TECH Software Omniscient Code Generator (Lite mode) build 49521"
  2468                           
  2469  001A5A                     l128:
  2470  001A5A  0012               	return
  2471                           opt subtitle "HI-TECH Software Omniscient Code Generator (Lite mode) build 49521"
  2472                           
  2473  001A5C                     	__end_of_pos_lcd:
  2474                           opt subtitle "HI-TECH Software Omniscient Code Generator (Lite mode) build 49521"
  2475                           
  2476                           opt pagewidth 120
  2477                           
  2478                           	opt lm
  2479                           
  2480                           	processor	18F8622
  2481                           porta	equ	0F80h
  2482                           portb	equ	0F81h
  2483                           portc	equ	0F82h
  2484                           portd	equ	0F83h
  2485                           porte	equ	0F84h
  2486                           lata	equ	0F89h
  2487                           latb	equ	0F8Ah
  2488                           latc	equ	0F8Bh
  2489                           latd	equ	0F8Ch
  2490                           late	equ	0F8Dh
  2491                           trisa	equ	0F92h
  2492                           trisb	equ	0F93h
  2493                           trisc	equ	0F94h
  2494                           trisd	equ	0F95h
  2495                           trise	equ	0F96h
  2496                           pie1	equ	0F9Dh
  2497                           pir1	equ	0F9Eh
  2498                           ipr1	equ	0F9Fh
  2499                           pie2	equ	0FA0h
  2500                           pir2	equ	0FA1h
  2501                           ipr2	equ	0FA2h
  2502                           t3con	equ	0FB1h
  2503                           tmr3l	equ	0FB2h
  2504                           tmr3h	equ	0FB3h
  2505                           ccp1con	equ	0FBDh
  2506                           ccpr1l	equ	0FBEh
  2507                           ccpr1h	equ	0FBFh
  2508                           adcon1	equ	0FC1h
  2509  001D18                     __ptext3:
  2510                           opt subtitle "HI-TECH Software Omniscient Code Generator (Lite mode) build 49521"
  2511                           
  2512                           opt pagewidth 120
  2513                           
  2514  0000                     	__size_of_envia_dado	equ	__end_of_envia_dado-_envia_dado
  2515                           opt subtitle "HI-TECH Software Omniscient Code Generator (Lite mode) build 49521"
  2516  001D18                     _envia_dado:
  2517                           opt subtitle "HI-TECH Software Omniscient Code Generator (Lite mode) build 49521"
  2518                           
  2519                           opt pagewidth 120
  2520  001D18                     l1860:
  2521                           opt subtitle "HI-TECH Software Omniscient Code Generator (Lite mode) build 49521"
  2522  001D18  C02F  F029         	movff	(c:envia_dado@dado),(c:?_envia_lcd)
  2523  001D1C  6E30               	movwf	(??_envia_dado+0+0)&0ffh,c
  2524  001D1E  0E01               	movlw	low(01h)
  2525  001D20  6E2A               	movwf	(0+((c:?_envia_lcd)+01h)),c
  2526  001D22  5030               	movf	(??_envia_dado+0+0)&0ffh,c,w
  2527  001D24  0E00               	movlw	high(02Dh)
  2528  001D26  6E2C               	movwf	(1+((c:?_envia_lcd)+02h)),c
  2529  001D28  0E2D               	movlw	low(02Dh)
  2530  001D2A  6E2B               	movwf	(0+((c:?_envia_lcd)+02h)),c
  2531  001D2C  EC58  F00C         	call	_envia_lcd	;wreg free
  2532                           opt subtitle "HI-TECH Software Omniscient Code Generator (Lite mode) build 49521"
  2533                           
  2534  001D30                     l131:
  2535  001D30  0012               	return
  2536                           opt subtitle "HI-TECH Software Omniscient Code Generator (Lite mode) build 49521"
  2537                           
  2538  001D32                     	__end_of_envia_dado:
  2539                           opt subtitle "HI-TECH Software Omniscient Code Generator (Lite mode) build 49521"
  2540                           
  2541                           opt pagewidth 120
  2542                           
  2543                           	opt lm
  2544                           
  2545                           	processor	18F8622
  2546                           porta	equ	0F80h
  2547                           portb	equ	0F81h
  2548                           portc	equ	0F82h
  2549                           portd	equ	0F83h
  2550                           porte	equ	0F84h
  2551                           lata	equ	0F89h
  2552                           latb	equ	0F8Ah
  2553                           latc	equ	0F8Bh
  2554                           latd	equ	0F8Ch
  2555                           late	equ	0F8Dh
  2556                           trisa	equ	0F92h
  2557                           trisb	equ	0F93h
  2558                           trisc	equ	0F94h
  2559                           trisd	equ	0F95h
  2560                           trise	equ	0F96h
  2561                           pie1	equ	0F9Dh
  2562                           pir1	equ	0F9Eh
  2563                           ipr1	equ	0F9Fh
  2564                           pie2	equ	0FA0h
  2565                           pir2	equ	0FA1h
  2566                           ipr2	equ	0FA2h
  2567                           t3con	equ	0FB1h
  2568                           tmr3l	equ	0FB2h
  2569                           tmr3h	equ	0FB3h
  2570                           ccp1con	equ	0FBDh
  2571                           ccpr1l	equ	0FBEh
  2572                           ccpr1h	equ	0FBFh
  2573                           adcon1	equ	0FC1h
  2574                           adcon0	equ	0FC2h
  2575                           adresl	equ	0FC3h
  2576                           adresh	equ	0FC4h
  2577  0015A8                     __ptext4:
  2578                           opt subtitle "HI-TECH Software Omniscient Code Generator (Lite mode) build 49521"
  2579                           
  2580                           opt pagewidth 120
  2581                           
  2582  0000                     	__size_of_lcd_start	equ	__end_of_lcd_start-_lcd_start
  2583                           opt subtitle "HI-TECH Software Omniscient Code Generator (Lite mode) build 49521"
  2584  0015A8                     _lcd_start:
  2585                           opt subtitle "HI-TECH Software Omniscient Code Generator (Lite mode) build 49521"
  2586                           
  2587                           opt pagewidth 120
  2588  0015A8                     l1878:
  2589                           opt subtitle "HI-TECH Software Omniscient Code Generator (Lite mode) build 49521"
  2590  0015A8  EE20  F0A8         	lfsr	2,(lcd_start@F7252)
  2591  0015AC  EE10  F067         	lfsr	1,(lcd_start@lcd_conf)
  2592  0015B0  0E06               	movlw	6
  2593  0015B2                     u1231:
  2594  0015B2  CFDE FFE6          	movff	postinc2,postinc1
  2595  0015B6  2EE8               	decfsz	wreg
  2596  0015B8  D7FC               	goto	u1231
  2597                           opt subtitle "HI-TECH Software Omniscient Code Generator (Lite mode) build 49521"
  2598                           
  2599  0015BA                     l1880:
  2600                           opt subtitle "HI-TECH Software Omniscient Code Generator (Lite mode) build 49521"
  2601  0015BA  0100               	movlb	0	; () banked
  2602  0015BC  6F65               	movwf	(??_lcd_start+0+0)&0ffh
  2603  0015BE  0E00               	movlw	low(0)
  2604  0015C0  0100               	movlb	0	; () banked
  2605  0015C2  0100               	movlb	0	; () banked
  2606  0015C4  6F66               	movwf	((lcd_start@contagem))&0ffh
  2607  0015C6  0100               	movlb	0	; () banked
  2608  0015C8  5165               	movf	(??_lcd_start+0+0)&0ffh,w
  2609                           opt subtitle "HI-TECH Software Omniscient Code Generator (Lite mode) build 49521"
  2610                           
  2611  0015CA                     l1882:; BSR set to: 0
  2612                           opt subtitle "HI-TECH Software Omniscient Code Generator (Lite mode) build 49521"
  2613                           
  2614  0015CA  0100               	movlb	0	; () banked
  2615  0015CC  6F65               	movwf	(??_lcd_start+0+0)&0ffh
  2616  0015CE  0E28               	movlw	low(028h)
  2617  0015D0  0100               	movlb	0	; () banked
  2618  0015D2  0100               	movlb	0	; () banked
  2619  0015D4  6F69               	movwf	(0+(lcd_start@lcd_conf+02h))&0ffh
  2620  0015D6  0100               	movlb	0	; () banked
  2621  0015D8  5165               	movf	(??_lcd_start+0+0)&0ffh,w
  2622                           opt subtitle "HI-TECH Software Omniscient Code Generator (Lite mode) build 49521"
  2623                           
  2624  0015DA                     l1884:; BSR set to: 0
  2625                           opt subtitle "HI-TECH Software Omniscient Code Generator (Lite mode) build 49521"
  2626                           
  2627  0015DA  0100               	movlb	0	; () banked
  2628  0015DC  6F65               	movwf	(??_lcd_start+0+0)&0ffh
  2629  0015DE  0E0F               	movlw	low(0Fh)
  2630  0015E0  0100               	movlb	0	; () banked
  2631  0015E2  0100               	movlb	0	; () banked
  2632  0015E4  6F6A               	movwf	(0+(lcd_start@lcd_conf+03h))&0ffh
  2633  0015E6  0100               	movlb	0	; () banked
  2634  0015E8  5165               	movf	(??_lcd_start+0+0)&0ffh,w
  2635                           opt subtitle "HI-TECH Software Omniscient Code Generator (Lite mode) build 49521"
  2636                           
  2637  0015EA                     l1886:; BSR set to: 0
  2638                           opt subtitle "HI-TECH Software Omniscient Code Generator (Lite mode) build 49521"
  2639                           
  2640  0015EA  0100               	movlb	0	; () banked
  2641  0015EC  6F65               	movwf	(??_lcd_start+0+0)&0ffh
  2642  0015EE  0E06               	movlw	low(06h)
  2643  0015F0  0100               	movlb	0	; () banked
  2644  0015F2  0100               	movlb	0	; () banked
  2645  0015F4  6F6B               	movwf	(0+(lcd_start@lcd_conf+04h))&0ffh
  2646  0015F6  0100               	movlb	0	; () banked
  2647  0015F8  5165               	movf	(??_lcd_start+0+0)&0ffh,w
  2648                           opt subtitle "HI-TECH Software Omniscient Code Generator (Lite mode) build 49521"
  2649                           
  2650  0015FA                     l1888:; BSR set to: 0
  2651                           opt subtitle "HI-TECH Software Omniscient Code Generator (Lite mode) build 49521"
  2652                           
  2653  0015FA  9483               	bcf	((c:3971)),c,2	;volatile
  2654                           opt subtitle "HI-TECH Software Omniscient Code Generator (Lite mode) build 49521"
  2655                           
  2656  0015FC                     l1890:; BSR set to: 0
  2657                           opt subtitle "HI-TECH Software Omniscient Code Generator (Lite mode) build 49521"
  2658                           
  2659  0015FC  9683               	bcf	((c:3971)),c,3	;volatile
  2660                           opt subtitle "HI-TECH Software Omniscient Code Generator (Lite mode) build 49521"
  2661                           
  2662  0015FE                     l1892:; BSR set to: 0
  2663                           opt subtitle "HI-TECH Software Omniscient Code Generator (Lite mode) build 49521"
  2664                           
  2665  0015FE  0E4E               	movlw	high(04E20h)
  2666  001600  6E28               	movwf	((c:?_tempo_us+1)),c
  2667  001602  0E20               	movlw	low(04E20h)
  2668  001604  6E27               	movwf	((c:?_tempo_us)),c
  2669  001606  ECD6  F00B         	call	_tempo_us	;wreg free
  2670                           opt subtitle "HI-TECH Software Omniscient Code Generator (Lite mode) build 49521"
  2671                           
  2672  00160A  D04B               	goto	l148
  2673                           opt subtitle "HI-TECH Software Omniscient Code Generator (Lite mode) build 49521"
  2674  00160C                     l149:
  2675                           opt subtitle "HI-TECH Software Omniscient Code Generator (Lite mode) build 49521"
  2676                           
  2677  00160C                     l1894:
  2678                           opt subtitle "HI-TECH Software Omniscient Code Generator (Lite mode) build 49521"
  2679                           
  2680  00160C  C067  F065         	movff	(lcd_start@lcd_conf),??_lcd_start+0+0
  2681  001610  0100               	movlb	0	; () banked
  2682  001612  90D8               	bcf	status,0
  2683  001614  3365               	rrcf	(??_lcd_start+0+0)&0ffh
  2684  001616  0100               	movlb	0	; () banked
  2685  001618  90D8               	bcf	status,0
  2686  00161A  3365               	rrcf	(??_lcd_start+0+0)&0ffh
  2687  00161C  0100               	movlb	0	; () banked
  2688  00161E  90D8               	bcf	status,0
  2689  001620  3365               	rrcf	(??_lcd_start+0+0)&0ffh
  2690                           opt subtitle "HI-TECH Software Omniscient Code Generator (Lite mode) build 49521"
  2691  001622  0100               	movlb	0	; () banked
  2692  001624  3365               	rrcf	(??_lcd_start+0+0)&0ffh
  2693  001626  3365               	rrcf	(??_lcd_start+0+0)&0ffh
  2694  001628  5083               	movf	((c:3971)),c,w	;volatile
  2695  00162A  0100               	movlb	0	; () banked
  2696  00162C  1965               	xorwf	(??_lcd_start+0+0)&0ffh,w
  2697  00162E  0B7F               	andlw	not (((1<<1)-1)<<7)
  2698  001630  1965               	xorwf	(??_lcd_start+0+0)&0ffh,w
  2699  001632  6E83               	movwf	((c:3971)),c	;volatile
  2700                           opt subtitle "HI-TECH Software Omniscient Code Generator (Lite mode) build 49521"
  2701                           
  2702  001634  C067  F065         	movff	(lcd_start@lcd_conf),??_lcd_start+0+0
  2703  001638  0100               	movlb	0	; () banked
  2704  00163A  90D8               	bcf	status,0
  2705  00163C  3365               	rrcf	(??_lcd_start+0+0)&0ffh
  2706  00163E  0100               	movlb	0	; () banked
  2707  001640  90D8               	bcf	status,0
  2708  001642  3365               	rrcf	(??_lcd_start+0+0)&0ffh
  2709                           opt subtitle "HI-TECH Software Omniscient Code Generator (Lite mode) build 49521"
  2710  001644  0100               	movlb	0	; () banked
  2711  001646  3B65               	swapf	(??_lcd_start+0+0)&0ffh
  2712  001648  4765               	rlncf	(??_lcd_start+0+0)&0ffh
  2713  00164A  4765               	rlncf	(??_lcd_start+0+0)&0ffh
  2714  00164C  5083               	movf	((c:3971)),c,w	;volatile
  2715  00164E  1965               	xorwf	(??_lcd_start+0+0)&0ffh,w
  2716  001650  0BBF               	andlw	not (((1<<1)-1)<<6)
  2717  001652  1965               	xorwf	(??_lcd_start+0+0)&0ffh,w
  2718  001654  6E83               	movwf	((c:3971)),c	;volatile
  2719                           opt subtitle "HI-TECH Software Omniscient Code Generator (Lite mode) build 49521"
  2720                           
  2721  001656  C067  F065         	movff	(lcd_start@lcd_conf),??_lcd_start+0+0
  2722  00165A  0100               	movlb	0	; () banked
  2723  00165C  90D8               	bcf	status,0
  2724  00165E  3365               	rrcf	(??_lcd_start+0+0)&0ffh
  2725                           opt subtitle "HI-TECH Software Omniscient Code Generator (Lite mode) build 49521"
  2726  001660  0100               	movlb	0	; () banked
  2727  001662  3B65               	swapf	(??_lcd_start+0+0)&0ffh
  2728  001664  4765               	rlncf	(??_lcd_start+0+0)&0ffh
  2729  001666  5083               	movf	((c:3971)),c,w	;volatile
  2730  001668  0100               	movlb	0	; () banked
  2731  00166A  1965               	xorwf	(??_lcd_start+0+0)&0ffh,w
  2732  00166C  0BDF               	andlw	not (((1<<1)-1)<<5)
  2733  00166E  1965               	xorwf	(??_lcd_start+0+0)&0ffh,w
  2734  001670  6E83               	movwf	((c:3971)),c	;volatile
  2735                           opt subtitle "HI-TECH Software Omniscient Code Generator (Lite mode) build 49521"
  2736                           
  2737  001672                     l1896:; BSR set to: 0
  2738                           opt subtitle "HI-TECH Software Omniscient Code Generator (Lite mode) build 49521"
  2739                           
  2740  001672  0100               	movlb	0	; () banked
  2741  001674  0100               	movlb	0	; () banked
  2742  001676  B167               	btfsc	(lcd_start@lcd_conf)&0ffh,0
  2743  001678  D002               	bra	u1245
  2744  00167A  9883               	bcf	((c:3971)),c,4	;volatile
  2745  00167C  D001               	bra	u1246
  2746  00167E                     	u1245:
  2747  00167E  8883               	bsf	((c:3971)),c,4	;volatile
  2748  001680                     	u1246:
  2749                           opt subtitle "HI-TECH Software Omniscient Code Generator (Lite mode) build 49521"
  2750                           
  2751                           opt pagewidth 120
  2752  001680                     l1898:
  2753                           opt subtitle "HI-TECH Software Omniscient Code Generator (Lite mode) build 49521"
  2754  001680  8683               	bsf	((c:3971)),c,3	;volatile
  2755                           opt subtitle "HI-TECH Software Omniscient Code Generator (Lite mode) build 49521"
  2756  001682                     l1900:
  2757  001682  0E00               	movlw	high(02h)
  2758  001684  6E28               	movwf	((c:?_tempo_us+1)),c
  2759  001686  0E02               	movlw	low(02h)
  2760  001688  6E27               	movwf	((c:?_tempo_us)),c
  2761  00168A  ECD6  F00B         	call	_tempo_us	;wreg free
  2762                           opt subtitle "HI-TECH Software Omniscient Code Generator (Lite mode) build 49521"
  2763  00168E                     l1902:
  2764  00168E  9683               	bcf	((c:3971)),c,3	;volatile
  2765                           opt subtitle "HI-TECH Software Omniscient Code Generator (Lite mode) build 49521"
  2766                           
  2767  001690                     l1904:
  2768                           opt subtitle "HI-TECH Software Omniscient Code Generator (Lite mode) build 49521"
  2769  001690  0E13               	movlw	high(01388h)
  2770  001692  6E28               	movwf	((c:?_tempo_us+1)),c
  2771  001694  0E88               	movlw	low(01388h)
  2772  001696  6E27               	movwf	((c:?_tempo_us)),c
  2773  001698  ECD6  F00B         	call	_tempo_us	;wreg free
  2774                           opt subtitle "HI-TECH Software Omniscient Code Generator (Lite mode) build 49521"
  2775                           
  2776  00169C                     l1906:
  2777                           opt subtitle "HI-TECH Software Omniscient Code Generator (Lite mode) build 49521"
  2778  00169C  0100               	movlb	0	; () banked
  2779  00169E  0100               	movlb	0	; () banked
  2780  0016A0  2B66               	incf	((lcd_start@contagem))&0ffh
  2781                           opt subtitle "HI-TECH Software Omniscient Code Generator (Lite mode) build 49521"
  2782                           
  2783  0016A2                     l148:
  2784                           opt subtitle "HI-TECH Software Omniscient Code Generator (Lite mode) build 49521"
  2785  0016A2  0E02               	movlw	(03h-1)
  2786  0016A4  0100               	movlb	0	; () banked
  2787  0016A6  0100               	movlb	0	; () banked
  2788  0016A8  6566               	cpfsgt	((lcd_start@contagem))&0ffh
  2789  0016AA  D001               	goto	u1251
  2790  0016AC  D001               	goto	u1250
  2791  0016AE                     u1251:
  2792  0016AE  D7AE               	goto	l1894
  2793  0016B0                     u1250:
  2794  0016B0  D000               	goto	l1908
  2795                           opt subtitle "HI-TECH Software Omniscient Code Generator (Lite mode) build 49521"
  2796  0016B2                     l150:; BSR set to: 0
  2797                           opt subtitle "HI-TECH Software Omniscient Code Generator (Lite mode) build 49521"
  2798                           
  2799                           opt pagewidth 120
  2800  0016B2                     l1908:; BSR set to: 0
  2801                           opt subtitle "HI-TECH Software Omniscient Code Generator (Lite mode) build 49521"
  2802                           
  2803                           opt pagewidth 120
  2804  0016B2  C068  F065         	movff	0+(lcd_start@lcd_conf+01h),??_lcd_start+0+0
  2805  0016B6  0100               	movlb	0	; () banked
  2806  0016B8  90D8               	bcf	status,0
  2807  0016BA  3365               	rrcf	(??_lcd_start+0+0)&0ffh
  2808  0016BC  0100               	movlb	0	; () banked
  2809  0016BE  90D8               	bcf	status,0
  2810  0016C0  3365               	rrcf	(??_lcd_start+0+0)&0ffh
  2811  0016C2  0100               	movlb	0	; () banked
  2812  0016C4  90D8               	bcf	status,0
  2813  0016C6  3365               	rrcf	(??_lcd_start+0+0)&0ffh
  2814                           opt subtitle "HI-TECH Software Omniscient Code Generator (Lite mode) build 49521"
  2815  0016C8  0100               	movlb	0	; () banked
  2816  0016CA  3365               	rrcf	(??_lcd_start+0+0)&0ffh
  2817  0016CC  3365               	rrcf	(??_lcd_start+0+0)&0ffh
  2818  0016CE  5083               	movf	((c:3971)),c,w	;volatile
  2819  0016D0  0100               	movlb	0	; () banked
  2820  0016D2  1965               	xorwf	(??_lcd_start+0+0)&0ffh,w
  2821  0016D4  0B7F               	andlw	not (((1<<1)-1)<<7)
  2822  0016D6  1965               	xorwf	(??_lcd_start+0+0)&0ffh,w
  2823  0016D8  6E83               	movwf	((c:3971)),c	;volatile
  2824                           opt subtitle "HI-TECH Software Omniscient Code Generator (Lite mode) build 49521"
  2825                           
  2826  0016DA  C068  F065         	movff	0+(lcd_start@lcd_conf+01h),??_lcd_start+0+0
  2827  0016DE  0100               	movlb	0	; () banked
  2828  0016E0  90D8               	bcf	status,0
  2829  0016E2  3365               	rrcf	(??_lcd_start+0+0)&0ffh
  2830  0016E4  0100               	movlb	0	; () banked
  2831  0016E6  90D8               	bcf	status,0
  2832  0016E8  3365               	rrcf	(??_lcd_start+0+0)&0ffh
  2833                           opt subtitle "HI-TECH Software Omniscient Code Generator (Lite mode) build 49521"
  2834  0016EA  0100               	movlb	0	; () banked
  2835  0016EC  3B65               	swapf	(??_lcd_start+0+0)&0ffh
  2836  0016EE  4765               	rlncf	(??_lcd_start+0+0)&0ffh
  2837  0016F0  4765               	rlncf	(??_lcd_start+0+0)&0ffh
  2838  0016F2  5083               	movf	((c:3971)),c,w	;volatile
  2839  0016F4  1965               	xorwf	(??_lcd_start+0+0)&0ffh,w
  2840  0016F6  0BBF               	andlw	not (((1<<1)-1)<<6)
  2841  0016F8  1965               	xorwf	(??_lcd_start+0+0)&0ffh,w
  2842  0016FA  6E83               	movwf	((c:3971)),c	;volatile
  2843                           opt subtitle "HI-TECH Software Omniscient Code Generator (Lite mode) build 49521"
  2844                           
  2845  0016FC  C068  F065         	movff	0+(lcd_start@lcd_conf+01h),??_lcd_start+0+0
  2846  001700  0100               	movlb	0	; () banked
  2847  001702  90D8               	bcf	status,0
  2848  001704  3365               	rrcf	(??_lcd_start+0+0)&0ffh
  2849                           opt subtitle "HI-TECH Software Omniscient Code Generator (Lite mode) build 49521"
  2850  001706  0100               	movlb	0	; () banked
  2851  001708  3B65               	swapf	(??_lcd_start+0+0)&0ffh
  2852  00170A  4765               	rlncf	(??_lcd_start+0+0)&0ffh
  2853  00170C  5083               	movf	((c:3971)),c,w	;volatile
  2854  00170E  0100               	movlb	0	; () banked
  2855  001710  1965               	xorwf	(??_lcd_start+0+0)&0ffh,w
  2856  001712  0BDF               	andlw	not (((1<<1)-1)<<5)
  2857  001714  1965               	xorwf	(??_lcd_start+0+0)&0ffh,w
  2858  001716  6E83               	movwf	((c:3971)),c	;volatile
  2859                           opt subtitle "HI-TECH Software Omniscient Code Generator (Lite mode) build 49521"
  2860                           
  2861  001718                     l1910:; BSR set to: 0
  2862                           opt subtitle "HI-TECH Software Omniscient Code Generator (Lite mode) build 49521"
  2863                           
  2864  001718  0100               	movlb	0	; () banked
  2865  00171A  0100               	movlb	0	; () banked
  2866  00171C  B168               	btfsc	0+(lcd_start@lcd_conf+01h)&0ffh,0
  2867  00171E  D002               	bra	u1265
  2868  001720  9883               	bcf	((c:3971)),c,4	;volatile
  2869  001722  D001               	bra	u1266
  2870  001724                     	u1265:
  2871  001724  8883               	bsf	((c:3971)),c,4	;volatile
  2872  001726                     	u1266:
  2873                           opt subtitle "HI-TECH Software Omniscient Code Generator (Lite mode) build 49521"
  2874                           
  2875                           opt pagewidth 120
  2876  001726                     l1912:
  2877                           opt subtitle "HI-TECH Software Omniscient Code Generator (Lite mode) build 49521"
  2878  001726  8683               	bsf	((c:3971)),c,3	;volatile
  2879                           opt subtitle "HI-TECH Software Omniscient Code Generator (Lite mode) build 49521"
  2880  001728                     l1914:
  2881  001728  0E00               	movlw	high(02h)
  2882  00172A  6E28               	movwf	((c:?_tempo_us+1)),c
  2883  00172C  0E02               	movlw	low(02h)
  2884  00172E  6E27               	movwf	((c:?_tempo_us)),c
  2885  001730  ECD6  F00B         	call	_tempo_us	;wreg free
  2886                           opt subtitle "HI-TECH Software Omniscient Code Generator (Lite mode) build 49521"
  2887  001734                     l1916:
  2888  001734  9683               	bcf	((c:3971)),c,3	;volatile
  2889                           opt subtitle "HI-TECH Software Omniscient Code Generator (Lite mode) build 49521"
  2890                           
  2891  001736                     l1918:
  2892                           opt subtitle "HI-TECH Software Omniscient Code Generator (Lite mode) build 49521"
  2893  001736  0E00               	movlw	high(028h)
  2894  001738  6E28               	movwf	((c:?_tempo_us+1)),c
  2895  00173A  0E28               	movlw	low(028h)
  2896  00173C  6E27               	movwf	((c:?_tempo_us)),c
  2897  00173E  ECD6  F00B         	call	_tempo_us	;wreg free
  2898                           opt subtitle "HI-TECH Software Omniscient Code Generator (Lite mode) build 49521"
  2899                           
  2900  001742                     l1920:
  2901                           opt subtitle "HI-TECH Software Omniscient Code Generator (Lite mode) build 49521"
  2902  001742  C069  F029         	movff	0+(lcd_start@lcd_conf+02h),(c:?_envia_lcd)
  2903  001746  0100               	movlb	0	; () banked
  2904  001748  6F65               	movwf	(??_lcd_start+0+0)&0ffh
  2905  00174A  0E00               	movlw	low(0)
  2906  00174C  6E2A               	movwf	(0+((c:?_envia_lcd)+01h)),c
  2907  00174E  0100               	movlb	0	; () banked
  2908  001750  5165               	movf	(??_lcd_start+0+0)&0ffh,w
  2909  001752  0E00               	movlw	high(028h)
  2910  001754  6E2C               	movwf	(1+((c:?_envia_lcd)+02h)),c
  2911  001756  0E28               	movlw	low(028h)
  2912  001758  6E2B               	movwf	(0+((c:?_envia_lcd)+02h)),c
  2913  00175A  EC58  F00C         	call	_envia_lcd	;wreg free
  2914                           opt subtitle "HI-TECH Software Omniscient Code Generator (Lite mode) build 49521"
  2915                           
  2916  00175E                     l1922:
  2917                           opt subtitle "HI-TECH Software Omniscient Code Generator (Lite mode) build 49521"
  2918  00175E  C06A  F029         	movff	0+(lcd_start@lcd_conf+03h),(c:?_envia_lcd)
  2919  001762  0100               	movlb	0	; () banked
  2920  001764  6F65               	movwf	(??_lcd_start+0+0)&0ffh
  2921  001766  0E00               	movlw	low(0)
  2922  001768  6E2A               	movwf	(0+((c:?_envia_lcd)+01h)),c
  2923  00176A  0100               	movlb	0	; () banked
  2924  00176C  5165               	movf	(??_lcd_start+0+0)&0ffh,w
  2925  00176E  0E00               	movlw	high(028h)
  2926  001770  6E2C               	movwf	(1+((c:?_envia_lcd)+02h)),c
  2927  001772  0E28               	movlw	low(028h)
  2928  001774  6E2B               	movwf	(0+((c:?_envia_lcd)+02h)),c
  2929  001776  EC58  F00C         	call	_envia_lcd	;wreg free
  2930                           opt subtitle "HI-TECH Software Omniscient Code Generator (Lite mode) build 49521"
  2931                           
  2932  00177A                     l1924:
  2933                           opt subtitle "HI-TECH Software Omniscient Code Generator (Lite mode) build 49521"
  2934  00177A  C06B  F029         	movff	0+(lcd_start@lcd_conf+04h),(c:?_envia_lcd)
  2935  00177E  0100               	movlb	0	; () banked
  2936  001780  6F65               	movwf	(??_lcd_start+0+0)&0ffh
  2937  001782  0E00               	movlw	low(0)
  2938  001784  6E2A               	movwf	(0+((c:?_envia_lcd)+01h)),c
  2939  001786  0100               	movlb	0	; () banked
  2940  001788  5165               	movf	(??_lcd_start+0+0)&0ffh,w
  2941  00178A  0E00               	movlw	high(028h)
  2942  00178C  6E2C               	movwf	(1+((c:?_envia_lcd)+02h)),c
  2943  00178E  0E28               	movlw	low(028h)
  2944  001790  6E2B               	movwf	(0+((c:?_envia_lcd)+02h)),c
  2945  001792  EC58  F00C         	call	_envia_lcd	;wreg free
  2946                           opt subtitle "HI-TECH Software Omniscient Code Generator (Lite mode) build 49521"
  2947                           
  2948  001796                     l1926:
  2949                           opt subtitle "HI-TECH Software Omniscient Code Generator (Lite mode) build 49521"
  2950  001796  EC6F  F00E         	call	_limpa_tela	;wreg free
  2951                           opt subtitle "HI-TECH Software Omniscient Code Generator (Lite mode) build 49521"
  2952                           
  2953  00179A                     l1928:
  2954                           opt subtitle "HI-TECH Software Omniscient Code Generator (Lite mode) build 49521"
  2955  00179A  0100               	movlb	0	; () banked
  2956  00179C  6F65               	movwf	(??_lcd_start+0+0)&0ffh
  2957  00179E  0E00               	movlw	low(0)
  2958  0017A0  6E2F               	movwf	((c:?_ctrl_lcd_cursor)),c
  2959  0017A2  0100               	movlb	0	; () banked
  2960  0017A4  5165               	movf	(??_lcd_start+0+0)&0ffh,w
  2961  0017A6  EC11  F00E         	call	_ctrl_lcd_cursor	;wreg free
  2962                           opt subtitle "HI-TECH Software Omniscient Code Generator (Lite mode) build 49521"
  2963                           
  2964  0017AA                     l151:
  2965  0017AA  0012               	return
  2966                           opt subtitle "HI-TECH Software Omniscient Code Generator (Lite mode) build 49521"
  2967                           
  2968  0017AC                     	__end_of_lcd_start:
  2969                           opt subtitle "HI-TECH Software Omniscient Code Generator (Lite mode) build 49521"
  2970                           
  2971                           opt pagewidth 120
  2972                           
  2973                           	opt lm
  2974                           
  2975                           	processor	18F8622
  2976                           porta	equ	0F80h
  2977                           portb	equ	0F81h
  2978                           portc	equ	0F82h
  2979                           portd	equ	0F83h
  2980                           porte	equ	0F84h
  2981                           lata	equ	0F89h
  2982                           latb	equ	0F8Ah
  2983                           latc	equ	0F8Bh
  2984                           latd	equ	0F8Ch
  2985                           late	equ	0F8Dh
  2986                           trisa	equ	0F92h
  2987                           trisb	equ	0F93h
  2988                           trisc	equ	0F94h
  2989                           trisd	equ	0F95h
  2990                           trise	equ	0F96h
  2991                           pie1	equ	0F9Dh
  2992                           pir1	equ	0F9Eh
  2993                           ipr1	equ	0F9Fh
  2994                           pie2	equ	0FA0h
  2995                           pir2	equ	0FA1h
  2996                           ipr2	equ	0FA2h
  2997                           t3con	equ	0FB1h
  2998                           tmr3l	equ	0FB2h
  2999                           tmr3h	equ	0FB3h
  3000                           ccp1con	equ	0FBDh
  3001                           ccpr1l	equ	0FBEh
  3002                           ccpr1h	equ	0FBFh
  3003  001CDE                     __ptext5:
  3004                           opt subtitle "HI-TECH Software Omniscient Code Generator (Lite mode) build 49521"
  3005                           
  3006                           opt pagewidth 120
  3007                           
  3008  0000                     	__size_of_limpa_tela	equ	__end_of_limpa_tela-_limpa_tela
  3009                           opt subtitle "HI-TECH Software Omniscient Code Generator (Lite mode) build 49521"
  3010  001CDE                     _limpa_tela:
  3011                           opt subtitle "HI-TECH Software Omniscient Code Generator (Lite mode) build 49521"
  3012                           
  3013                           opt pagewidth 120
  3014  001CDE                     l1830:
  3015                           opt subtitle "HI-TECH Software Omniscient Code Generator (Lite mode) build 49521"
  3016  001CDE  6E2F               	movwf	(??_limpa_tela+0+0)&0ffh,c
  3017  001CE0  0E01               	movlw	low(01h)
  3018  001CE2  6E29               	movwf	((c:?_envia_lcd)),c
  3019  001CE4  502F               	movf	(??_limpa_tela+0+0)&0ffh,c,w
  3020  001CE6  6E30               	movwf	(??_limpa_tela+1+0)&0ffh,c
  3021  001CE8  0E00               	movlw	low(0)
  3022  001CEA  6E2A               	movwf	(0+((c:?_envia_lcd)+01h)),c
  3023  001CEC  5030               	movf	(??_limpa_tela+1+0)&0ffh,c,w
  3024  001CEE  0E07               	movlw	high(07D0h)
  3025  001CF0  6E2C               	movwf	(1+((c:?_envia_lcd)+02h)),c
  3026  001CF2  0ED0               	movlw	low(07D0h)
  3027  001CF4  6E2B               	movwf	(0+((c:?_envia_lcd)+02h)),c
  3028  001CF6  EC58  F00C         	call	_envia_lcd	;wreg free
  3029                           opt subtitle "HI-TECH Software Omniscient Code Generator (Lite mode) build 49521"
  3030                           
  3031  001CFA                     l106:
  3032  001CFA  0012               	return
  3033                           opt subtitle "HI-TECH Software Omniscient Code Generator (Lite mode) build 49521"
  3034                           
  3035  001CFC                     	__end_of_limpa_tela:
  3036                           opt subtitle "HI-TECH Software Omniscient Code Generator (Lite mode) build 49521"
  3037                           
  3038                           opt pagewidth 120
  3039                           
  3040                           	opt lm
  3041                           
  3042                           	processor	18F8622
  3043                           porta	equ	0F80h
  3044                           portb	equ	0F81h
  3045                           portc	equ	0F82h
  3046                           portd	equ	0F83h
  3047                           porte	equ	0F84h
  3048                           lata	equ	0F89h
  3049                           latb	equ	0F8Ah
  3050                           latc	equ	0F8Bh
  3051                           latd	equ	0F8Ch
  3052                           late	equ	0F8Dh
  3053                           trisa	equ	0F92h
  3054                           trisb	equ	0F93h
  3055                           trisc	equ	0F94h
  3056                           trisd	equ	0F95h
  3057                           trise	equ	0F96h
  3058                           pie1	equ	0F9Dh
  3059                           pir1	equ	0F9Eh
  3060                           ipr1	equ	0F9Fh
  3061                           pie2	equ	0FA0h
  3062                           pir2	equ	0FA1h
  3063                           ipr2	equ	0FA2h
  3064                           t3con	equ	0FB1h
  3065                           tmr3l	equ	0FB2h
  3066                           tmr3h	equ	0FB3h
  3067                           ccp1con	equ	0FBDh
  3068                           ccpr1l	equ	0FBEh
  3069                           ccpr1h	equ	0FBFh
  3070  001C22                     __ptext6:
  3071                           opt subtitle "HI-TECH Software Omniscient Code Generator (Lite mode) build 49521"
  3072                           
  3073                           opt pagewidth 120
  3074                           
  3075  0000                     	__size_of_ctrl_lcd_cursor	equ	__end_of_ctrl_lcd_cursor-_ctrl_lcd_cursor
  3076                           opt subtitle "HI-TECH Software Omniscient Code Generator (Lite mode) build 49521"
  3077  001C22                     _ctrl_lcd_cursor:
  3078                           opt subtitle "HI-TECH Software Omniscient Code Generator (Lite mode) build 49521"
  3079                           
  3080                           opt pagewidth 120
  3081  001C22                     l1840:
  3082                           opt subtitle "HI-TECH Software Omniscient Code Generator (Lite mode) build 49521"
  3083  001C22  EE20  F031         	lfsr	2,(ctrl_lcd_cursor@F7238)
  3084  001C26  EE10  F060         	lfsr	1,(ctrl_lcd_cursor@comando)
  3085  001C2A  0E05               	movlw	5
  3086  001C2C                     u1161:
  3087  001C2C  CFDE FFE6          	movff	postinc2,postinc1
  3088  001C30  2EE8               	decfsz	wreg
  3089  001C32  D7FC               	goto	u1161
  3090                           opt subtitle "HI-TECH Software Omniscient Code Generator (Lite mode) build 49521"
  3091                           
  3092  001C34                     l1842:
  3093                           opt subtitle "HI-TECH Software Omniscient Code Generator (Lite mode) build 49521"
  3094  001C34  502F               	movf	((c:ctrl_lcd_cursor@controle)),c,w
  3095  001C36  0D01               	mullw	01h
  3096  001C38  0100               	movlb	0	; () banked
  3097  001C3A  0E60               	movlw	low(ctrl_lcd_cursor@comando)
  3098  001C3C  24F3               	addwf	(prodl),c,w
  3099  001C3E  6ED9               	movwf	c:fsr2l
  3100  001C40  0100               	movlb	0	; () banked
  3101  001C42  0E00               	movlw	high(ctrl_lcd_cursor@comando)
  3102  001C44  20F4               	addwfc	prod+1,w
  3103  001C46  6EDA               	movwf	1+c:fsr2l
  3104  001C48  50DF               	movf	indf2,w
  3105  001C4A  6E29               	movwf	((c:?_envia_lcd)),c
  3106  001C4C  6E30               	movwf	(??_ctrl_lcd_cursor+0+0)&0ffh,c
  3107  001C4E  0E00               	movlw	low(0)
  3108  001C50  6E2A               	movwf	(0+((c:?_envia_lcd)+01h)),c
  3109  001C52  5030               	movf	(??_ctrl_lcd_cursor+0+0)&0ffh,c,w
  3110  001C54  0E00               	movlw	high(028h)
  3111  001C56  6E2C               	movwf	(1+((c:?_envia_lcd)+02h)),c
  3112  001C58  0E28               	movlw	low(028h)
  3113  001C5A  6E2B               	movwf	(0+((c:?_envia_lcd)+02h)),c
  3114  001C5C  EC58  F00C         	call	_envia_lcd	;wreg free
  3115                           opt subtitle "HI-TECH Software Omniscient Code Generator (Lite mode) build 49521"
  3116                           
  3117  001C60                     l121:
  3118  001C60  0012               	return
  3119                           opt subtitle "HI-TECH Software Omniscient Code Generator (Lite mode) build 49521"
  3120                           
  3121  001C62                     	__end_of_ctrl_lcd_cursor:
  3122                           opt subtitle "HI-TECH Software Omniscient Code Generator (Lite mode) build 49521"
  3123                           
  3124                           opt pagewidth 120
  3125                           
  3126                           	opt lm
  3127                           
  3128                           	processor	18F8622
  3129                           porta	equ	0F80h
  3130                           portb	equ	0F81h
  3131                           portc	equ	0F82h
  3132                           portd	equ	0F83h
  3133                           porte	equ	0F84h
  3134                           lata	equ	0F89h
  3135                           latb	equ	0F8Ah
  3136                           latc	equ	0F8Bh
  3137                           latd	equ	0F8Ch
  3138                           late	equ	0F8Dh
  3139                           trisa	equ	0F92h
  3140                           trisb	equ	0F93h
  3141                           trisc	equ	0F94h
  3142                           trisd	equ	0F95h
  3143                           trise	equ	0F96h
  3144                           pie1	equ	0F9Dh
  3145                           pir1	equ	0F9Eh
  3146                           ipr1	equ	0F9Fh
  3147                           pie2	equ	0FA0h
  3148                           pir2	equ	0FA1h
  3149                           ipr2	equ	0FA2h
  3150                           t3con	equ	0FB1h
  3151                           tmr3l	equ	0FB2h
  3152                           tmr3h	equ	0FB3h
  3153                           ccp1con	equ	0FBDh
  3154                           ccpr1l	equ	0FBEh
  3155                           ccpr1h	equ	0FBFh
  3156                           adcon1	equ	0FC1h
  3157                           adcon0	equ	0FC2h
  3158                           adresl	equ	0FC3h
  3159                           adresh	equ	0FC4h
  3160                           sspcon2	equ	0FC5h
  3161                           sspcon1	equ	0FC6h
  3162                           sspstat	equ	0FC7h
  3163                           sspadd	equ	0FC8h
  3164                           sspbuf	equ	0FC9h
  3165  0018B0                     __ptext7:
  3166                           opt subtitle "HI-TECH Software Omniscient Code Generator (Lite mode) build 49521"
  3167                           
  3168                           opt pagewidth 120
  3169                           
  3170  0000                     	__size_of_envia_lcd	equ	__end_of_envia_lcd-_envia_lcd
  3171                           opt subtitle "HI-TECH Software Omniscient Code Generator (Lite mode) build 49521"
  3172  0018B0                     _envia_lcd:
  3173                           opt subtitle "HI-TECH Software Omniscient Code Generator (Lite mode) build 49521"
  3174                           
  3175                           opt pagewidth 120
  3176  0018B0                     l1806:
  3177                           opt subtitle "HI-TECH Software Omniscient Code Generator (Lite mode) build 49521"
  3178  0018B0  B02A               	btfsc	(c:envia_lcd@cmd_data),c,0
  3179  0018B2  D002               	bra	u1115
  3180  0018B4  9483               	bcf	((c:3971)),c,2	;volatile
  3181  0018B6  D001               	bra	u1116
  3182  0018B8                     	u1115:
  3183  0018B8  8483               	bsf	((c:3971)),c,2	;volatile
  3184  0018BA                     	u1116:
  3185                           opt subtitle "HI-TECH Software Omniscient Code Generator (Lite mode) build 49521"
  3186                           
  3187                           opt pagewidth 120
  3188  0018BA                     l1808:
  3189                           opt subtitle "HI-TECH Software Omniscient Code Generator (Lite mode) build 49521"
  3190  0018BA  6A2D               	clrf	(??_envia_lcd+0+0)&0ffh,c
  3191  0018BC  AE29               	btfss	((c:envia_lcd@byte)),c,7
  3192  0018BE  D001               	bra	u1125
  3193  0018C0  2A2D               	incf	(??_envia_lcd+0+0)&0ffh,c
  3194  0018C2                     	u1125:
  3195  0018C2  322D               	rrcf	(??_envia_lcd+0+0),c
  3196  0018C4  322D               	rrcf	(??_envia_lcd+0+0),c
  3197  0018C6  5083               	movf	((c:3971)),c,w	;volatile
  3198  0018C8  182D               	xorwf	(??_envia_lcd+0+0),c,w
  3199  0018CA  0B7F               	andlw	not (((1<<1)-1)<<7)
  3200  0018CC  182D               	xorwf	(??_envia_lcd+0+0),c,w
  3201  0018CE  6E83               	movwf	((c:3971)),c	;volatile
  3202                           opt subtitle "HI-TECH Software Omniscient Code Generator (Lite mode) build 49521"
  3203                           
  3204  0018D0  C029  F02D         	movff	(c:envia_lcd@byte),??_envia_lcd+0+0
  3205  0018D4  0E06               	movlw	06h
  3206  0018D6  6E2E               	movwf	(??_envia_lcd+1+0)&0ffh,c
  3207  0018D8                     u1135:
  3208  0018D8  90D8               	bcf	status,0
  3209  0018DA  322D               	rrcf	(??_envia_lcd+0+0),c
  3210  0018DC  2E2E               	decfsz	(??_envia_lcd+1+0)&0ffh,c
  3211  0018DE  D7FC               	goto	u1135
  3212  0018E0  3A2D               	swapf	(??_envia_lcd+0+0),c
  3213  0018E2  462D               	rlncf	(??_envia_lcd+0+0),c
  3214  0018E4  462D               	rlncf	(??_envia_lcd+0+0),c
  3215  0018E6  5083               	movf	((c:3971)),c,w	;volatile
  3216  0018E8  182D               	xorwf	(??_envia_lcd+0+0),c,w
  3217  0018EA  0BBF               	andlw	not (((1<<1)-1)<<6)
  3218  0018EC  182D               	xorwf	(??_envia_lcd+0+0),c,w
  3219  0018EE  6E83               	movwf	((c:3971)),c	;volatile
  3220                           opt subtitle "HI-TECH Software Omniscient Code Generator (Lite mode) build 49521"
  3221                           
  3222  0018F0  C029  F02D         	movff	(c:envia_lcd@byte),??_envia_lcd+0+0
  3223  0018F4  0E05               	movlw	05h
  3224  0018F6  6E2E               	movwf	(??_envia_lcd+1+0)&0ffh,c
  3225  0018F8                     u1145:
  3226  0018F8  90D8               	bcf	status,0
  3227  0018FA  322D               	rrcf	(??_envia_lcd+0+0),c
  3228  0018FC  2E2E               	decfsz	(??_envia_lcd+1+0)&0ffh,c
  3229  0018FE  D7FC               	goto	u1145
  3230  001900  3A2D               	swapf	(??_envia_lcd+0+0),c
  3231  001902  462D               	rlncf	(??_envia_lcd+0+0),c
  3232  001904  5083               	movf	((c:3971)),c,w	;volatile
  3233  001906  182D               	xorwf	(??_envia_lcd+0+0),c,w
  3234  001908  0BDF               	andlw	not (((1<<1)-1)<<5)
  3235  00190A  182D               	xorwf	(??_envia_lcd+0+0),c,w
  3236  00190C  6E83               	movwf	((c:3971)),c	;volatile
  3237                           opt subtitle "HI-TECH Software Omniscient Code Generator (Lite mode) build 49521"
  3238                           
  3239  00190E  C029  F02D         	movff	(c:envia_lcd@byte),??_envia_lcd+0+0
  3240  001912  3A2D               	swapf	(??_envia_lcd+0+0),c
  3241  001914  0E0F               	movlw	(0ffh shr 4) & 0ffh
  3242  001916  162D               	andwf	(??_envia_lcd+0+0),c
  3243  001918  3A2D               	swapf	(??_envia_lcd+0+0),c
  3244  00191A  5083               	movf	((c:3971)),c,w	;volatile
  3245  00191C  182D               	xorwf	(??_envia_lcd+0+0),c,w
  3246  00191E  0BEF               	andlw	not (((1<<1)-1)<<4)
  3247  001920  182D               	xorwf	(??_envia_lcd+0+0),c,w
  3248  001922  6E83               	movwf	((c:3971)),c	;volatile
  3249                           opt subtitle "HI-TECH Software Omniscient Code Generator (Lite mode) build 49521"
  3250                           
  3251  001924                     l1810:
  3252                           opt subtitle "HI-TECH Software Omniscient Code Generator (Lite mode) build 49521"
  3253  001924  8683               	bsf	((c:3971)),c,3	;volatile
  3254                           opt subtitle "HI-TECH Software Omniscient Code Generator (Lite mode) build 49521"
  3255  001926                     l1812:
  3256  001926  0E00               	movlw	high(02h)
  3257  001928  6E28               	movwf	((c:?_tempo_us+1)),c
  3258  00192A  0E02               	movlw	low(02h)
  3259  00192C  6E27               	movwf	((c:?_tempo_us)),c
  3260  00192E  ECD6  F00B         	call	_tempo_us	;wreg free
  3261                           opt subtitle "HI-TECH Software Omniscient Code Generator (Lite mode) build 49521"
  3262  001932                     l1814:
  3263  001932  9683               	bcf	((c:3971)),c,3	;volatile
  3264                           opt subtitle "HI-TECH Software Omniscient Code Generator (Lite mode) build 49521"
  3265                           
  3266  001934                     l1816:
  3267                           opt subtitle "HI-TECH Software Omniscient Code Generator (Lite mode) build 49521"
  3268  001934  C029  F02D         	movff	(c:envia_lcd@byte),??_envia_lcd+0+0
  3269  001938  90D8               	bcf	status,0
  3270  00193A  322D               	rrcf	(??_envia_lcd+0+0),c
  3271  00193C  90D8               	bcf	status,0
  3272  00193E  322D               	rrcf	(??_envia_lcd+0+0),c
  3273  001940  90D8               	bcf	status,0
  3274  001942  322D               	rrcf	(??_envia_lcd+0+0),c
  3275                           opt subtitle "HI-TECH Software Omniscient Code Generator (Lite mode) build 49521"
  3276  001944  322D               	rrcf	(??_envia_lcd+0+0),c
  3277  001946  322D               	rrcf	(??_envia_lcd+0+0),c
  3278  001948  5083               	movf	((c:3971)),c,w	;volatile
  3279  00194A  182D               	xorwf	(??_envia_lcd+0+0),c,w
  3280  00194C  0B7F               	andlw	not (((1<<1)-1)<<7)
  3281  00194E  182D               	xorwf	(??_envia_lcd+0+0),c,w
  3282  001950  6E83               	movwf	((c:3971)),c	;volatile
  3283                           opt subtitle "HI-TECH Software Omniscient Code Generator (Lite mode) build 49521"
  3284                           
  3285  001952                     l1818:
  3286                           opt subtitle "HI-TECH Software Omniscient Code Generator (Lite mode) build 49521"
  3287  001952  C029  F02D         	movff	(c:envia_lcd@byte),??_envia_lcd+0+0
  3288  001956  90D8               	bcf	status,0
  3289  001958  322D               	rrcf	(??_envia_lcd+0+0),c
  3290  00195A  90D8               	bcf	status,0
  3291  00195C  322D               	rrcf	(??_envia_lcd+0+0),c
  3292                           opt subtitle "HI-TECH Software Omniscient Code Generator (Lite mode) build 49521"
  3293  00195E  3A2D               	swapf	(??_envia_lcd+0+0),c
  3294  001960  462D               	rlncf	(??_envia_lcd+0+0),c
  3295  001962  462D               	rlncf	(??_envia_lcd+0+0),c
  3296  001964  5083               	movf	((c:3971)),c,w	;volatile
  3297  001966  182D               	xorwf	(??_envia_lcd+0+0),c,w
  3298  001968  0BBF               	andlw	not (((1<<1)-1)<<6)
  3299  00196A  182D               	xorwf	(??_envia_lcd+0+0),c,w
  3300  00196C  6E83               	movwf	((c:3971)),c	;volatile
  3301                           opt subtitle "HI-TECH Software Omniscient Code Generator (Lite mode) build 49521"
  3302                           
  3303  00196E                     l1820:
  3304                           opt subtitle "HI-TECH Software Omniscient Code Generator (Lite mode) build 49521"
  3305  00196E  C029  F02D         	movff	(c:envia_lcd@byte),??_envia_lcd+0+0
  3306  001972  90D8               	bcf	status,0
  3307  001974  322D               	rrcf	(??_envia_lcd+0+0),c
  3308                           opt subtitle "HI-TECH Software Omniscient Code Generator (Lite mode) build 49521"
  3309  001976  3A2D               	swapf	(??_envia_lcd+0+0),c
  3310  001978  462D               	rlncf	(??_envia_lcd+0+0),c
  3311  00197A  5083               	movf	((c:3971)),c,w	;volatile
  3312  00197C  182D               	xorwf	(??_envia_lcd+0+0),c,w
  3313  00197E  0BDF               	andlw	not (((1<<1)-1)<<5)
  3314  001980  182D               	xorwf	(??_envia_lcd+0+0),c,w
  3315  001982  6E83               	movwf	((c:3971)),c	;volatile
  3316                           opt subtitle "HI-TECH Software Omniscient Code Generator (Lite mode) build 49521"
  3317                           
  3318  001984                     l1822:
  3319                           opt subtitle "HI-TECH Software Omniscient Code Generator (Lite mode) build 49521"
  3320  001984  B029               	btfsc	(c:envia_lcd@byte),c,0
  3321  001986  D002               	bra	u1155
  3322  001988  9883               	bcf	((c:3971)),c,4	;volatile
  3323  00198A  D001               	bra	u1156
  3324  00198C                     	u1155:
  3325  00198C  8883               	bsf	((c:3971)),c,4	;volatile
  3326  00198E                     	u1156:
  3327                           opt subtitle "HI-TECH Software Omniscient Code Generator (Lite mode) build 49521"
  3328                           
  3329                           opt pagewidth 120
  3330  00198E                     l1824:
  3331                           opt subtitle "HI-TECH Software Omniscient Code Generator (Lite mode) build 49521"
  3332  00198E  8683               	bsf	((c:3971)),c,3	;volatile
  3333  001990  0E00               	movlw	high(02h)
  3334  001992  6E28               	movwf	((c:?_tempo_us+1)),c
  3335  001994  0E02               	movlw	low(02h)
  3336  001996  6E27               	movwf	((c:?_tempo_us)),c
  3337  001998  ECD6  F00B         	call	_tempo_us	;wreg free
  3338                           opt subtitle "HI-TECH Software Omniscient Code Generator (Lite mode) build 49521"
  3339  00199C                     l1826:
  3340  00199C  9683               	bcf	((c:3971)),c,3	;volatile
  3341                           opt subtitle "HI-TECH Software Omniscient Code Generator (Lite mode) build 49521"
  3342                           
  3343  00199E  C02B  F027         	movff	(c:envia_lcd@delay),(c:?_tempo_us)
  3344  0019A2  C02C  F028         	movff	(c:envia_lcd@delay+1),(c:?_tempo_us+1)
  3345  0019A6  ECD6  F00B         	call	_tempo_us	;wreg free
  3346                           opt subtitle "HI-TECH Software Omniscient Code Generator (Lite mode) build 49521"
  3347                           
  3348  0019AA                     l100:
  3349  0019AA  0012               	return
  3350                           opt subtitle "HI-TECH Software Omniscient Code Generator (Lite mode) build 49521"
  3351                           
  3352  0019AC                     	__end_of_envia_lcd:
  3353                           opt subtitle "HI-TECH Software Omniscient Code Generator (Lite mode) build 49521"
  3354                           
  3355                           opt pagewidth 120
  3356                           
  3357                           	opt lm
  3358                           
  3359                           	processor	18F8622
  3360                           porta	equ	0F80h
  3361                           portb	equ	0F81h
  3362                           portc	equ	0F82h
  3363                           portd	equ	0F83h
  3364                           porte	equ	0F84h
  3365                           lata	equ	0F89h
  3366                           latb	equ	0F8Ah
  3367                           latc	equ	0F8Bh
  3368                           latd	equ	0F8Ch
  3369                           late	equ	0F8Dh
  3370                           trisa	equ	0F92h
  3371                           trisb	equ	0F93h
  3372                           trisc	equ	0F94h
  3373                           trisd	equ	0F95h
  3374                           trise	equ	0F96h
  3375                           pie1	equ	0F9Dh
  3376                           pir1	equ	0F9Eh
  3377                           ipr1	equ	0F9Fh
  3378                           pie2	equ	0FA0h
  3379                           pir2	equ	0FA1h
  3380                           ipr2	equ	0FA2h
  3381                           t3con	equ	0FB1h
  3382                           tmr3l	equ	0FB2h
  3383                           tmr3h	equ	0FB3h
  3384                           ccp1con	equ	0FBDh
  3385                           ccpr1l	equ	0FBEh
  3386                           ccpr1h	equ	0FBFh
  3387                           adcon1	equ	0FC1h
  3388  0017AC                     __ptext8:
  3389                           opt subtitle "HI-TECH Software Omniscient Code Generator (Lite mode) build 49521"
  3390                           
  3391                           opt pagewidth 120
  3392                           
  3393  0000                     	__size_of_tempo_us	equ	__end_of_tempo_us-_tempo_us
  3394                           opt subtitle "HI-TECH Software Omniscient Code Generator (Lite mode) build 49521"
  3395  0017AC                     _tempo_us:
  3396                           opt subtitle "HI-TECH Software Omniscient Code Generator (Lite mode) build 49521"
  3397                           
  3398                           opt pagewidth 120
  3399  0017AC                     l1766:
  3400                           opt subtitle "HI-TECH Software Omniscient Code Generator (Lite mode) build 49521"
  3401  0017AC  D074               	goto	l1804
  3402                           opt subtitle "HI-TECH Software Omniscient Code Generator (Lite mode) build 49521"
  3403                           
  3404  0017AE                     l1768:
  3405                           opt subtitle "HI-TECH Software Omniscient Code Generator (Lite mode) build 49521"
  3406                           
  3407  0017AE  D009               	goto	l74
  3408                           opt subtitle "HI-TECH Software Omniscient Code Generator (Lite mode) build 49521"
  3409  0017B0                     l75:
  3410                           opt subtitle "HI-TECH Software Omniscient Code Generator (Lite mode) build 49521"
  3411                           
  3412  0017B0                     l1770:
  3413                           opt subtitle "HI-TECH Software Omniscient Code Generator (Lite mode) build 49521"
  3414                           
  3415  0017B0  0E03               	movlw	3
  3416  0017B2                     u1487:
  3417  0017B2  2EE8               decfsz	wreg,f
  3418  0017B4  D7FE               	goto	u1487
  3419  0017B6  F000               	nop
  3420                           opt subtitle "HI-TECH Software Omniscient Code Generator (Lite mode) build 49521"
  3421                           
  3422                           opt pagewidth 120
  3423  0017B8                     l1772:
  3424                           opt subtitle "HI-TECH Software Omniscient Code Generator (Lite mode) build 49521"
  3425  0017B8  F000               	nop
  3426                           opt subtitle "HI-TECH Software Omniscient Code Generator (Lite mode) build 49521"
  3427                           
  3428  0017BA                     l1774:
  3429                           opt subtitle "HI-TECH Software Omniscient Code Generator (Lite mode) build 49521"
  3430  0017BA  F000               	nop
  3431                           opt subtitle "HI-TECH Software Omniscient Code Generator (Lite mode) build 49521"
  3432                           
  3433  0017BC                     l1776:
  3434                           opt subtitle "HI-TECH Software Omniscient Code Generator (Lite mode) build 49521"
  3435  0017BC  0627               	decf	((c:tempo_us@tempo)),c
  3436  0017BE  A0D8               	btfss	status,0
  3437  0017C0  0628               	decf	((c:tempo_us@tempo+1)),c
  3438                           opt subtitle "HI-TECH Software Omniscient Code Generator (Lite mode) build 49521"
  3439                           
  3440  0017C2                     l74:
  3441                           opt subtitle "HI-TECH Software Omniscient Code Generator (Lite mode) build 49521"
  3442  0017C2  5028               	movf	((c:tempo_us@tempo+1)),c,w
  3443  0017C4  0A80               	xorlw	80h
  3444  0017C6  0F80               	addlw	-((0)^80h)
  3445  0017C8  0E01               	movlw	01h
  3446  0017CA  B4D8               	btfsc	status,2
  3447  0017CC  5C27               	subwf	((c:tempo_us@tempo)),c,w
  3448  0017CE  B0D8               	btfsc	status,0
  3449  0017D0  D001               	goto	u1051
  3450  0017D2  D001               	goto	u1050
  3451  0017D4                     u1051:
  3452  0017D4  D7ED               	goto	l1770
  3453  0017D6                     u1050:
  3454  0017D6  D05F               	goto	l1804
  3455                           opt subtitle "HI-TECH Software Omniscient Code Generator (Lite mode) build 49521"
  3456  0017D8                     l76:
  3457  0017D8  D05E               	goto	l1804
  3458                           opt subtitle "HI-TECH Software Omniscient Code Generator (Lite mode) build 49521"
  3459                           
  3460  0017DA                     l73:
  3461                           opt subtitle "HI-TECH Software Omniscient Code Generator (Lite mode) build 49521"
  3462                           
  3463                           opt pagewidth 120
  3464                           
  3465  0017DA  D05D               	goto	l1804
  3466                           opt subtitle "HI-TECH Software Omniscient Code Generator (Lite mode) build 49521"
  3467                           
  3468  0017DC                     l1778:
  3469                           opt subtitle "HI-TECH Software Omniscient Code Generator (Lite mode) build 49521"
  3470                           
  3471  0017DC  D007               	goto	l78
  3472                           opt subtitle "HI-TECH Software Omniscient Code Generator (Lite mode) build 49521"
  3473  0017DE                     l79:
  3474                           opt subtitle "HI-TECH Software Omniscient Code Generator (Lite mode) build 49521"
  3475                           
  3476  0017DE                     l1780:
  3477                           opt subtitle "HI-TECH Software Omniscient Code Generator (Lite mode) build 49521"
  3478                           
  3479  0017DE  0E03               	movlw	3
  3480  0017E0                     u1497:
  3481  0017E0  2EE8               decfsz	wreg,f
  3482  0017E2  D7FE               	goto	u1497
  3483  0017E4  F000               	nop
  3484                           opt subtitle "HI-TECH Software Omniscient Code Generator (Lite mode) build 49521"
  3485                           
  3486                           opt pagewidth 120
  3487  0017E6                     l1782:
  3488                           opt subtitle "HI-TECH Software Omniscient Code Generator (Lite mode) build 49521"
  3489  0017E6  0627               	decf	((c:tempo_us@tempo)),c
  3490  0017E8  A0D8               	btfss	status,0
  3491  0017EA  0628               	decf	((c:tempo_us@tempo+1)),c
  3492                           opt subtitle "HI-TECH Software Omniscient Code Generator (Lite mode) build 49521"
  3493                           
  3494  0017EC                     l78:
  3495                           opt subtitle "HI-TECH Software Omniscient Code Generator (Lite mode) build 49521"
  3496  0017EC  5028               	movf	((c:tempo_us@tempo+1)),c,w
  3497  0017EE  0A80               	xorlw	80h
  3498  0017F0  0F80               	addlw	-((0)^80h)
  3499  0017F2  0E01               	movlw	01h
  3500  0017F4  B4D8               	btfsc	status,2
  3501  0017F6  5C27               	subwf	((c:tempo_us@tempo)),c,w
  3502  0017F8  B0D8               	btfsc	status,0
  3503  0017FA  D001               	goto	u1061
  3504  0017FC  D001               	goto	u1060
  3505  0017FE                     u1061:
  3506  0017FE  D7EF               	goto	l1780
  3507  001800                     u1060:
  3508  001800  D04A               	goto	l1804
  3509                           opt subtitle "HI-TECH Software Omniscient Code Generator (Lite mode) build 49521"
  3510  001802                     l80:
  3511  001802  D049               	goto	l1804
  3512                           opt subtitle "HI-TECH Software Omniscient Code Generator (Lite mode) build 49521"
  3513                           
  3514  001804                     l77:
  3515                           opt subtitle "HI-TECH Software Omniscient Code Generator (Lite mode) build 49521"
  3516                           
  3517                           opt pagewidth 120
  3518                           
  3519  001804  D048               	goto	l1804
  3520                           opt subtitle "HI-TECH Software Omniscient Code Generator (Lite mode) build 49521"
  3521                           
  3522  001806                     l1784:
  3523                           opt subtitle "HI-TECH Software Omniscient Code Generator (Lite mode) build 49521"
  3524                           
  3525  001806  D009               	goto	l1788
  3526                           opt subtitle "HI-TECH Software Omniscient Code Generator (Lite mode) build 49521"
  3527  001808                     l83:
  3528                           opt subtitle "HI-TECH Software Omniscient Code Generator (Lite mode) build 49521"
  3529                           
  3530                           opt pagewidth 120
  3531  001808  F000               	nop
  3532                           opt subtitle "HI-TECH Software Omniscient Code Generator (Lite mode) build 49521"
  3533                           
  3534  00180A  F000               	nop
  3535                           opt subtitle "HI-TECH Software Omniscient Code Generator (Lite mode) build 49521"
  3536                           
  3537  00180C  F000               	nop
  3538                           opt subtitle "HI-TECH Software Omniscient Code Generator (Lite mode) build 49521"
  3539                           
  3540  00180E  F000               	nop
  3541                           opt subtitle "HI-TECH Software Omniscient Code Generator (Lite mode) build 49521"
  3542                           
  3543  001810  F000               	nop
  3544                           opt subtitle "HI-TECH Software Omniscient Code Generator (Lite mode) build 49521"
  3545                           
  3546  001812                     l1786:
  3547                           opt subtitle "HI-TECH Software Omniscient Code Generator (Lite mode) build 49521"
  3548  001812  0627               	decf	((c:tempo_us@tempo)),c
  3549  001814  A0D8               	btfss	status,0
  3550  001816  0628               	decf	((c:tempo_us@tempo+1)),c
  3551  001818  D000               	goto	l1788
  3552                           opt subtitle "HI-TECH Software Omniscient Code Generator (Lite mode) build 49521"
  3553                           
  3554  00181A                     l82:
  3555                           opt subtitle "HI-TECH Software Omniscient Code Generator (Lite mode) build 49521"
  3556                           
  3557  00181A                     l1788:
  3558  00181A  5028               	movf	((c:tempo_us@tempo+1)),c,w
  3559  00181C  0A80               	xorlw	80h
  3560  00181E  0F80               	addlw	-((0)^80h)
  3561  001820  0E01               	movlw	01h
  3562  001822  B4D8               	btfsc	status,2
  3563  001824  5C27               	subwf	((c:tempo_us@tempo)),c,w
  3564  001826  B0D8               	btfsc	status,0
  3565  001828  D001               	goto	u1071
  3566  00182A  D001               	goto	u1070
  3567  00182C                     u1071:
  3568  00182C  D7ED               	goto	l83
  3569  00182E                     u1070:
  3570  00182E  D033               	goto	l1804
  3571                           opt subtitle "HI-TECH Software Omniscient Code Generator (Lite mode) build 49521"
  3572  001830                     l84:
  3573  001830  D032               	goto	l1804
  3574                           opt subtitle "HI-TECH Software Omniscient Code Generator (Lite mode) build 49521"
  3575                           
  3576  001832                     l81:
  3577                           opt subtitle "HI-TECH Software Omniscient Code Generator (Lite mode) build 49521"
  3578                           
  3579                           opt pagewidth 120
  3580                           
  3581  001832  D031               	goto	l1804
  3582                           opt subtitle "HI-TECH Software Omniscient Code Generator (Lite mode) build 49521"
  3583                           
  3584  001834                     l1790:
  3585                           opt subtitle "HI-TECH Software Omniscient Code Generator (Lite mode) build 49521"
  3586                           
  3587  001834  D008               	goto	l1794
  3588                           opt subtitle "HI-TECH Software Omniscient Code Generator (Lite mode) build 49521"
  3589  001836                     l87:
  3590                           opt subtitle "HI-TECH Software Omniscient Code Generator (Lite mode) build 49521"
  3591                           
  3592                           opt pagewidth 120
  3593  001836  F000               	nop
  3594                           opt subtitle "HI-TECH Software Omniscient Code Generator (Lite mode) build 49521"
  3595                           
  3596  001838  F000               	nop
  3597                           opt subtitle "HI-TECH Software Omniscient Code Generator (Lite mode) build 49521"
  3598                           
  3599  00183A  F000               	nop
  3600                           opt subtitle "HI-TECH Software Omniscient Code Generator (Lite mode) build 49521"
  3601                           
  3602  00183C  F000               	nop
  3603                           opt subtitle "HI-TECH Software Omniscient Code Generator (Lite mode) build 49521"
  3604                           
  3605  00183E                     l1792:
  3606                           opt subtitle "HI-TECH Software Omniscient Code Generator (Lite mode) build 49521"
  3607  00183E  0627               	decf	((c:tempo_us@tempo)),c
  3608  001840  A0D8               	btfss	status,0
  3609  001842  0628               	decf	((c:tempo_us@tempo+1)),c
  3610  001844  D000               	goto	l1794
  3611                           opt subtitle "HI-TECH Software Omniscient Code Generator (Lite mode) build 49521"
  3612                           
  3613  001846                     l86:
  3614                           opt subtitle "HI-TECH Software Omniscient Code Generator (Lite mode) build 49521"
  3615                           
  3616  001846                     l1794:
  3617  001846  5028               	movf	((c:tempo_us@tempo+1)),c,w
  3618  001848  0A80               	xorlw	80h
  3619  00184A  0F80               	addlw	-((0)^80h)
  3620  00184C  0E01               	movlw	01h
  3621  00184E  B4D8               	btfsc	status,2
  3622  001850  5C27               	subwf	((c:tempo_us@tempo)),c,w
  3623  001852  B0D8               	btfsc	status,0
  3624  001854  D001               	goto	u1081
  3625  001856  D001               	goto	u1080
  3626  001858                     u1081:
  3627  001858  D7EE               	goto	l87
  3628  00185A                     u1080:
  3629  00185A  D01D               	goto	l1804
  3630                           opt subtitle "HI-TECH Software Omniscient Code Generator (Lite mode) build 49521"
  3631  00185C                     l88:
  3632  00185C  D01C               	goto	l1804
  3633                           opt subtitle "HI-TECH Software Omniscient Code Generator (Lite mode) build 49521"
  3634                           
  3635  00185E                     l85:
  3636                           opt subtitle "HI-TECH Software Omniscient Code Generator (Lite mode) build 49521"
  3637                           
  3638                           opt pagewidth 120
  3639                           
  3640  00185E  D01B               	goto	l1804
  3641                           opt subtitle "HI-TECH Software Omniscient Code Generator (Lite mode) build 49521"
  3642                           
  3643  001860                     l1796:
  3644                           opt subtitle "HI-TECH Software Omniscient Code Generator (Lite mode) build 49521"
  3645                           
  3646  001860  D007               	goto	l1800
  3647                           opt subtitle "HI-TECH Software Omniscient Code Generator (Lite mode) build 49521"
  3648  001862                     l91:
  3649                           opt subtitle "HI-TECH Software Omniscient Code Generator (Lite mode) build 49521"
  3650                           
  3651                           opt pagewidth 120
  3652  001862  F000               	nop
  3653                           opt subtitle "HI-TECH Software Omniscient Code Generator (Lite mode) build 49521"
  3654                           
  3655  001864  F000               	nop
  3656                           opt subtitle "HI-TECH Software Omniscient Code Generator (Lite mode) build 49521"
  3657                           
  3658  001866  F000               	nop
  3659                           opt subtitle "HI-TECH Software Omniscient Code Generator (Lite mode) build 49521"
  3660                           
  3661  001868                     l1798:
  3662                           opt subtitle "HI-TECH Software Omniscient Code Generator (Lite mode) build 49521"
  3663  001868  0627               	decf	((c:tempo_us@tempo)),c
  3664  00186A  A0D8               	btfss	status,0
  3665  00186C  0628               	decf	((c:tempo_us@tempo+1)),c
  3666  00186E  D000               	goto	l1800
  3667                           opt subtitle "HI-TECH Software Omniscient Code Generator (Lite mode) build 49521"
  3668                           
  3669  001870                     l90:
  3670                           opt subtitle "HI-TECH Software Omniscient Code Generator (Lite mode) build 49521"
  3671                           
  3672  001870                     l1800:
  3673  001870  5028               	movf	((c:tempo_us@tempo+1)),c,w
  3674  001872  0A80               	xorlw	80h
  3675  001874  0F80               	addlw	-((0)^80h)
  3676  001876  0E01               	movlw	01h
  3677  001878  B4D8               	btfsc	status,2
  3678  00187A  5C27               	subwf	((c:tempo_us@tempo)),c,w
  3679  00187C  B0D8               	btfsc	status,0
  3680  00187E  D001               	goto	u1091
  3681  001880  D001               	goto	u1090
  3682  001882                     u1091:
  3683  001882  D7EF               	goto	l91
  3684  001884                     u1090:
  3685  001884  D008               	goto	l1804
  3686                           opt subtitle "HI-TECH Software Omniscient Code Generator (Lite mode) build 49521"
  3687  001886                     l92:
  3688  001886  D007               	goto	l1804
  3689                           opt subtitle "HI-TECH Software Omniscient Code Generator (Lite mode) build 49521"
  3690                           
  3691                           opt pagewidth 120
  3692                           
  3693                           	opt lm
  3694  001888                     l89:
  3695                           opt subtitle "HI-TECH Software Omniscient Code Generator (Lite mode) build 49521"
  3696                           
  3697                           opt pagewidth 120
  3698  001888  D006               	goto	l1804
  3699                           opt subtitle "HI-TECH Software Omniscient Code Generator (Lite mode) build 49521"
  3700  00188A                     l95:
  3701                           opt subtitle "HI-TECH Software Omniscient Code Generator (Lite mode) build 49521"
  3702                           
  3703                           opt pagewidth 120
  3704  00188A  F000               	nop
  3705                           opt subtitle "HI-TECH Software Omniscient Code Generator (Lite mode) build 49521"
  3706                           
  3707  00188C  F000               	nop
  3708                           opt subtitle "HI-TECH Software Omniscient Code Generator (Lite mode) build 49521"
  3709                           
  3710  00188E                     l1802:
  3711                           opt subtitle "HI-TECH Software Omniscient Code Generator (Lite mode) build 49521"
  3712  00188E  0627               	decf	((c:tempo_us@tempo)),c
  3713  001890  A0D8               	btfss	status,0
  3714  001892  0628               	decf	((c:tempo_us@tempo+1)),c
  3715  001894  D000               	goto	l1804
  3716                           opt subtitle "HI-TECH Software Omniscient Code Generator (Lite mode) build 49521"
  3717                           
  3718  001896                     l94:
  3719                           opt subtitle "HI-TECH Software Omniscient Code Generator (Lite mode) build 49521"
  3720                           
  3721  001896                     l1804:
  3722  001896  5028               	movf	((c:tempo_us@tempo+1)),c,w
  3723  001898  0A80               	xorlw	80h
  3724  00189A  0F80               	addlw	-((0)^80h)
  3725  00189C  0E01               	movlw	01h
  3726  00189E  B4D8               	btfsc	status,2
  3727  0018A0  5C27               	subwf	((c:tempo_us@tempo)),c,w
  3728  0018A2  B0D8               	btfsc	status,0
  3729  0018A4  D001               	goto	u1101
  3730  0018A6  D001               	goto	u1100
  3731  0018A8                     u1101:
  3732  0018A8  D7F0               	goto	l95
  3733  0018AA                     u1100:
  3734  0018AA  D001               	goto	l97
  3735                           opt subtitle "HI-TECH Software Omniscient Code Generator (Lite mode) build 49521"
  3736  0018AC                     l96:
  3737  0018AC  D000               	goto	l97
  3738                           opt subtitle "HI-TECH Software Omniscient Code Generator (Lite mode) build 49521"
  3739                           
  3740  0018AE                     l93:
  3741                           opt subtitle "HI-TECH Software Omniscient Code Generator (Lite mode) build 49521"
  3742                           
  3743  0018AE                     l97:
  3744  0018AE  0012               	return
  3745                           opt subtitle "HI-TECH Software Omniscient Code Generator (Lite mode) build 49521"
  3746                           
  3747  0018B0                     	__end_of_tempo_us:
  3748                           opt subtitle "HI-TECH Software Omniscient Code Generator (Lite mode) build 49521"
  3749                           
  3750                           opt pagewidth 120
  3751                           
  3752                           	opt lm
  3753                           
  3754                           	processor	18F8622
  3755                           porta	equ	0F80h
  3756                           portb	equ	0F81h
  3757                           portc	equ	0F82h
  3758                           portd	equ	0F83h
  3759                           porte	equ	0F84h
  3760                           lata	equ	0F89h
  3761                           latb	equ	0F8Ah
  3762                           latc	equ	0F8Bh
  3763                           latd	equ	0F8Ch
  3764                           late	equ	0F8Dh
  3765                           trisa	equ	0F92h
  3766                           trisb	equ	0F93h
  3767                           trisc	equ	0F94h
  3768                           trisd	equ	0F95h
  3769                           trise	equ	0F96h
  3770                           pie1	equ	0F9Dh
  3771                           pir1	equ	0F9Eh
  3772                           ipr1	equ	0F9Fh
  3773                           pie2	equ	0FA0h
  3774                           pir2	equ	0FA1h
  3775                           ipr2	equ	0FA2h
  3776                           t3con	equ	0FB1h
  3777                           tmr3l	equ	0FB2h
  3778                           tmr3h	equ	0FB3h
  3779                           ccp1con	equ	0FBDh
  3780                           ccpr1l	equ	0FBEh
  3781                           ccpr1h	equ	0FBFh
  3782                           adcon1	equ	0FC1h
  3783                           adcon0	equ	0FC2h
  3784  001BBE                     __ptext9:
  3785                           opt subtitle "HI-TECH Software Omniscient Code Generator (Lite mode) build 49521"
  3786                           
  3787                           opt pagewidth 120
  3788                           
  3789  0000                     	__size_of_OpenSPI1	equ	__end_of_OpenSPI1-_OpenSPI1
  3790                           opt subtitle "HI-TECH Software Omniscient Code Generator (Lite mode) build 49521"
  3791  001BBE                     _OpenSPI1:
  3792                           opt subtitle "HI-TECH Software Omniscient Code Generator (Lite mode) build 49521"
  3793                           
  3794                           opt pagewidth 120
  3795  001BBE                     l1586:
  3796  001BBE  0E3F               	movlw	(03Fh)&0ffh
  3797  001BC0  16C7               	andwf	((c:4039)),c	;volatile
  3798                           opt subtitle "HI-TECH Software Omniscient Code Generator (Lite mode) build 49521"
  3799                           
  3800  001BC2                     l1588:
  3801  001BC2  0E00               	movlw	low(0)
  3802  001BC4  6EC6               	movwf	((c:4038)),c	;volatile
  3803                           opt subtitle "HI-TECH Software Omniscient Code Generator (Lite mode) build 49521"
  3804                           
  3805  001BC6                     l1590:
  3806  001BC6  5027               	movf	((c:OpenSPI1@sync_mode)),c,w
  3807  001BC8  12C6               	iorwf	((c:4038)),c	;volatile
  3808                           opt subtitle "HI-TECH Software Omniscient Code Generator (Lite mode) build 49521"
  3809                           
  3810  001BCA                     l1592:
  3811  001BCA  5029               	movf	((c:OpenSPI1@smp_phase)),c,w
  3812  001BCC  12C7               	iorwf	((c:4039)),c	;volatile
  3813                           opt subtitle "HI-TECH Software Omniscient Code Generator (Lite mode) build 49521"
  3814  001BCE  D009               	goto	l1596
  3815                           opt subtitle "HI-TECH Software Omniscient Code Generator (Lite mode) build 49521"
  3816                           
  3817  001BD0                     l230:
  3818                           opt subtitle "HI-TECH Software Omniscient Code Generator (Lite mode) build 49521"
  3819  001BD0  8CC7               	bsf	((c:4039)),c,6	;volatile
  3820                           opt subtitle "HI-TECH Software Omniscient Code Generator (Lite mode) build 49521"
  3821  001BD2  D01B               	goto	l1600
  3822                           opt subtitle "HI-TECH Software Omniscient Code Generator (Lite mode) build 49521"
  3823                           
  3824  001BD4                     l232:
  3825                           opt subtitle "HI-TECH Software Omniscient Code Generator (Lite mode) build 49521"
  3826  001BD4  8CC7               	bsf	((c:4039)),c,6	;volatile
  3827                           opt subtitle "HI-TECH Software Omniscient Code Generator (Lite mode) build 49521"
  3828  001BD6  88C6               	bsf	((c:4038)),c,4	;volatile
  3829                           opt subtitle "HI-TECH Software Omniscient Code Generator (Lite mode) build 49521"
  3830  001BD8  D018               	goto	l1600
  3831                           opt subtitle "HI-TECH Software Omniscient Code Generator (Lite mode) build 49521"
  3832                           
  3833  001BDA                     l233:
  3834                           opt subtitle "HI-TECH Software Omniscient Code Generator (Lite mode) build 49521"
  3835  001BDA  88C6               	bsf	((c:4038)),c,4	;volatile
  3836                           opt subtitle "HI-TECH Software Omniscient Code Generator (Lite mode) build 49521"
  3837  001BDC  D016               	goto	l1600
  3838                           opt subtitle "HI-TECH Software Omniscient Code Generator (Lite mode) build 49521"
  3839                           
  3840  001BDE                     l234:
  3841                           opt subtitle "HI-TECH Software Omniscient Code Generator (Lite mode) build 49521"
  3842  001BDE  D015               	goto	l1600
  3843                           opt subtitle "HI-TECH Software Omniscient Code Generator (Lite mode) build 49521"
  3844                           
  3845  001BE0                     l1594:
  3846  001BE0  D014               	goto	l1600
  3847                           opt subtitle "HI-TECH Software Omniscient Code Generator (Lite mode) build 49521"
  3848                           
  3849  001BE2                     l229:
  3850                           opt subtitle "HI-TECH Software Omniscient Code Generator (Lite mode) build 49521"
  3851  001BE2                     l1596:
  3852  001BE2  5028               	movf	((c:OpenSPI1@bus_mode)),c,w
  3853                           opt subtitle "HI-TECH Software Omniscient Code Generator (Lite mode) build 49521"
  3854                           
  3855                           opt pagewidth 120
  3856                           
  3857                           	opt lm
  3858                           
  3859                           	processor	18F8622
  3860  001BE4  0A00               	xorlw	0^0	; case 0
  3861  001BE6  B4D8               	skipnz
  3862  001BE8  D7F3               	goto	l230
  3863  001BEA  0A02               	xorlw	2^0	; case 2
  3864  001BEC  B4D8               	skipnz
  3865  001BEE  D7F2               	goto	l232
  3866  001BF0  0A01               	xorlw	3^2	; case 3
  3867  001BF2  B4D8               	skipnz
  3868  001BF4  D7F2               	goto	l233
  3869  001BF6  D009               	goto	l1600
  3870                           opt subtitle "HI-TECH Software Omniscient Code Generator (Lite mode) build 49521"
  3871                           
  3872                           opt pagewidth 120
  3873  001BF8                     l231:
  3874                           opt subtitle "HI-TECH Software Omniscient Code Generator (Lite mode) build 49521"
  3875  001BF8  D008               	goto	l1600
  3876                           opt subtitle "HI-TECH Software Omniscient Code Generator (Lite mode) build 49521"
  3877                           
  3878  001BFA                     l236:
  3879                           opt subtitle "HI-TECH Software Omniscient Code Generator (Lite mode) build 49521"
  3880  001BFA  8E97               	bsf	((c:3991)),c,7	;volatile
  3881                           opt subtitle "HI-TECH Software Omniscient Code Generator (Lite mode) build 49521"
  3882  001BFC  8694               	bsf	((c:3988)),c,3	;volatile
  3883                           opt subtitle "HI-TECH Software Omniscient Code Generator (Lite mode) build 49521"
  3884  001BFE  D00D               	goto	l237
  3885                           opt subtitle "HI-TECH Software Omniscient Code Generator (Lite mode) build 49521"
  3886                           
  3887  001C00                     l238:
  3888                           opt subtitle "HI-TECH Software Omniscient Code Generator (Lite mode) build 49521"
  3889  001C00  8694               	bsf	((c:3988)),c,3	;volatile
  3890                           opt subtitle "HI-TECH Software Omniscient Code Generator (Lite mode) build 49521"
  3891  001C02  D00B               	goto	l237
  3892                           opt subtitle "HI-TECH Software Omniscient Code Generator (Lite mode) build 49521"
  3893                           
  3894  001C04                     l239:
  3895                           opt subtitle "HI-TECH Software Omniscient Code Generator (Lite mode) build 49521"
  3896  001C04  9694               	bcf	((c:3988)),c,3	;volatile
  3897                           opt subtitle "HI-TECH Software Omniscient Code Generator (Lite mode) build 49521"
  3898  001C06  D009               	goto	l237
  3899                           opt subtitle "HI-TECH Software Omniscient Code Generator (Lite mode) build 49521"
  3900                           
  3901  001C08                     l1598:
  3902  001C08  D008               	goto	l237
  3903                           opt subtitle "HI-TECH Software Omniscient Code Generator (Lite mode) build 49521"
  3904                           
  3905  001C0A                     l235:
  3906                           opt subtitle "HI-TECH Software Omniscient Code Generator (Lite mode) build 49521"
  3907  001C0A                     l1600:
  3908  001C0A  5027               	movf	((c:OpenSPI1@sync_mode)),c,w
  3909                           opt subtitle "HI-TECH Software Omniscient Code Generator (Lite mode) build 49521"
  3910                           
  3911                           opt pagewidth 120
  3912                           
  3913                           	opt lm
  3914                           
  3915                           	processor	18F8622
  3916  001C0C  0A04               	xorlw	4^0	; case 4
  3917  001C0E  B4D8               	skipnz
  3918  001C10  D7F4               	goto	l236
  3919  001C12  0A01               	xorlw	5^4	; case 5
  3920  001C14  B4D8               	skipnz
  3921  001C16  D7F4               	goto	l238
  3922  001C18  D7F5               	goto	l239
  3923                           opt subtitle "HI-TECH Software Omniscient Code Generator (Lite mode) build 49521"
  3924                           
  3925                           opt pagewidth 120
  3926  001C1A                     l237:
  3927                           opt subtitle "HI-TECH Software Omniscient Code Generator (Lite mode) build 49521"
  3928  001C1A  8894               	bsf	((c:3988)),c,4	;volatile
  3929                           opt subtitle "HI-TECH Software Omniscient Code Generator (Lite mode) build 49521"
  3930  001C1C  9A94               	bcf	((c:3988)),c,5	;volatile
  3931                           opt subtitle "HI-TECH Software Omniscient Code Generator (Lite mode) build 49521"
  3932                           
  3933  001C1E                     l1602:
  3934  001C1E  8AC6               	bsf	(0+(5/8)+(c:4038)),c,(5)&7	;volatile
  3935                           opt subtitle "HI-TECH Software Omniscient Code Generator (Lite mode) build 49521"
  3936                           
  3937  001C20                     l240:
  3938  001C20  0012               	return
  3939                           opt subtitle "HI-TECH Software Omniscient Code Generator (Lite mode) build 49521"
  3940                           
  3941  001C22                     	__end_of_OpenSPI1:
  3942                           opt subtitle "HI-TECH Software Omniscient Code Generator (Lite mode) build 49521"
  3943                           
  3944                           opt pagewidth 120
  3945                           
  3946                           	opt lm
  3947                           
  3948                           	processor	18F8622
  3949                           porta	equ	0F80h
  3950                           portb	equ	0F81h
  3951                           portc	equ	0F82h
  3952                           portd	equ	0F83h
  3953                           porte	equ	0F84h
  3954                           lata	equ	0F89h
  3955                           latb	equ	0F8Ah
  3956                           latc	equ	0F8Bh
  3957                           latd	equ	0F8Ch
  3958                           late	equ	0F8Dh
  3959                           trisa	equ	0F92h
  3960                           trisb	equ	0F93h
  3961                           trisc	equ	0F94h
  3962                           trisd	equ	0F95h
  3963                           trise	equ	0F96h
  3964                           pie1	equ	0F9Dh
  3965                           pir1	equ	0F9Eh
  3966                           ipr1	equ	0F9Fh
  3967                           pie2	equ	0FA0h
  3968                           pir2	equ	0FA1h
  3969                           ipr2	equ	0FA2h
  3970                           t3con	equ	0FB1h
  3971                           tmr3l	equ	0FB2h
  3972                           tmr3h	equ	0FB3h
  3973                           ccp1con	equ	0FBDh
  3974                           ccpr1l	equ	0FBEh
  3975                           ccpr1h	equ	0FBFh
  3976                           adcon1	equ	0FC1h
  3977                           adcon0	equ	0FC2h
  3978                           adresl	equ	0FC3h
  3979                           adresh	equ	0FC4h
  3980                           sspcon2	equ	0FC5h
  3981                           sspcon1	equ	0FC6h
  3982                           sspstat	equ	0FC7h
  3983                           sspadd	equ	0FC8h
  3984                           sspbuf	equ	0FC9h
  3985  001340                     __ptext10:
  3986                           opt subtitle "HI-TECH Software Omniscient Code Generator (Lite mode) build 49521"
  3987                           
  3988                           opt pagewidth 120
  3989                           
  3990  0000                     	__size_of_sprintf	equ	__end_of_sprintf-_sprintf
  3991                           opt subtitle "HI-TECH Software Omniscient Code Generator (Lite mode) build 49521"
  3992  001340                     _sprintf:
  3993                           opt subtitle "HI-TECH Software Omniscient Code Generator (Lite mode) build 49521"
  3994                           
  3995                           opt pagewidth 120
  3996  001340                     l2000:
  3997                           opt subtitle "HI-TECH Software Omniscient Code Generator (Lite mode) build 49521"
  3998                           
  3999                           opt pagewidth 120
  4000                           
  4001                           	opt lm
  4002                           
  4003                           	processor	18F8622
  4004                           porta	equ	0F80h
  4005                           portb	equ	0F81h
  4006                           portc	equ	0F82h
  4007                           portd	equ	0F83h
  4008                           porte	equ	0F84h
  4009  001340  0100               	movlb	0	; () banked
  4010  001342  0E00               	movlw	high(?_sprintf+04h)
  4011  001344  0100               	movlb	0	; () banked
  4012  001346  0100               	movlb	0	; () banked
  4013  001348  6F6D               	movwf	((sprintf@ap+1))&0ffh
  4014  00134A  0100               	movlb	0	; () banked
  4015  00134C  0E68               	movlw	low(?_sprintf+04h)
  4016  00134E  0100               	movlb	0	; () banked
  4017  001350  6F6C               	movwf	((sprintf@ap))&0ffh
  4018                           opt subtitle "HI-TECH Software Omniscient Code Generator (Lite mode) build 49521"
  4019                           
  4020  001352  D104               	goto	l2054
  4021                           opt subtitle "HI-TECH Software Omniscient Code Generator (Lite mode) build 49521"
  4022  001354                     l196:; BSR set to: 0
  4023                           opt subtitle "HI-TECH Software Omniscient Code Generator (Lite mode) build 49521"
  4024                           
  4025                           opt pagewidth 120
  4026  001354                     l2002:; BSR set to: 0
  4027                           opt subtitle "HI-TECH Software Omniscient Code Generator (Lite mode) build 49521"
  4028                           
  4029  001354  0100               	movlb	0	; () banked
  4030  001356  0100               	movlb	0	; () banked
  4031  001358  5175               	movf	((sprintf@c))&0ffh,w
  4032  00135A  0A25               	xorlw	37
  4033                           opt subtitle "HI-TECH Software Omniscient Code Generator (Lite mode) build 49521"
  4034  00135C  B4D8               	btfsc	status,2
  4035  00135E  D001               	goto	u1371
  4036  001360  D001               	goto	u1370
  4037  001362                     u1371:
  4038  001362  D00C               	goto	l2008
  4039  001364                     u1370:
  4040                           opt subtitle "HI-TECH Software Omniscient Code Generator (Lite mode) build 49521"
  4041                           
  4042  001364                     l2004:; BSR set to: 0
  4043                           opt subtitle "HI-TECH Software Omniscient Code Generator (Lite mode) build 49521"
  4044                           
  4045                           opt pagewidth 120
  4046  001364  C064  FFD9         	movff	(sprintf@sp),fsr2l
  4047  001368  C065  FFDA         	movff	(sprintf@sp+1),fsr2h
  4048  00136C  0100               	movlb	0	; () banked
  4049  00136E  C075  FFDF         	movff	(sprintf@c),indf2
  4050                           opt subtitle "HI-TECH Software Omniscient Code Generator (Lite mode) build 49521"
  4051                           
  4052  001372                     l2006:; BSR set to: 0
  4053                           opt subtitle "HI-TECH Software Omniscient Code Generator (Lite mode) build 49521"
  4054  001372  0100               	movlb	0	; () banked
  4055  001374  0100               	movlb	0	; () banked
  4056  001376  4B64               	infsnz	((sprintf@sp))&0ffh
  4057  001378  2B65               	incf	((sprintf@sp+1))&0ffh
  4058                           opt subtitle "HI-TECH Software Omniscient Code Generator (Lite mode) build 49521"
  4059                           
  4060  00137A  D0F0               	goto	l2054
  4061                           opt subtitle "HI-TECH Software Omniscient Code Generator (Lite mode) build 49521"
  4062                           
  4063  00137C                     l197:; BSR set to: 0
  4064                           opt subtitle "HI-TECH Software Omniscient Code Generator (Lite mode) build 49521"
  4065                           
  4066                           opt pagewidth 120
  4067  00137C                     l2008:; BSR set to: 0
  4068                           opt subtitle "HI-TECH Software Omniscient Code Generator (Lite mode) build 49521"
  4069                           
  4070                           opt pagewidth 120
  4071  00137C  0100               	movlb	0	; () banked
  4072  00137E  6F6A               	movwf	(??_sprintf+0+0)&0ffh
  4073  001380  0E00               	movlw	low(0)
  4074  001382  0100               	movlb	0	; () banked
  4075  001384  0100               	movlb	0	; () banked
  4076  001386  6F6E               	movwf	((sprintf@flag))&0ffh
  4077  001388  0100               	movlb	0	; () banked
  4078  00138A  516A               	movf	(??_sprintf+0+0)&0ffh,w
  4079                           opt subtitle "HI-TECH Software Omniscient Code Generator (Lite mode) build 49521"
  4080                           
  4081  00138C  D005               	goto	l2012
  4082                           opt subtitle "HI-TECH Software Omniscient Code Generator (Lite mode) build 49521"
  4083                           
  4084                           opt pagewidth 120
  4085  00138E                     l199:; BSR set to: 0
  4086                           opt subtitle "HI-TECH Software Omniscient Code Generator (Lite mode) build 49521"
  4087                           
  4088                           opt pagewidth 120
  4089  00138E  D104               	goto	l2056
  4090                           opt subtitle "HI-TECH Software Omniscient Code Generator (Lite mode) build 49521"
  4091                           
  4092                           opt pagewidth 120
  4093  001390                     l201:; BSR set to: 0
  4094                           opt subtitle "HI-TECH Software Omniscient Code Generator (Lite mode) build 49521"
  4095  001390  D026               	goto	l2014
  4096                           opt subtitle "HI-TECH Software Omniscient Code Generator (Lite mode) build 49521"
  4097                           
  4098  001392                     l202:; BSR set to: 0
  4099                           opt subtitle "HI-TECH Software Omniscient Code Generator (Lite mode) build 49521"
  4100                           
  4101                           opt pagewidth 120
  4102                           
  4103  001392  D025               	goto	l2014
  4104                           opt subtitle "HI-TECH Software Omniscient Code Generator (Lite mode) build 49521"
  4105                           
  4106                           opt pagewidth 120
  4107  001394                     l204:; BSR set to: 0
  4108                           opt subtitle "HI-TECH Software Omniscient Code Generator (Lite mode) build 49521"
  4109                           
  4110                           opt pagewidth 120
  4111  001394  D0E3               	goto	l2054
  4112                           opt subtitle "HI-TECH Software Omniscient Code Generator (Lite mode) build 49521"
  4113                           
  4114  001396                     l2010:; BSR set to: 0
  4115                           opt subtitle "HI-TECH Software Omniscient Code Generator (Lite mode) build 49521"
  4116                           
  4117  001396  D023               	goto	l2014
  4118                           opt subtitle "HI-TECH Software Omniscient Code Generator (Lite mode) build 49521"
  4119                           
  4120  001398                     l198:; BSR set to: 0
  4121                           opt subtitle "HI-TECH Software Omniscient Code Generator (Lite mode) build 49521"
  4122                           
  4123  001398                     l2012:; BSR set to: 0
  4124                           opt subtitle "HI-TECH Software Omniscient Code Generator (Lite mode) build 49521"
  4125  001398  0100               	movlb	0	; () banked
  4126  00139A  0100               	movlb	0	; () banked
  4127  00139C  5166               	movf	((sprintf@f))&0ffh,w
  4128  00139E  0100               	movlb	0	; () banked
  4129  0013A0  6F6A               	movwf	(??_sprintf+0+0)&0ffh
  4130  0013A2  0100               	movlb	0	; () banked
  4131  0013A4  0100               	movlb	0	; () banked
  4132  0013A6  5167               	movf	((sprintf@f+1))&0ffh,w
  4133  0013A8  0100               	movlb	0	; () banked
  4134  0013AA  6F6B               	movwf	1+(??_sprintf+0+0)&0ffh
  4135  0013AC  0100               	movlb	0	; () banked
  4136  0013AE  4B66               	infsnz	((sprintf@f))&0ffh
  4137  0013B0  2B67               	incf	((sprintf@f+1))&0ffh
  4138  0013B2  C06A  FFF6         	movff	??_sprintf+0+0,tblptrl
  4139  0013B6  C06B  FFF7         	movff	??_sprintf+0+1,tblptrh
  4140  0013BA  0E00               	movlw	low highword(__mediumconst)
  4141  0013BC  6EF8               	movwf	tblptru
  4142  0013BE  0008               	tblrd	*
  4143                           opt subtitle "HI-TECH Software Omniscient Code Generator (Lite mode) build 49521"
  4144  0013C0  0100               	movlb	0	; () banked
  4145  0013C2  CFF5 F075          	movff	tablat,(sprintf@c)
  4146  0013C6  0100               	movlb	0	; () banked
  4147  0013C8  5175               	movf	((sprintf@c))&0ffh,w
  4148                           opt subtitle "HI-TECH Software Omniscient Code Generator (Lite mode) build 49521"
  4149                           
  4150                           opt pagewidth 120
  4151                           
  4152                           	opt lm
  4153                           
  4154                           	processor	18F8622
  4155  0013CA  0A00               	xorlw	0^0	; case 0
  4156  0013CC  B4D8               	skipnz
  4157  0013CE  D0E4               	goto	l2056
  4158  0013D0  0A64               	xorlw	100^0	; case 100
  4159  0013D2  B4D8               	skipnz
  4160  0013D4  D004               	goto	l2014
  4161  0013D6  0A0D               	xorlw	105^100	; case 105
  4162  0013D8  B4D8               	skipnz
  4163  0013DA  D001               	goto	l2014
  4164  0013DC  D0BF               	goto	l2054
  4165                           opt subtitle "HI-TECH Software Omniscient Code Generator (Lite mode) build 49521"
  4166                           
  4167                           opt pagewidth 120
  4168  0013DE                     l203:; BSR set to: 0
  4169                           opt subtitle "HI-TECH Software Omniscient Code Generator (Lite mode) build 49521"
  4170                           
  4171                           opt pagewidth 120
  4172  0013DE                     l2014:; BSR set to: 0
  4173                           opt subtitle "HI-TECH Software Omniscient Code Generator (Lite mode) build 49521"
  4174                           
  4175                           opt pagewidth 120
  4176  0013DE  C06C  FFD9         	movff	(sprintf@ap),fsr2l
  4177  0013E2  C06D  FFDA         	movff	(sprintf@ap+1),fsr2h
  4178  0013E6  0100               	movlb	0	; () banked
  4179  0013E8  CFDE F070          	movff	postinc2,(sprintf@_val)
  4180  0013EC  0100               	movlb	0	; () banked
  4181  0013EE  CFDD F071          	movff	postdec2,(sprintf@_val+1)
  4182                           opt subtitle "HI-TECH Software Omniscient Code Generator (Lite mode) build 49521"
  4183  0013F2                     l2016:; BSR set to: 0
  4184                           opt subtitle "HI-TECH Software Omniscient Code Generator (Lite mode) build 49521"
  4185  0013F2  0E02               	movlw	02h
  4186  0013F4  0100               	movlb	0	; () banked
  4187  0013F6  0100               	movlb	0	; () banked
  4188  0013F8  276C               	addwf	((sprintf@ap))&0ffh
  4189  0013FA  0E00               	movlw	0
  4190  0013FC  0100               	movlb	0	; () banked
  4191  0013FE  236D               	addwfc	((sprintf@ap+1))&0ffh
  4192                           opt subtitle "HI-TECH Software Omniscient Code Generator (Lite mode) build 49521"
  4193                           
  4194  001400                     l2018:; BSR set to: 0
  4195                           opt subtitle "HI-TECH Software Omniscient Code Generator (Lite mode) build 49521"
  4196                           
  4197  001400  0100               	movlb	0	; () banked
  4198  001402  0100               	movlb	0	; () banked
  4199  001404  AF71               	btfss	((sprintf@_val+1))&0ffh,7
  4200  001406  D001               	goto	u1381
  4201  001408  D001               	goto	u1380
  4202  00140A                     u1381:
  4203  00140A  D00C               	goto	l2024
  4204  00140C                     u1380:
  4205                           opt subtitle "HI-TECH Software Omniscient Code Generator (Lite mode) build 49521"
  4206                           
  4207  00140C                     l2020:; BSR set to: 0
  4208                           opt subtitle "HI-TECH Software Omniscient Code Generator (Lite mode) build 49521"
  4209                           
  4210  00140C  0E03               	movlw	(03h)&0ffh
  4211  00140E  0100               	movlb	0	; () banked
  4212  001410  0100               	movlb	0	; () banked
  4213  001412  136E               	iorwf	((sprintf@flag))&0ffh
  4214                           opt subtitle "HI-TECH Software Omniscient Code Generator (Lite mode) build 49521"
  4215                           
  4216  001414                     l2022:; BSR set to: 0
  4217                           opt subtitle "HI-TECH Software Omniscient Code Generator (Lite mode) build 49521"
  4218                           
  4219  001414  0100               	movlb	0	; () banked
  4220  001416  0100               	movlb	0	; () banked
  4221  001418  6D70               	negf	((sprintf@_val))&0ffh
  4222  00141A  0100               	movlb	0	; () banked
  4223  00141C  1F71               	comf	((sprintf@_val+1))&0ffh
  4224  00141E  B0D8               	btfsc	status,0
  4225  001420  2B71               	incf	((sprintf@_val+1))&0ffh
  4226  001422  D000               	goto	l2024
  4227                           opt subtitle "HI-TECH Software Omniscient Code Generator (Lite mode) build 49521"
  4228                           
  4229  001424                     l205:; BSR set to: 0
  4230                           opt subtitle "HI-TECH Software Omniscient Code Generator (Lite mode) build 49521"
  4231                           
  4232                           opt pagewidth 120
  4233  001424                     l2024:; BSR set to: 0
  4234                           opt subtitle "HI-TECH Software Omniscient Code Generator (Lite mode) build 49521"
  4235                           
  4236                           opt pagewidth 120
  4237                           
  4238  001424  0100               	movlb	0	; () banked
  4239  001426  6F6A               	movwf	(??_sprintf+0+0)&0ffh
  4240  001428  0E01               	movlw	low(01h)
  4241  00142A  0100               	movlb	0	; () banked
  4242  00142C  0100               	movlb	0	; () banked
  4243  00142E  6F75               	movwf	((sprintf@c))&0ffh
  4244  001430  0100               	movlb	0	; () banked
  4245  001432  516A               	movf	(??_sprintf+0+0)&0ffh,w
  4246                           opt subtitle "HI-TECH Software Omniscient Code Generator (Lite mode) build 49521"
  4247  001434                     l2026:; BSR set to: 0
  4248                           opt subtitle "HI-TECH Software Omniscient Code Generator (Lite mode) build 49521"
  4249  001434  0100               	movlb	0	; () banked
  4250  001436  0100               	movlb	0	; () banked
  4251  001438  5175               	movf	((sprintf@c))&0ffh,w
  4252  00143A  0A05               	xorlw	5
  4253                           opt subtitle "HI-TECH Software Omniscient Code Generator (Lite mode) build 49521"
  4254  00143C  A4D8               	btfss	status,2
  4255  00143E  D001               	goto	u1391
  4256  001440  D001               	goto	u1390
  4257  001442                     u1391:
  4258  001442  D002               	goto	l2030
  4259  001444                     u1390:
  4260  001444  D030               	goto	l2038
  4261                           opt subtitle "HI-TECH Software Omniscient Code Generator (Lite mode) build 49521"
  4262  001446                     l2028:; BSR set to: 0
  4263                           opt subtitle "HI-TECH Software Omniscient Code Generator (Lite mode) build 49521"
  4264  001446  D02F               	goto	l2038
  4265                           opt subtitle "HI-TECH Software Omniscient Code Generator (Lite mode) build 49521"
  4266                           
  4267  001448                     l206:; BSR set to: 0
  4268                           opt subtitle "HI-TECH Software Omniscient Code Generator (Lite mode) build 49521"
  4269                           
  4270  001448                     l2030:; BSR set to: 0
  4271                           opt subtitle "HI-TECH Software Omniscient Code Generator (Lite mode) build 49521"
  4272                           
  4273  001448  0100               	movlb	0	; () banked
  4274  00144A  0100               	movlb	0	; () banked
  4275  00144C  5175               	movf	((sprintf@c))&0ffh,w
  4276  00144E  0D02               	mullw	02h
  4277  001450  0E00               	movlw	low((_dpowers))
  4278  001452  24F3               	addwf	(prodl),c,w
  4279  001454  6EF6               	movwf	tblptrl
  4280  001456  0E10               	movlw	high((_dpowers))
  4281  001458  20F4               	addwfc	(prodh),c,w
  4282  00145A  6EF7               	movwf	tblptrh
  4283  00145C  6AF8               	clrf	tblptru
  4284  00145E  0E00               	movlw	low highword(__mediumconst)
  4285  001460  22F8               	addwfc	tblptru
  4286  001462  0009               	tblrd	*+
  4287                           opt subtitle "HI-TECH Software Omniscient Code Generator (Lite mode) build 49521"
  4288  001464  CFF5 F06A          	movff	tablat,??_sprintf+0+0
  4289  001468  0009               	tblrd	*+
  4290                           opt subtitle "HI-TECH Software Omniscient Code Generator (Lite mode) build 49521"
  4291  00146A  CFF5 F06B          	movff	tablat,??_sprintf+0+0+1
  4292  00146E  0100               	movlb	0	; () banked
  4293  001470  516A               	movf	(??_sprintf+0+0)&0ffh,w
  4294  001472  0100               	movlb	0	; () banked
  4295  001474  0100               	movlb	0	; () banked
  4296  001476  5D70               	subwf	((sprintf@_val))&0ffh,w
  4297  001478  0100               	movlb	0	; () banked
  4298  00147A  516B               	movf	(??_sprintf+0+1)&0ffh,w
  4299  00147C  0100               	movlb	0	; () banked
  4300  00147E  0100               	movlb	0	; () banked
  4301  001480  5971               	subwfb	((sprintf@_val+1))&0ffh,w
  4302  001482  B0D8               	btfsc	status,0
  4303  001484  D001               	goto	u1401
  4304  001486  D001               	goto	u1400
  4305  001488                     u1401:
  4306  001488  D002               	goto	l2034
  4307  00148A                     u1400:
  4308  00148A  D00D               	goto	l2038
  4309                           opt subtitle "HI-TECH Software Omniscient Code Generator (Lite mode) build 49521"
  4310                           
  4311  00148C                     l2032:; BSR set to: 0
  4312                           opt subtitle "HI-TECH Software Omniscient Code Generator (Lite mode) build 49521"
  4313                           
  4314  00148C  D00C               	goto	l2038
  4315                           opt subtitle "HI-TECH Software Omniscient Code Generator (Lite mode) build 49521"
  4316  00148E                     l208:; BSR set to: 0
  4317                           opt subtitle "HI-TECH Software Omniscient Code Generator (Lite mode) build 49521"
  4318                           
  4319                           opt pagewidth 120
  4320  00148E                     l2034:; BSR set to: 0
  4321                           opt subtitle "HI-TECH Software Omniscient Code Generator (Lite mode) build 49521"
  4322  00148E  0100               	movlb	0	; () banked
  4323  001490  0100               	movlb	0	; () banked
  4324  001492  2B75               	incf	((sprintf@c))&0ffh
  4325                           opt subtitle "HI-TECH Software Omniscient Code Generator (Lite mode) build 49521"
  4326  001494                     l2036:; BSR set to: 0
  4327                           opt subtitle "HI-TECH Software Omniscient Code Generator (Lite mode) build 49521"
  4328  001494  0100               	movlb	0	; () banked
  4329  001496  0100               	movlb	0	; () banked
  4330  001498  5175               	movf	((sprintf@c))&0ffh,w
  4331  00149A  0A05               	xorlw	5
  4332                           opt subtitle "HI-TECH Software Omniscient Code Generator (Lite mode) build 49521"
  4333  00149C  A4D8               	btfss	status,2
  4334  00149E  D001               	goto	u1411
  4335  0014A0  D001               	goto	u1410
  4336  0014A2                     u1411:
  4337  0014A2  D7D2               	goto	l2030
  4338  0014A4                     u1410:
  4339  0014A4  D000               	goto	l2038
  4340                           opt subtitle "HI-TECH Software Omniscient Code Generator (Lite mode) build 49521"
  4341  0014A6                     l207:; BSR set to: 0
  4342                           opt subtitle "HI-TECH Software Omniscient Code Generator (Lite mode) build 49521"
  4343                           
  4344                           opt pagewidth 120
  4345  0014A6                     l2038:; BSR set to: 0
  4346                           opt subtitle "HI-TECH Software Omniscient Code Generator (Lite mode) build 49521"
  4347                           
  4348                           opt pagewidth 120
  4349  0014A6  0100               	movlb	0	; () banked
  4350  0014A8  0100               	movlb	0	; () banked
  4351  0014AA  516E               	movf	((sprintf@flag))&0ffh,w
  4352  0014AC  0B03               	andlw	low(03h)
  4353  0014AE  B4D8               	btfsc	status,2
  4354  0014B0  D001               	goto	u1421
  4355  0014B2  D001               	goto	u1420
  4356  0014B4                     u1421:
  4357  0014B4  D00B               	goto	l2044
  4358  0014B6                     u1420:
  4359                           opt subtitle "HI-TECH Software Omniscient Code Generator (Lite mode) build 49521"
  4360                           
  4361  0014B6                     l2040:; BSR set to: 0
  4362                           opt subtitle "HI-TECH Software Omniscient Code Generator (Lite mode) build 49521"
  4363                           
  4364  0014B6  C064  FFD9         	movff	(sprintf@sp),fsr2l
  4365  0014BA  C065  FFDA         	movff	(sprintf@sp+1),fsr2h
  4366  0014BE  0E2D               	movlw	low(02Dh)
  4367  0014C0  6EDF               	movwf	indf2
  4368                           opt subtitle "HI-TECH Software Omniscient Code Generator (Lite mode) build 49521"
  4369  0014C2                     l2042:; BSR set to: 0
  4370                           opt subtitle "HI-TECH Software Omniscient Code Generator (Lite mode) build 49521"
  4371  0014C2  0100               	movlb	0	; () banked
  4372  0014C4  0100               	movlb	0	; () banked
  4373  0014C6  4B64               	infsnz	((sprintf@sp))&0ffh
  4374  0014C8  2B65               	incf	((sprintf@sp+1))&0ffh
  4375  0014CA  D000               	goto	l2044
  4376                           opt subtitle "HI-TECH Software Omniscient Code Generator (Lite mode) build 49521"
  4377  0014CC                     l209:; BSR set to: 0
  4378                           opt subtitle "HI-TECH Software Omniscient Code Generator (Lite mode) build 49521"
  4379                           
  4380                           opt pagewidth 120
  4381  0014CC                     l2044:; BSR set to: 0
  4382                           opt subtitle "HI-TECH Software Omniscient Code Generator (Lite mode) build 49521"
  4383                           
  4384                           opt pagewidth 120
  4385  0014CC  C075  F06F         	movff	(sprintf@c),(sprintf@prec)
  4386                           opt subtitle "HI-TECH Software Omniscient Code Generator (Lite mode) build 49521"
  4387                           
  4388  0014D0  D03A               	goto	l2052
  4389                           opt subtitle "HI-TECH Software Omniscient Code Generator (Lite mode) build 49521"
  4390  0014D2                     l211:; BSR set to: 0
  4391                           opt subtitle "HI-TECH Software Omniscient Code Generator (Lite mode) build 49521"
  4392                           
  4393                           opt pagewidth 120
  4394  0014D2                     l2046:; BSR set to: 0
  4395                           opt subtitle "HI-TECH Software Omniscient Code Generator (Lite mode) build 49521"
  4396                           
  4397                           opt pagewidth 120
  4398  0014D2  0100               	movlb	0	; () banked
  4399  0014D4  0100               	movlb	0	; () banked
  4400  0014D6  516F               	movf	((sprintf@prec))&0ffh,w
  4401  0014D8  0D02               	mullw	02h
  4402  0014DA  0E00               	movlw	low((_dpowers))
  4403  0014DC  24F3               	addwf	(prodl),c,w
  4404  0014DE  6EF6               	movwf	tblptrl
  4405  0014E0  0E10               	movlw	high((_dpowers))
  4406  0014E2  20F4               	addwfc	(prodh),c,w
  4407  0014E4  6EF7               	movwf	tblptrh
  4408  0014E6  6AF8               	clrf	tblptru
  4409  0014E8  0E00               	movlw	low highword(__mediumconst)
  4410  0014EA  22F8               	addwfc	tblptru
  4411  0014EC  0009               	tblrd*+
  4412                           opt subtitle "HI-TECH Software Omniscient Code Generator (Lite mode) build 49521"
  4413  0014EE  CFF5 F029          	movff	tablat,0+((c:?___lwdiv)+02h)
  4414  0014F2  000A               	tblrd*-
  4415                           opt subtitle "HI-TECH Software Omniscient Code Generator (Lite mode) build 49521"
  4416  0014F4  CFF5 F02A          	movff	tablat,1+((c:?___lwdiv)+02h)
  4417                           opt subtitle "HI-TECH Software Omniscient Code Generator (Lite mode) build 49521"
  4418  0014F8  C070  F027         	movff	(sprintf@_val),(c:?___lwdiv)
  4419  0014FC  C071  F028         	movff	(sprintf@_val+1),(c:?___lwdiv+1)
  4420  001500  EC76  F00D         	call	___lwdiv	;wreg free
  4421  001504  C027  F060         	movff	0+?___lwdiv,(?___lwmod)
  4422  001508  C028  F061         	movff	1+?___lwdiv,(?___lwmod+1)
  4423  00150C  0E00               	movlw	high(0Ah)
  4424  00150E  0100               	movlb	0	; () banked
  4425  001510  0100               	movlb	0	; () banked
  4426  001512  6F63               	movwf	(1+(?___lwmod+02h))&0ffh
  4427  001514  0E0A               	movlw	low(0Ah)
  4428  001516  0100               	movlb	0	; () banked
  4429  001518  6F62               	movwf	(0+(?___lwmod+02h))&0ffh
  4430  00151A  0100               	movlb	0	; () banked
  4431  00151C  EC2E  F00D         	call	___lwmod	;wreg free
  4432  001520  0100               	movlb	0	; () banked
  4433  001522  0100               	movlb	0	; () banked
  4434  001524  5160               	movf	(0+?___lwmod)&0ffh,w
  4435  001526  0F30               	addlw	low(030h)
  4436  001528  0100               	movlb	0	; () banked
  4437  00152A  0100               	movlb	0	; () banked
  4438  00152C  6F75               	movwf	((sprintf@c))&0ffh
  4439                           opt subtitle "HI-TECH Software Omniscient Code Generator (Lite mode) build 49521"
  4440                           
  4441  00152E                     l2048:; BSR set to: 0
  4442                           opt subtitle "HI-TECH Software Omniscient Code Generator (Lite mode) build 49521"
  4443                           
  4444                           opt pagewidth 120
  4445  00152E  C064  FFD9         	movff	(sprintf@sp),fsr2l
  4446  001532  C065  FFDA         	movff	(sprintf@sp+1),fsr2h
  4447  001536  0100               	movlb	0	; () banked
  4448  001538  C075  FFDF         	movff	(sprintf@c),indf2
  4449                           opt subtitle "HI-TECH Software Omniscient Code Generator (Lite mode) build 49521"
  4450                           
  4451  00153C                     l2050:; BSR set to: 0
  4452                           opt subtitle "HI-TECH Software Omniscient Code Generator (Lite mode) build 49521"
  4453  00153C  0100               	movlb	0	; () banked
  4454  00153E  0100               	movlb	0	; () banked
  4455  001540  4B64               	infsnz	((sprintf@sp))&0ffh
  4456  001542  2B65               	incf	((sprintf@sp+1))&0ffh
  4457  001544  D000               	goto	l2052
  4458                           opt subtitle "HI-TECH Software Omniscient Code Generator (Lite mode) build 49521"
  4459                           
  4460  001546                     l210:; BSR set to: 0
  4461                           opt subtitle "HI-TECH Software Omniscient Code Generator (Lite mode) build 49521"
  4462                           
  4463                           opt pagewidth 120
  4464  001546                     l2052:; BSR set to: 0
  4465                           opt subtitle "HI-TECH Software Omniscient Code Generator (Lite mode) build 49521"
  4466  001546  0100               	movlb	0	; () banked
  4467  001548  0100               	movlb	0	; () banked
  4468  00154A  076F               	decf	((sprintf@prec))&0ffh
  4469  00154C  0100               	movlb	0	; () banked
  4470  00154E  296F               	incf	((sprintf@prec))&0ffh,w
  4471                           opt subtitle "HI-TECH Software Omniscient Code Generator (Lite mode) build 49521"
  4472  001550  A4D8               	btfss	status,2
  4473  001552  D001               	goto	u1431
  4474  001554  D001               	goto	u1430
  4475  001556                     u1431:
  4476  001556  D7BD               	goto	l2046
  4477  001558                     u1430:
  4478  001558  D001               	goto	l2054
  4479                           opt subtitle "HI-TECH Software Omniscient Code Generator (Lite mode) build 49521"
  4480  00155A                     l212:; BSR set to: 0
  4481                           opt subtitle "HI-TECH Software Omniscient Code Generator (Lite mode) build 49521"
  4482  00155A  D000               	goto	l2054
  4483                           opt subtitle "HI-TECH Software Omniscient Code Generator (Lite mode) build 49521"
  4484                           
  4485  00155C                     l195:; BSR set to: 0
  4486                           opt subtitle "HI-TECH Software Omniscient Code Generator (Lite mode) build 49521"
  4487                           
  4488                           opt pagewidth 120
  4489  00155C                     l2054:; BSR set to: 0
  4490                           opt subtitle "HI-TECH Software Omniscient Code Generator (Lite mode) build 49521"
  4491  00155C  0100               	movlb	0	; () banked
  4492  00155E  0100               	movlb	0	; () banked
  4493  001560  5166               	movf	((sprintf@f))&0ffh,w
  4494  001562  0100               	movlb	0	; () banked
  4495  001564  6F6A               	movwf	(??_sprintf+0+0)&0ffh
  4496  001566  0100               	movlb	0	; () banked
  4497  001568  0100               	movlb	0	; () banked
  4498  00156A  5167               	movf	((sprintf@f+1))&0ffh,w
  4499  00156C  0100               	movlb	0	; () banked
  4500  00156E  6F6B               	movwf	1+(??_sprintf+0+0)&0ffh
  4501  001570  0100               	movlb	0	; () banked
  4502  001572  4B66               	infsnz	((sprintf@f))&0ffh
  4503  001574  2B67               	incf	((sprintf@f+1))&0ffh
  4504  001576  C06A  FFF6         	movff	??_sprintf+0+0,tblptrl
  4505  00157A  C06B  FFF7         	movff	??_sprintf+0+1,tblptrh
  4506  00157E  0E00               	movlw	low highword(__mediumconst)
  4507  001580  6EF8               	movwf	tblptru
  4508  001582  0008               	tblrd	*
  4509                           opt subtitle "HI-TECH Software Omniscient Code Generator (Lite mode) build 49521"
  4510  001584  0100               	movlb	0	; () banked
  4511  001586  CFF5 F075          	movff	tablat,(sprintf@c)
  4512  00158A  0100               	movlb	0	; () banked
  4513  00158C  6775               	tstfsz	((sprintf@c))&0ffh
  4514  00158E  D001               	goto	u1441
  4515  001590  D001               	goto	u1440
  4516  001592                     u1441:
  4517  001592  D6E0               	goto	l2002
  4518  001594                     u1440:
  4519  001594  D001               	goto	l2056
  4520                           opt subtitle "HI-TECH Software Omniscient Code Generator (Lite mode) build 49521"
  4521  001596                     l213:; BSR set to: 0
  4522                           opt subtitle "HI-TECH Software Omniscient Code Generator (Lite mode) build 49521"
  4523  001596  D000               	goto	l2056
  4524                           opt subtitle "HI-TECH Software Omniscient Code Generator (Lite mode) build 49521"
  4525                           
  4526                           opt pagewidth 120
  4527                           
  4528                           	opt lm
  4529  001598                     l200:; BSR set to: 0
  4530                           opt subtitle "HI-TECH Software Omniscient Code Generator (Lite mode) build 49521"
  4531                           
  4532                           opt pagewidth 120
  4533  001598                     l2056:; BSR set to: 0
  4534                           opt subtitle "HI-TECH Software Omniscient Code Generator (Lite mode) build 49521"
  4535                           
  4536  001598  C064  FFD9         	movff	(sprintf@sp),fsr2l
  4537  00159C  C065  FFDA         	movff	(sprintf@sp+1),fsr2h
  4538  0015A0  0E00               	movlw	low(0)
  4539  0015A2  6EDF               	movwf	indf2
  4540  0015A4  D000               	goto	l214
  4541                           opt subtitle "HI-TECH Software Omniscient Code Generator (Lite mode) build 49521"
  4542                           
  4543  0015A6                     l2058:; BSR set to: 0
  4544                           opt subtitle "HI-TECH Software Omniscient Code Generator (Lite mode) build 49521"
  4545                           
  4546                           opt pagewidth 120
  4547                           
  4548                           	opt lm
  4549  0015A6                     l214:; BSR set to: 0
  4550                           opt subtitle "HI-TECH Software Omniscient Code Generator (Lite mode) build 49521"
  4551  0015A6  0012               	return
  4552                           opt subtitle "HI-TECH Software Omniscient Code Generator (Lite mode) build 49521"
  4553                           
  4554  0015A8                     	__end_of_sprintf:
  4555                           opt subtitle "HI-TECH Software Omniscient Code Generator (Lite mode) build 49521"
  4556                           
  4557                           opt pagewidth 120
  4558                           
  4559                           	opt lm
  4560                           
  4561                           	processor	18F8622
  4562                           porta	equ	0F80h
  4563                           portb	equ	0F81h
  4564                           portc	equ	0F82h
  4565                           portd	equ	0F83h
  4566                           porte	equ	0F84h
  4567                           lata	equ	0F89h
  4568                           latb	equ	0F8Ah
  4569                           latc	equ	0F8Bh
  4570                           latd	equ	0F8Ch
  4571                           late	equ	0F8Dh
  4572                           trisa	equ	0F92h
  4573                           trisb	equ	0F93h
  4574                           trisc	equ	0F94h
  4575                           trisd	equ	0F95h
  4576                           trise	equ	0F96h
  4577                           pie1	equ	0F9Dh
  4578                           pir1	equ	0F9Eh
  4579                           ipr1	equ	0F9Fh
  4580                           pie2	equ	0FA0h
  4581                           pir2	equ	0FA1h
  4582                           ipr2	equ	0FA2h
  4583                           t3con	equ	0FB1h
  4584                           tmr3l	equ	0FB2h
  4585                           tmr3h	equ	0FB3h
  4586                           ccp1con	equ	0FBDh
  4587                           ccpr1l	equ	0FBEh
  4588                           ccpr1h	equ	0FBFh
  4589  001D32                     __ptext11:
  4590                           opt subtitle "HI-TECH Software Omniscient Code Generator (Lite mode) build 49521"
  4591                           
  4592                           opt pagewidth 120
  4593                           
  4594  0000                     	__size_of_Delay10KTCYx	equ	__end_of_Delay10KTCYx-_Delay10KTCYx
  4595                           opt subtitle "HI-TECH Software Omniscient Code Generator (Lite mode) build 49521"
  4596  001D32                     _Delay10KTCYx:; BSR set to: 0
  4597                           opt subtitle "HI-TECH Software Omniscient Code Generator (Lite mode) build 49521"
  4598                           
  4599                           opt pagewidth 120
  4600                           
  4601  001D32                     l790:
  4602                           opt subtitle "HI-TECH Software Omniscient Code Generator (Lite mode) build 49521"
  4603                           
  4604  001D32                     l1664:
  4605  001D32  0E0D               	movlw	13
  4606  001D34  6E28               movwf	(??_Delay10KTCYx+0+0)&0ffh,c,f
  4607  001D36  0EFB               	movlw	251
  4608  001D38                     u1507:
  4609  001D38  2EE8               	decfsz	wreg,f
  4610  001D3A  D7FE               	goto	u1507
  4611  001D3C  2E28               	decfsz	(??_Delay10KTCYx+0+0)&0ffh,c,f
  4612  001D3E  D7FC               	goto	u1507
  4613  001D40  D000               	nop2
  4614                           opt subtitle "HI-TECH Software Omniscient Code Generator (Lite mode) build 49521"
  4615                           
  4616                           opt pagewidth 120
  4617  001D42                     l1666:
  4618  001D42  2E27               	decfsz	((c:Delay10KTCYx@unit)),c
  4619                           opt subtitle "HI-TECH Software Omniscient Code Generator (Lite mode) build 49521"
  4620  001D44  D7F6               	goto	l790
  4621  001D46  D000               	goto	l792
  4622                           opt subtitle "HI-TECH Software Omniscient Code Generator (Lite mode) build 49521"
  4623  001D48                     l791:
  4624                           opt subtitle "HI-TECH Software Omniscient Code Generator (Lite mode) build 49521"
  4625                           
  4626  001D48                     l792:
  4627  001D48  0012               	return
  4628                           opt subtitle "HI-TECH Software Omniscient Code Generator (Lite mode) build 49521"
  4629                           
  4630  001D4A                     	__end_of_Delay10KTCYx:
  4631                           opt subtitle "HI-TECH Software Omniscient Code Generator (Lite mode) build 49521"
  4632                           
  4633                           opt pagewidth 120
  4634                           
  4635                           	opt lm
  4636                           
  4637                           	processor	18F8622
  4638                           porta	equ	0F80h
  4639                           portb	equ	0F81h
  4640                           portc	equ	0F82h
  4641                           portd	equ	0F83h
  4642                           porte	equ	0F84h
  4643                           lata	equ	0F89h
  4644                           latb	equ	0F8Ah
  4645                           latc	equ	0F8Bh
  4646                           latd	equ	0F8Ch
  4647                           late	equ	0F8Dh
  4648                           trisa	equ	0F92h
  4649                           trisb	equ	0F93h
  4650                           trisc	equ	0F94h
  4651                           trisd	equ	0F95h
  4652                           trise	equ	0F96h
  4653                           pie1	equ	0F9Dh
  4654                           pir1	equ	0F9Eh
  4655                           ipr1	equ	0F9Fh
  4656                           pie2	equ	0FA0h
  4657                           pir2	equ	0FA1h
  4658                           ipr2	equ	0FA2h
  4659                           t3con	equ	0FB1h
  4660                           tmr3l	equ	0FB2h
  4661                           tmr3h	equ	0FB3h
  4662                           ccp1con	equ	0FBDh
  4663                           ccpr1l	equ	0FBEh
  4664                           ccpr1h	equ	0FBFh
  4665                           adcon1	equ	0FC1h
  4666                           adcon0	equ	0FC2h
  4667  001AEC                     __ptext12:
  4668                           opt subtitle "HI-TECH Software Omniscient Code Generator (Lite mode) build 49521"
  4669                           
  4670                           opt pagewidth 120
  4671                           
  4672  0000                     	__size_of___lwdiv	equ	__end_of___lwdiv-___lwdiv
  4673                           opt subtitle "HI-TECH Software Omniscient Code Generator (Lite mode) build 49521"
  4674  001AEC                     ___lwdiv:
  4675                           opt subtitle "HI-TECH Software Omniscient Code Generator (Lite mode) build 49521"
  4676                           
  4677                           opt pagewidth 120
  4678  001AEC                     l1668:
  4679  001AEC  0E00               	movlw	high(0)
  4680  001AEE  6E2D               	movwf	((c:___lwdiv@quotient+1)),c
  4681  001AF0  0E00               	movlw	low(0)
  4682  001AF2  6E2C               	movwf	((c:___lwdiv@quotient)),c
  4683                           opt subtitle "HI-TECH Software Omniscient Code Generator (Lite mode) build 49521"
  4684                           
  4685  001AF4                     l1670:
  4686  001AF4  502A               	movf	((c:___lwdiv@divisor+1)),c,w
  4687  001AF6  1029               	iorwf ((c:___lwdiv@divisor)),c,w
  4688                           opt subtitle "HI-TECH Software Omniscient Code Generator (Lite mode) build 49521"
  4689  001AF8  B4D8               	btfsc	status,2
  4690  001AFA  D001               	goto	u931
  4691  001AFC  D001               	goto	u930
  4692  001AFE                     u931:
  4693  001AFE  D027               	goto	l701
  4694  001B00                     u930:
  4695                           opt subtitle "HI-TECH Software Omniscient Code Generator (Lite mode) build 49521"
  4696                           
  4697  001B00                     l1672:
  4698  001B00  6E2B               	movwf	(??___lwdiv+0+0)&0ffh,c
  4699  001B02  0E01               	movlw	low(01h)
  4700  001B04  6E2E               	movwf	((c:___lwdiv@counter)),c
  4701  001B06  502B               	movf	(??___lwdiv+0+0)&0ffh,c,w
  4702                           opt subtitle "HI-TECH Software Omniscient Code Generator (Lite mode) build 49521"
  4703  001B08  D005               	goto	l1676
  4704                           opt subtitle "HI-TECH Software Omniscient Code Generator (Lite mode) build 49521"
  4705  001B0A                     l703:
  4706                           opt subtitle "HI-TECH Software Omniscient Code Generator (Lite mode) build 49521"
  4707                           
  4708  001B0A                     l1674:
  4709  001B0A  90D8               	bcf	status,0
  4710  001B0C  3629               	rlcf	((c:___lwdiv@divisor)),c
  4711  001B0E  362A               	rlcf	((c:___lwdiv@divisor+1)),c
  4712                           opt subtitle "HI-TECH Software Omniscient Code Generator (Lite mode) build 49521"
  4713  001B10  2A2E               	incf	((c:___lwdiv@counter)),c
  4714  001B12  D000               	goto	l1676
  4715                           opt subtitle "HI-TECH Software Omniscient Code Generator (Lite mode) build 49521"
  4716                           
  4717  001B14                     l702:
  4718                           opt subtitle "HI-TECH Software Omniscient Code Generator (Lite mode) build 49521"
  4719                           
  4720  001B14                     l1676:
  4721                           opt subtitle "HI-TECH Software Omniscient Code Generator (Lite mode) build 49521"
  4722  001B14  AE2A               	btfss	((c:___lwdiv@divisor+1)),c,(15)&7
  4723  001B16  D001               	goto	u941
  4724  001B18  D001               	goto	u940
  4725  001B1A                     u941:
  4726  001B1A  D7F7               	goto	l1674
  4727  001B1C                     u940:
  4728  001B1C  D001               	goto	l1678
  4729                           opt subtitle "HI-TECH Software Omniscient Code Generator (Lite mode) build 49521"
  4730  001B1E                     l704:
  4731  001B1E  D000               	goto	l1678
  4732                           opt subtitle "HI-TECH Software Omniscient Code Generator (Lite mode) build 49521"
  4733                           
  4734  001B20                     l705:
  4735                           opt subtitle "HI-TECH Software Omniscient Code Generator (Lite mode) build 49521"
  4736                           
  4737  001B20                     l1678:
  4738  001B20  90D8               	bcf	status,0
  4739  001B22  362C               	rlcf	((c:___lwdiv@quotient)),c
  4740  001B24  362D               	rlcf	((c:___lwdiv@quotient+1)),c
  4741                           opt subtitle "HI-TECH Software Omniscient Code Generator (Lite mode) build 49521"
  4742                           
  4743  001B26                     l1680:
  4744  001B26  5029               	movf	((c:___lwdiv@divisor)),c,w
  4745  001B28  5C27               	subwf	((c:___lwdiv@dividend)),c,w
  4746  001B2A  502A               	movf	((c:___lwdiv@divisor+1)),c,w
  4747  001B2C  5828               	subwfb	((c:___lwdiv@dividend+1)),c,w
  4748  001B2E  A0D8               	btfss	status,0
  4749  001B30  D001               	goto	u951
  4750  001B32  D001               	goto	u950
  4751  001B34                     u951:
  4752  001B34  D006               	goto	l1686
  4753  001B36                     u950:
  4754                           opt subtitle "HI-TECH Software Omniscient Code Generator (Lite mode) build 49521"
  4755                           
  4756  001B36                     l1682:
  4757  001B36  5029               	movf	((c:___lwdiv@divisor)),c,w
  4758  001B38  5E27               	subwf	((c:___lwdiv@dividend)),c
  4759  001B3A  502A               	movf	((c:___lwdiv@divisor+1)),c,w
  4760  001B3C  5A28               	subwfb	((c:___lwdiv@dividend+1)),c
  4761                           opt subtitle "HI-TECH Software Omniscient Code Generator (Lite mode) build 49521"
  4762                           
  4763                           opt pagewidth 120
  4764  001B3E                     l1684:
  4765  001B3E  802C               	bsf	(0+(0/8)+(c:___lwdiv@quotient)),c,(0)&7
  4766  001B40  D000               	goto	l1686
  4767                           opt subtitle "HI-TECH Software Omniscient Code Generator (Lite mode) build 49521"
  4768                           
  4769  001B42                     l706:
  4770                           opt subtitle "HI-TECH Software Omniscient Code Generator (Lite mode) build 49521"
  4771                           
  4772  001B42                     l1686:
  4773  001B42  90D8               	bcf	status,0
  4774  001B44  322A               	rrcf	((c:___lwdiv@divisor+1)),c
  4775  001B46  3229               	rrcf	((c:___lwdiv@divisor)),c
  4776                           opt subtitle "HI-TECH Software Omniscient Code Generator (Lite mode) build 49521"
  4777                           
  4778  001B48                     l1688:
  4779  001B48  2E2E               	decfsz	((c:___lwdiv@counter)),c
  4780                           opt subtitle "HI-TECH Software Omniscient Code Generator (Lite mode) build 49521"
  4781  001B4A  D7EA               	goto	l1678
  4782  001B4C  D000               	goto	l701
  4783                           opt subtitle "HI-TECH Software Omniscient Code Generator (Lite mode) build 49521"
  4784  001B4E                     l707:
  4785                           opt subtitle "HI-TECH Software Omniscient Code Generator (Lite mode) build 49521"
  4786                           
  4787  001B4E                     l701:
  4788                           opt subtitle "HI-TECH Software Omniscient Code Generator (Lite mode) build 49521"
  4789  001B4E  C02C  F027         	movff	(c:___lwdiv@quotient),(c:?___lwdiv)
  4790  001B52  C02D  F028         	movff	(c:___lwdiv@quotient+1),(c:?___lwdiv+1)
  4791                           opt subtitle "HI-TECH Software Omniscient Code Generator (Lite mode) build 49521"
  4792                           
  4793  001B56                     l708:
  4794  001B56  0012               	return
  4795                           opt subtitle "HI-TECH Software Omniscient Code Generator (Lite mode) build 49521"
  4796                           
  4797  001B58                     	__end_of___lwdiv:
  4798                           opt subtitle "HI-TECH Software Omniscient Code Generator (Lite mode) build 49521"
  4799                           
  4800                           opt pagewidth 120
  4801                           
  4802                           	opt lm
  4803                           
  4804                           	processor	18F8622
  4805                           porta	equ	0F80h
  4806                           portb	equ	0F81h
  4807                           portc	equ	0F82h
  4808                           portd	equ	0F83h
  4809                           porte	equ	0F84h
  4810                           lata	equ	0F89h
  4811                           latb	equ	0F8Ah
  4812                           latc	equ	0F8Bh
  4813                           latd	equ	0F8Ch
  4814                           late	equ	0F8Dh
  4815                           trisa	equ	0F92h
  4816                           trisb	equ	0F93h
  4817                           trisc	equ	0F94h
  4818                           trisd	equ	0F95h
  4819                           trise	equ	0F96h
  4820                           pie1	equ	0F9Dh
  4821                           pir1	equ	0F9Eh
  4822                           ipr1	equ	0F9Fh
  4823                           pie2	equ	0FA0h
  4824                           pir2	equ	0FA1h
  4825                           ipr2	equ	0FA2h
  4826                           t3con	equ	0FB1h
  4827                           tmr3l	equ	0FB2h
  4828                           tmr3h	equ	0FB3h
  4829                           ccp1con	equ	0FBDh
  4830                           ccpr1l	equ	0FBEh
  4831                           ccpr1h	equ	0FBFh
  4832                           adcon1	equ	0FC1h
  4833  001A5C                     __ptext13:
  4834                           opt subtitle "HI-TECH Software Omniscient Code Generator (Lite mode) build 49521"
  4835                           
  4836                           opt pagewidth 120
  4837                           
  4838  0000                     	__size_of___lwmod	equ	__end_of___lwmod-___lwmod
  4839                           opt subtitle "HI-TECH Software Omniscient Code Generator (Lite mode) build 49521"
  4840  001A5C                     ___lwmod:
  4841                           opt subtitle "HI-TECH Software Omniscient Code Generator (Lite mode) build 49521"
  4842                           
  4843                           opt pagewidth 120
  4844  001A5C                     l2060:
  4845  001A5C  0100               	movlb	0	; () banked
  4846  001A5E  0100               	movlb	0	; () banked
  4847  001A60  5163               	movf	((___lwmod@divisor+1))&0ffh,w
  4848  001A62  1162               	iorwf ((___lwmod@divisor))&0ffh,w
  4849                           opt subtitle "HI-TECH Software Omniscient Code Generator (Lite mode) build 49521"
  4850  001A64  B4D8               	btfsc	status,2
  4851  001A66  D001               	goto	u1451
  4852  001A68  D001               	goto	u1450
  4853  001A6A                     u1451:
  4854  001A6A  D03B               	goto	l711
  4855  001A6C                     u1450:
  4856                           opt subtitle "HI-TECH Software Omniscient Code Generator (Lite mode) build 49521"
  4857                           
  4858  001A6C                     l2062:; BSR set to: 0
  4859                           opt subtitle "HI-TECH Software Omniscient Code Generator (Lite mode) build 49521"
  4860  001A6C  6E2F               	movwf	(??___lwmod+0+0)&0ffh,c
  4861  001A6E  0E01               	movlw	low(01h)
  4862  001A70  6E30               	movwf	((c:___lwmod@counter)),c
  4863  001A72  502F               	movf	(??___lwmod+0+0)&0ffh,c,w
  4864                           opt subtitle "HI-TECH Software Omniscient Code Generator (Lite mode) build 49521"
  4865  001A74  D008               	goto	l2066
  4866                           opt subtitle "HI-TECH Software Omniscient Code Generator (Lite mode) build 49521"
  4867  001A76                     l713:; BSR set to: 0
  4868                           opt subtitle "HI-TECH Software Omniscient Code Generator (Lite mode) build 49521"
  4869                           
  4870                           opt pagewidth 120
  4871  001A76                     l2064:; BSR set to: 0
  4872                           opt subtitle "HI-TECH Software Omniscient Code Generator (Lite mode) build 49521"
  4873  001A76  0100               	movlb	0	; () banked
  4874  001A78  0100               	movlb	0	; () banked
  4875  001A7A  0100               	movlb	0	; () banked
  4876  001A7C  90D8               	bcf	status,0
  4877  001A7E  3762               	rlcf	((___lwmod@divisor))&0ffh
  4878  001A80  3763               	rlcf	((___lwmod@divisor+1))&0ffh
  4879                           opt subtitle "HI-TECH Software Omniscient Code Generator (Lite mode) build 49521"
  4880  001A82  2A30               	incf	((c:___lwmod@counter)),c
  4881  001A84  D000               	goto	l2066
  4882                           opt subtitle "HI-TECH Software Omniscient Code Generator (Lite mode) build 49521"
  4883                           
  4884  001A86                     l712:; BSR set to: 0
  4885                           opt subtitle "HI-TECH Software Omniscient Code Generator (Lite mode) build 49521"
  4886                           
  4887                           opt pagewidth 120
  4888  001A86                     l2066:; BSR set to: 0
  4889                           opt subtitle "HI-TECH Software Omniscient Code Generator (Lite mode) build 49521"
  4890  001A86  0100               	movlb	0	; () banked
  4891                           opt subtitle "HI-TECH Software Omniscient Code Generator (Lite mode) build 49521"
  4892  001A88  0100               	movlb	0	; () banked
  4893  001A8A  AF63               	btfss	((___lwmod@divisor+1))&0ffh,(15)&7
  4894  001A8C  D001               	goto	u1461
  4895  001A8E  D001               	goto	u1460
  4896  001A90                     u1461:
  4897  001A90  D7F2               	goto	l2064
  4898  001A92                     u1460:
  4899  001A92  D001               	goto	l2068
  4900                           opt subtitle "HI-TECH Software Omniscient Code Generator (Lite mode) build 49521"
  4901  001A94                     l714:; BSR set to: 0
  4902                           opt subtitle "HI-TECH Software Omniscient Code Generator (Lite mode) build 49521"
  4903  001A94  D000               	goto	l2068
  4904                           opt subtitle "HI-TECH Software Omniscient Code Generator (Lite mode) build 49521"
  4905                           
  4906  001A96                     l715:; BSR set to: 0
  4907                           opt subtitle "HI-TECH Software Omniscient Code Generator (Lite mode) build 49521"
  4908                           
  4909                           opt pagewidth 120
  4910  001A96                     l2068:; BSR set to: 0
  4911                           opt subtitle "HI-TECH Software Omniscient Code Generator (Lite mode) build 49521"
  4912  001A96  0100               	movlb	0	; () banked
  4913  001A98  0100               	movlb	0	; () banked
  4914  001A9A  5162               	movf	((___lwmod@divisor))&0ffh,w
  4915  001A9C  0100               	movlb	0	; () banked
  4916  001A9E  0100               	movlb	0	; () banked
  4917  001AA0  5D60               	subwf	((___lwmod@dividend))&0ffh,w
  4918  001AA2  0100               	movlb	0	; () banked
  4919  001AA4  0100               	movlb	0	; () banked
  4920  001AA6  5163               	movf	((___lwmod@divisor+1))&0ffh,w
  4921  001AA8  0100               	movlb	0	; () banked
  4922  001AAA  0100               	movlb	0	; () banked
  4923  001AAC  5961               	subwfb	((___lwmod@dividend+1))&0ffh,w
  4924  001AAE  A0D8               	btfss	status,0
  4925  001AB0  D001               	goto	u1471
  4926  001AB2  D001               	goto	u1470
  4927  001AB4                     u1471:
  4928  001AB4  D00D               	goto	l2072
  4929  001AB6                     u1470:
  4930                           opt subtitle "HI-TECH Software Omniscient Code Generator (Lite mode) build 49521"
  4931                           
  4932  001AB6                     l2070:; BSR set to: 0
  4933                           opt subtitle "HI-TECH Software Omniscient Code Generator (Lite mode) build 49521"
  4934  001AB6  0100               	movlb	0	; () banked
  4935  001AB8  0100               	movlb	0	; () banked
  4936  001ABA  5162               	movf	((___lwmod@divisor))&0ffh,w
  4937  001ABC  0100               	movlb	0	; () banked
  4938  001ABE  0100               	movlb	0	; () banked
  4939  001AC0  5F60               	subwf	((___lwmod@dividend))&0ffh
  4940  001AC2  0100               	movlb	0	; () banked
  4941  001AC4  0100               	movlb	0	; () banked
  4942  001AC6  5163               	movf	((___lwmod@divisor+1))&0ffh,w
  4943  001AC8  0100               	movlb	0	; () banked
  4944  001ACA  0100               	movlb	0	; () banked
  4945  001ACC  5B61               	subwfb	((___lwmod@dividend+1))&0ffh
  4946                           opt subtitle "HI-TECH Software Omniscient Code Generator (Lite mode) build 49521"
  4947  001ACE  D000               	goto	l2072
  4948                           opt subtitle "HI-TECH Software Omniscient Code Generator (Lite mode) build 49521"
  4949  001AD0                     l716:; BSR set to: 0
  4950                           opt subtitle "HI-TECH Software Omniscient Code Generator (Lite mode) build 49521"
  4951                           
  4952                           opt pagewidth 120
  4953  001AD0                     l2072:; BSR set to: 0
  4954                           opt subtitle "HI-TECH Software Omniscient Code Generator (Lite mode) build 49521"
  4955  001AD0  0100               	movlb	0	; () banked
  4956  001AD2  0100               	movlb	0	; () banked
  4957  001AD4  0100               	movlb	0	; () banked
  4958  001AD6  90D8               	bcf	status,0
  4959  001AD8  3363               	rrcf	((___lwmod@divisor+1))&0ffh
  4960  001ADA  3362               	rrcf	((___lwmod@divisor))&0ffh
  4961                           opt subtitle "HI-TECH Software Omniscient Code Generator (Lite mode) build 49521"
  4962                           
  4963  001ADC                     l2074:; BSR set to: 0
  4964                           opt subtitle "HI-TECH Software Omniscient Code Generator (Lite mode) build 49521"
  4965  001ADC  2E30               	decfsz	((c:___lwmod@counter)),c
  4966                           opt subtitle "HI-TECH Software Omniscient Code Generator (Lite mode) build 49521"
  4967  001ADE  D7DB               	goto	l2068
  4968  001AE0  D000               	goto	l711
  4969                           opt subtitle "HI-TECH Software Omniscient Code Generator (Lite mode) build 49521"
  4970  001AE2                     l717:; BSR set to: 0
  4971                           opt subtitle "HI-TECH Software Omniscient Code Generator (Lite mode) build 49521"
  4972                           
  4973                           opt pagewidth 120
  4974  001AE2                     l711:; BSR set to: 0
  4975                           opt subtitle "HI-TECH Software Omniscient Code Generator (Lite mode) build 49521"
  4976                           
  4977  001AE2  C060  F060         	movff	(___lwmod@dividend),(?___lwmod)
  4978  001AE6  C061  F061         	movff	(___lwmod@dividend+1),(?___lwmod+1)
  4979                           opt subtitle "HI-TECH Software Omniscient Code Generator (Lite mode) build 49521"
  4980                           
  4981  001AEA                     l718:; BSR set to: 0
  4982                           opt subtitle "HI-TECH Software Omniscient Code Generator (Lite mode) build 49521"
  4983  001AEA  0012               	return
  4984                           opt subtitle "HI-TECH Software Omniscient Code Generator (Lite mode) build 49521"
  4985                           
  4986  001AEC                     	__end_of___lwmod:
  4987                           opt subtitle "HI-TECH Software Omniscient Code Generator (Lite mode) build 49521"
  4988                           
  4989                           opt pagewidth 120
  4990                           
  4991                           	opt lm
  4992                           
  4993                           	processor	18F8622
  4994                           porta	equ	0F80h
  4995                           portb	equ	0F81h
  4996                           portc	equ	0F82h
  4997                           portd	equ	0F83h
  4998                           porte	equ	0F84h
  4999                           lata	equ	0F89h
  5000                           latb	equ	0F8Ah
  5001                           latc	equ	0F8Bh
  5002                           latd	equ	0F8Ch
  5003                           late	equ	0F8Dh
  5004                           trisa	equ	0F92h
  5005                           trisb	equ	0F93h
  5006                           trisc	equ	0F94h
  5007                           trisd	equ	0F95h
  5008                           trise	equ	0F96h
  5009                           pie1	equ	0F9Dh
  5010                           pir1	equ	0F9Eh
  5011                           ipr1	equ	0F9Fh
  5012                           pie2	equ	0FA0h
  5013                           pir2	equ	0FA1h
  5014                           ipr2	equ	0FA2h
  5015                           t3con	equ	0FB1h
  5016                           tmr3l	equ	0FB2h
  5017                           tmr3h	equ	0FB3h
  5018                           ccp1con	equ	0FBDh
  5019                           ccpr1l	equ	0FBEh
  5020                           ccpr1h	equ	0FBFh
  5021                           adcon1	equ	0FC1h
  5022                           adcon0	equ	0FC2h
  5023                           adresl	equ	0FC3h
  5024                           adresh	equ	0FC4h
  5025                           sspcon2	equ	0FC5h
  5026                           sspcon1	equ	0FC6h
  5027                           sspstat	equ	0FC7h
  5028  000008                     __pintcode:
  5029                           opt subtitle "HI-TECH Software Omniscient Code Generator (Lite mode) build 49521"
  5030                           
  5031                           opt pagewidth 120
  5032                           
  5033  0000                     	__size_of_receiveData	equ	__end_of_receiveData-_receiveData
  5034                           opt subtitle "HI-TECH Software Omniscient Code Generator (Lite mode) build 49521"
  5035  000008                     _receiveData:; BSR set to: 0
  5036                           opt subtitle "HI-TECH Software Omniscient Code Generator (Lite mode) build 49521"
  5037                           
  5038  000008  CFFA F00A          	movff	pclat+0,??_receiveData+3
  5039  00000C  CFFB F00B          	movff	pclat+1,??_receiveData+4
  5040  000010  CFE9 F00C          	movff	fsr0l+0,??_receiveData+5
  5041  000014  CFEA F00D          	movff	fsr0h+0,??_receiveData+6
  5042  000018  CFE1 F00E          	movff	fsr1l+0,??_receiveData+7
  5043  00001C  CFE2 F00F          	movff	fsr1h+0,??_receiveData+8
  5044  000020  CFD9 F010          	movff	fsr2l+0,??_receiveData+9
  5045  000024  CFDA F011          	movff	fsr2h+0,??_receiveData+10
  5046  000028  CFF3 F012          	movff	prodl+0,??_receiveData+11
  5047  00002C  CFF4 F013          	movff	prodh+0,??_receiveData+12
  5048  000030  CFF6 F014          	movff	tblptrl+0,??_receiveData+13
  5049  000034  CFF7 F015          	movff	tblptrh+0,??_receiveData+14
  5050  000038  CFF8 F016          	movff	tblptru+0,??_receiveData+15
  5051  00003C  CFF5 F017          	movff	tablat+0,??_receiveData+16
  5052                           opt subtitle "HI-TECH Software Omniscient Code Generator (Lite mode) build 49521"
  5053                           
  5054  000040                     i2l1716:
  5055                           opt subtitle "HI-TECH Software Omniscient Code Generator (Lite mode) build 49521"
  5056                           
  5057  000040  A69E               	btfss	((c:3998)),c,3	;volatile
  5058  000042  D001               	goto	i2u101_41
  5059  000044  D001               	goto	i2u101_40
  5060  000046                     i2u101_41:
  5061  000046  D0B6               	goto	i2l169
  5062  000048                     i2u101_40:
  5063                           opt subtitle "HI-TECH Software Omniscient Code Generator (Lite mode) build 49521"
  5064                           
  5065  000048                     i2l1718:
  5066                           opt subtitle "HI-TECH Software Omniscient Code Generator (Lite mode) build 49521"
  5067                           
  5068  000048  0100               	movlb	0	; () banked
  5069  00004A  0100               	movlb	0	; () banked
  5070  00004C  4BB3               	infsnz	((_transmissoes))&0ffh
  5071  00004E  2BB4               	incf	((_transmissoes+1))&0ffh
  5072                           opt subtitle "HI-TECH Software Omniscient Code Generator (Lite mode) build 49521"
  5073                           
  5074  000050                     i2l1720:; BSR set to: 0
  5075                           opt subtitle "HI-TECH Software Omniscient Code Generator (Lite mode) build 49521"
  5076                           
  5077  000050  8281               	bsf	((c:3969)),c,1	;volatile
  5078                           opt subtitle "HI-TECH Software Omniscient Code Generator (Lite mode) build 49521"
  5079                           
  5080  000052                     i2l1722:; BSR set to: 0
  5081                           opt subtitle "HI-TECH Software Omniscient Code Generator (Lite mode) build 49521"
  5082                           
  5083  000052  CFC9 F01C          	movff	(c:4041),(c:receiveData@totalBytes)	;volatile
  5084                           opt subtitle "HI-TECH Software Omniscient Code Generator (Lite mode) build 49521"
  5085                           
  5086  000056                     i2l1724:; BSR set to: 0
  5087                           opt subtitle "HI-TECH Software Omniscient Code Generator (Lite mode) build 49521"
  5088                           
  5089  000056  0E00               	movlw	low(0)
  5090  000058  6EC9               	movwf	((c:4041)),c	;volatile
  5091                           opt subtitle "HI-TECH Software Omniscient Code Generator (Lite mode) build 49521"
  5092                           
  5093  00005A                     i2l1726:; BSR set to: 0
  5094                           opt subtitle "HI-TECH Software Omniscient Code Generator (Lite mode) build 49521"
  5095                           
  5096                           opt pagewidth 120
  5097  00005A  0E00               	movlw	high(0)
  5098  00005C  6E22               	movwf	((c:receiveData@i+1)),c
  5099  00005E  0E00               	movlw	low(0)
  5100  000060  6E21               	movwf	((c:receiveData@i)),c
  5101                           opt subtitle "HI-TECH Software Omniscient Code Generator (Lite mode) build 49521"
  5102                           
  5103  000062  D013               	goto	i2l1734
  5104                           opt subtitle "HI-TECH Software Omniscient Code Generator (Lite mode) build 49521"
  5105  000064                     i2l164:; BSR set to: 0
  5106                           opt subtitle "HI-TECH Software Omniscient Code Generator (Lite mode) build 49521"
  5107                           
  5108                           opt pagewidth 120
  5109                           
  5110  000064  D000               	goto	i2l165
  5111                           opt subtitle "HI-TECH Software Omniscient Code Generator (Lite mode) build 49521"
  5112  000066                     i2l166:; BSR set to: 0
  5113                           opt subtitle "HI-TECH Software Omniscient Code Generator (Lite mode) build 49521"
  5114                           
  5115  000066                     i2l165:
  5116                           opt subtitle "HI-TECH Software Omniscient Code Generator (Lite mode) build 49521"
  5117  000066  A0C7               	btfss	((c:4039)),c,0	;volatile
  5118  000068  D001               	goto	i2u102_41
  5119  00006A  D001               	goto	i2u102_40
  5120  00006C                     i2u102_41:
  5121  00006C  D7FC               	goto	i2l165
  5122  00006E                     i2u102_40:
  5123  00006E  D000               	goto	i2l1728
  5124                           opt subtitle "HI-TECH Software Omniscient Code Generator (Lite mode) build 49521"
  5125  000070                     i2l167:
  5126                           opt subtitle "HI-TECH Software Omniscient Code Generator (Lite mode) build 49521"
  5127                           
  5128  000070                     i2l1728:
  5129                           opt subtitle "HI-TECH Software Omniscient Code Generator (Lite mode) build 49521"
  5130  000070  0E23               	movlw	low((c:receiveData@ledData))
  5131  000072  2421               	addwf	((c:receiveData@i)),c,w
  5132  000074  6ED9               	movwf	c:fsr2l
  5133  000076  0E00               	movlw	high((c:receiveData@ledData))
  5134  000078  2022               	addwfc	((c:receiveData@i+1)),c,w
  5135  00007A  6EDA               	movwf	1+c:fsr2l
  5136  00007C  CFC9 FFDF          	movff	(c:4041),indf2	;volatile
  5137                           opt subtitle "HI-TECH Software Omniscient Code Generator (Lite mode) build 49521"
  5138                           
  5139                           opt pagewidth 120
  5140  000080                     i2l1730:
  5141                           opt subtitle "HI-TECH Software Omniscient Code Generator (Lite mode) build 49521"
  5142  000080  0E00               	movlw	low(0)
  5143  000082  6EC9               	movwf	((c:4041)),c	;volatile
  5144                           opt subtitle "HI-TECH Software Omniscient Code Generator (Lite mode) build 49521"
  5145                           
  5146  000084                     i2l1732:
  5147                           opt subtitle "HI-TECH Software Omniscient Code Generator (Lite mode) build 49521"
  5148  000084  4A21               	infsnz	((c:receiveData@i)),c
  5149  000086  2A22               	incf	((c:receiveData@i+1)),c
  5150  000088  D000               	goto	i2l1734
  5151                           opt subtitle "HI-TECH Software Omniscient Code Generator (Lite mode) build 49521"
  5152                           
  5153  00008A                     i2l163:
  5154                           opt subtitle "HI-TECH Software Omniscient Code Generator (Lite mode) build 49521"
  5155                           
  5156  00008A                     i2l1734:
  5157  00008A  501C               	movf	((c:receiveData@totalBytes)),c,w
  5158  00008C  6E07               	movwf	(??_receiveData+0+0)&0ffh,c
  5159  00008E  6A08               	clrf	(??_receiveData+0+0+1)&0ffh,c
  5160                           opt subtitle "HI-TECH Software Omniscient Code Generator (Lite mode) build 49521"
  5161  000090  5022               	movf	((c:receiveData@i+1)),c,w
  5162  000092  0A80               	xorlw	80h
  5163  000094  6E09               	movwf	(??_receiveData+2+0)&0ffh,c
  5164  000096  5007               	movf	(??_receiveData+0+0),c,w
  5165  000098  5C21               	subwf	((c:receiveData@i)),c,w
  5166  00009A  5008               	movf	(??_receiveData+0+1),c,w
  5167  00009C  0A80               	xorlw	80h
  5168  00009E  5809               	subwfb	(??_receiveData+2+0)&0ffh,c,w
  5169  0000A0  A0D8               	btfss	status,0
  5170  0000A2  D001               	goto	i2u103_41
  5171  0000A4  D001               	goto	i2u103_40
  5172  0000A6                     i2u103_41:
  5173  0000A6  D7DF               	goto	i2l165
  5174  0000A8                     i2u103_40:
  5175  0000A8  D000               	goto	i2l1736
  5176                           opt subtitle "HI-TECH Software Omniscient Code Generator (Lite mode) build 49521"
  5177  0000AA                     i2l168:
  5178                           opt subtitle "HI-TECH Software Omniscient Code Generator (Lite mode) build 49521"
  5179                           
  5180  0000AA                     i2l1736:
  5181                           opt subtitle "HI-TECH Software Omniscient Code Generator (Lite mode) build 49521"
  5182                           
  5183  0000AA  0E00               	movlw	high(0)
  5184  0000AC  6E22               	movwf	((c:receiveData@i+1)),c
  5185  0000AE  0E00               	movlw	low(0)
  5186  0000B0  6E21               	movwf	((c:receiveData@i)),c
  5187                           opt subtitle "HI-TECH Software Omniscient Code Generator (Lite mode) build 49521"
  5188                           
  5189  0000B2                     i2l1738:
  5190                           opt subtitle "HI-TECH Software Omniscient Code Generator (Lite mode) build 49521"
  5191  0000B2  C023  F007         	movff	(c:receiveData@ledData),??_receiveData+0+0
  5192  0000B6  0E06               	movlw	06h
  5193  0000B8  6E08               	movwf	(??_receiveData+1+0)&0ffh,c
  5194  0000BA                     i2u104_45:
  5195  0000BA  90D8               	bcf	status,0
  5196  0000BC  3207               	rrcf	(??_receiveData+0+0),c
  5197  0000BE  2E08               	decfsz	(??_receiveData+1+0)&0ffh,c
  5198  0000C0  D7FC               	goto	i2u104_45
  5199  0000C2  0E03               	movlw	03h
  5200  0000C4  1607               	andwf	(??_receiveData+0+0),c
  5201  0000C6  5007               	movf	(??_receiveData+0+0),c,w
  5202  0000C8  6E18               	movwf	((c:receiveData@board)),c
  5203  0000CA  6A19               	clrf	((c:receiveData@board+1)),c
  5204                           opt subtitle "HI-TECH Software Omniscient Code Generator (Lite mode) build 49521"
  5205                           
  5206  0000CC                     i2l1740:
  5207                           opt subtitle "HI-TECH Software Omniscient Code Generator (Lite mode) build 49521"
  5208  0000CC  C023  F007         	movff	(c:receiveData@ledData),??_receiveData+0+0
  5209  0000D0  3A07               	swapf	(??_receiveData+0+0),c
  5210  0000D2  0E0F               	movlw	(0ffh shr 4) & 0ffh
  5211  0000D4  1607               	andwf	(??_receiveData+0+0),c
  5212  0000D6  0E03               	movlw	03h
  5213  0000D8  1607               	andwf	(??_receiveData+0+0),c
  5214  0000DA  5007               	movf	(??_receiveData+0+0),c,w
  5215  0000DC  6E1D               	movwf	((c:receiveData@x)),c
  5216  0000DE  6A1E               	clrf	((c:receiveData@x+1)),c
  5217                           opt subtitle "HI-TECH Software Omniscient Code Generator (Lite mode) build 49521"
  5218                           
  5219  0000E0                     i2l1742:
  5220                           opt subtitle "HI-TECH Software Omniscient Code Generator (Lite mode) build 49521"
  5221  0000E0  C023  F007         	movff	(c:receiveData@ledData),??_receiveData+0+0
  5222  0000E4  90D8               	bcf	status,0
  5223  0000E6  3207               	rrcf	(??_receiveData+0+0),c
  5224  0000E8  90D8               	bcf	status,0
  5225  0000EA  3207               	rrcf	(??_receiveData+0+0),c
  5226                           opt subtitle "HI-TECH Software Omniscient Code Generator (Lite mode) build 49521"
  5227  0000EC  0E03               	movlw	03h
  5228  0000EE  1607               	andwf	(??_receiveData+0+0),c
  5229  0000F0  5007               	movf	(??_receiveData+0+0),c,w
  5230  0000F2  6E1F               	movwf	((c:receiveData@y)),c
  5231  0000F4  6A20               	clrf	((c:receiveData@y+1)),c
  5232                           opt subtitle "HI-TECH Software Omniscient Code Generator (Lite mode) build 49521"
  5233                           
  5234  0000F6                     i2l1744:
  5235                           opt subtitle "HI-TECH Software Omniscient Code Generator (Lite mode) build 49521"
  5236  0000F6  C01F  F003         	movff	(c:receiveData@y),0+((c:?___wmul)+02h)
  5237  0000FA  C020  F004         	movff	(c:receiveData@y+1),1+((c:?___wmul)+02h)
  5238  0000FE  C01D  F001         	movff	(c:receiveData@x),(c:?___wmul)
  5239  000102  C01E  F002         	movff	(c:receiveData@x+1),(c:?___wmul+1)
  5240  000106  EC50  F00E         	call	___wmul	;wreg free
  5241  00010A  C001  F01A         	movff	0+?___wmul,(c:_receiveData$1794)
  5242  00010E  C002  F01B         	movff	1+?___wmul,(c:_receiveData$1794+1)
  5243                           opt subtitle "HI-TECH Software Omniscient Code Generator (Lite mode) build 49521"
  5244  000112                     i2l1746:
  5245                           opt subtitle "HI-TECH Software Omniscient Code Generator (Lite mode) build 49521"
  5246  000112  C018  F001         	movff	(c:receiveData@board),(c:?___wmul)
  5247  000116  C019  F002         	movff	(c:receiveData@board+1),(c:?___wmul+1)
  5248  00011A  0E01               	movlw	high(01C0h)
  5249  00011C  6E04               	movwf	(1+((c:?___wmul)+02h)),c
  5250  00011E  0EC0               	movlw	low(01C0h)
  5251  000120  6E03               	movwf	(0+((c:?___wmul)+02h)),c
  5252  000122  EC50  F00E         	call	___wmul	;wreg free
  5253  000126  0EC6               	movlw	low(_ledList)
  5254  000128  2401               	addwf	(0+?___wmul),c,w
  5255  00012A  6E07               	movwf	(??_receiveData+0+0)&0ffh,c
  5256  00012C  0E00               	movlw	high(_ledList)
  5257  00012E  2002               	addwfc	(1+?___wmul),c,w
  5258  000130  6E08               	movwf	1+(??_receiveData+0+0)&0ffh,c
  5259  000132  C01A  F001         	movff	(c:_receiveData$1794),(c:?___wmul)
  5260  000136  C01B  F002         	movff	(c:_receiveData$1794+1),(c:?___wmul+1)
  5261  00013A  0E00               	movlw	high(07h)
  5262  00013C  6E04               	movwf	(1+((c:?___wmul)+02h)),c
  5263  00013E  0E07               	movlw	low(07h)
  5264  000140  6E03               	movwf	(0+((c:?___wmul)+02h)),c
  5265  000142  EC50  F00E         	call	___wmul	;wreg free
  5266  000146  5001               	movf	(0+?___wmul),c,w
  5267  000148  2407               	addwf	(??_receiveData+0+0),c,w
  5268                           opt subtitle "HI-TECH Software Omniscient Code Generator (Lite mode) build 49521"
  5269  00014A  6E25               	movwf	((c:receiveData@l)),c
  5270  00014C  5002               	movf	(1+?___wmul),c,w
  5271  00014E  2008               	addwfc	(??_receiveData+0+1),c,w
  5272  000150  6E26               	movwf	1+((c:receiveData@l)),c
  5273                           opt subtitle "HI-TECH Software Omniscient Code Generator (Lite mode) build 49521"
  5274                           
  5275  000152                     i2l1748:
  5276                           opt subtitle "HI-TECH Software Omniscient Code Generator (Lite mode) build 49521"
  5277  000152  C025  FFD9         	movff	(c:receiveData@l),fsr2l
  5278  000156  C026  FFDA         	movff	(c:receiveData@l+1),fsr2h
  5279  00015A  C01D  FFDE         	movff	(c:receiveData@x),postinc2
  5280  00015E  C01E  FFDD         	movff	(c:receiveData@x+1),postdec2
  5281                           opt subtitle "HI-TECH Software Omniscient Code Generator (Lite mode) build 49521"
  5282                           
  5283  000162                     i2l1750:
  5284                           opt subtitle "HI-TECH Software Omniscient Code Generator (Lite mode) build 49521"
  5285  000162  EE20 F002          	lfsr	2,02h
  5286  000166  5025               	movf	((c:receiveData@l)),c,w
  5287  000168  26D9               	addwf	fsr2l
  5288  00016A  5026               	movf	((c:receiveData@l+1)),c,w
  5289  00016C  22DA               	addwfc	fsr2h
  5290  00016E  C01F  FFDE         	movff	(c:receiveData@y),postinc2
  5291  000172  C020  FFDD         	movff	(c:receiveData@y+1),postdec2
  5292                           opt subtitle "HI-TECH Software Omniscient Code Generator (Lite mode) build 49521"
  5293                           
  5294  000176                     i2l1752:
  5295                           opt subtitle "HI-TECH Software Omniscient Code Generator (Lite mode) build 49521"
  5296  000176  5023               	movf	((c:receiveData@ledData)),c,w
  5297  000178  0B03               	andlw	low(03h)
  5298  00017A  6E07               	movwf	(??_receiveData+0+0)&0ffh,c
  5299  00017C  6A08               	clrf	(??_receiveData+0+0+1)&0ffh,c
  5300                           opt subtitle "HI-TECH Software Omniscient Code Generator (Lite mode) build 49521"
  5301  00017E  EE20 F004          	lfsr	2,04h
  5302  000182  5025               	movf	((c:receiveData@l)),c,w
  5303  000184  26D9               	addwf	fsr2l
  5304  000186  5026               	movf	((c:receiveData@l+1)),c,w
  5305  000188  22DA               	addwfc	fsr2h
  5306  00018A  C007  FFDE         	movff	??_receiveData+0+0,postinc2
  5307  00018E  C008  FFDD         	movff	??_receiveData+0+1,postdec2
  5308                           opt subtitle "HI-TECH Software Omniscient Code Generator (Lite mode) build 49521"
  5309                           
  5310                           opt pagewidth 120
  5311  000192                     i2l1754:
  5312                           opt subtitle "HI-TECH Software Omniscient Code Generator (Lite mode) build 49521"
  5313  000192  EE20 F006          	lfsr	2,06h
  5314  000196  5025               	movf	((c:receiveData@l)),c,w
  5315  000198  26D9               	addwf	fsr2l
  5316  00019A  5026               	movf	((c:receiveData@l+1)),c,w
  5317  00019C  22DA               	addwfc	fsr2h
  5318  00019E  C024  FFDF         	movff	0+((c:receiveData@ledData)+01h),indf2
  5319                           opt subtitle "HI-TECH Software Omniscient Code Generator (Lite mode) build 49521"
  5320                           
  5321                           opt pagewidth 120
  5322  0001A2                     i2l1756:
  5323                           opt subtitle "HI-TECH Software Omniscient Code Generator (Lite mode) build 49521"
  5324  0001A2  6E07               	movwf	(??_receiveData+0+0)&0ffh,c
  5325  0001A4  0E01               	movlw	low(01h)
  5326  0001A6  0100               	movlb	0	; () banked
  5327  0001A8  0100               	movlb	0	; () banked
  5328  0001AA  6FB2               	movwf	((_update_lcd))&0ffh
  5329  0001AC  5007               	movf	(??_receiveData+0+0)&0ffh,c,w
  5330                           opt subtitle "HI-TECH Software Omniscient Code Generator (Lite mode) build 49521"
  5331                           
  5332  0001AE                     i2l1758:; BSR set to: 0
  5333                           opt subtitle "HI-TECH Software Omniscient Code Generator (Lite mode) build 49521"
  5334                           
  5335  0001AE  9281               	bcf	((c:3969)),c,1	;volatile
  5336                           opt subtitle "HI-TECH Software Omniscient Code Generator (Lite mode) build 49521"
  5337                           
  5338  0001B0                     i2l1760:; BSR set to: 0
  5339                           opt subtitle "HI-TECH Software Omniscient Code Generator (Lite mode) build 49521"
  5340                           
  5341  0001B0  969E               	bcf	((c:3998)),c,3	;volatile
  5342  0001B2  D000               	goto	i2l169
  5343                           opt subtitle "HI-TECH Software Omniscient Code Generator (Lite mode) build 49521"
  5344                           
  5345  0001B4                     i2l162:; BSR set to: 0
  5346                           opt subtitle "HI-TECH Software Omniscient Code Generator (Lite mode) build 49521"
  5347                           
  5348                           opt pagewidth 120
  5349  0001B4                     i2l169:
  5350  0001B4  C017  FFF5         	movff	??_receiveData+16,tablat+0
  5351  0001B8  C016  FFF8         	movff	??_receiveData+15,tblptru+0
  5352  0001BC  C015  FFF7         	movff	??_receiveData+14,tblptrh+0
  5353  0001C0  C014  FFF6         	movff	??_receiveData+13,tblptrl+0
  5354  0001C4  C013  FFF4         	movff	??_receiveData+12,prodh+0
  5355  0001C8  C012  FFF3         	movff	??_receiveData+11,prodl+0
  5356  0001CC  C011  FFDA         	movff	??_receiveData+10,fsr2h+0
  5357  0001D0  C010  FFD9         	movff	??_receiveData+9,fsr2l+0
  5358  0001D4  C00F  FFE2         	movff	??_receiveData+8,fsr1h+0
  5359  0001D8  C00E  FFE1         	movff	??_receiveData+7,fsr1l+0
  5360  0001DC  C00D  FFEA         	movff	??_receiveData+6,fsr0h+0
  5361  0001E0  C00C  FFE9         	movff	??_receiveData+5,fsr0l+0
  5362  0001E4  C00B  FFFB         	movff	??_receiveData+4,pclat+1
  5363  0001E8  C00A  FFFA         	movff	??_receiveData+3,pclat+0
  5364  0001EC  0011               	retfie f
  5365                           opt subtitle "HI-TECH Software Omniscient Code Generator (Lite mode) build 49521"
  5366                           
  5367  0001EE                     	__end_of_receiveData:
  5368                           opt subtitle "HI-TECH Software Omniscient Code Generator (Lite mode) build 49521"
  5369                           
  5370                           opt pagewidth 120
  5371                           
  5372                           	opt lm
  5373                           
  5374                           	processor	18F8622
  5375                           porta	equ	0F80h
  5376                           portb	equ	0F81h
  5377                           portc	equ	0F82h
  5378                           portd	equ	0F83h
  5379                           porte	equ	0F84h
  5380                           lata	equ	0F89h
  5381                           latb	equ	0F8Ah
  5382                           latc	equ	0F8Bh
  5383                           latd	equ	0F8Ch
  5384                           late	equ	0F8Dh
  5385                           trisa	equ	0F92h
  5386                           trisb	equ	0F93h
  5387                           trisc	equ	0F94h
  5388                           trisd	equ	0F95h
  5389                           trise	equ	0F96h
  5390                           pie1	equ	0F9Dh
  5391                           pir1	equ	0F9Eh
  5392                           ipr1	equ	0F9Fh
  5393                           pie2	equ	0FA0h
  5394                           pir2	equ	0FA1h
  5395                           ipr2	equ	0FA2h
  5396                           t3con	equ	0FB1h
  5397                           tmr3l	equ	0FB2h
  5398                           tmr3h	equ	0FB3h
  5399                           ccp1con	equ	0FBDh
  5400                           ccpr1l	equ	0FBEh
  5401                           ccpr1h	equ	0FBFh
  5402  001CA0                     __ptext15:
  5403                           opt subtitle "HI-TECH Software Omniscient Code Generator (Lite mode) build 49521"
  5404                           
  5405                           opt pagewidth 120
  5406                           
  5407  0000                     	__size_of___wmul	equ	__end_of___wmul-___wmul
  5408                           opt subtitle "HI-TECH Software Omniscient Code Generator (Lite mode) build 49521"
  5409  001CA0                     ___wmul:
  5410                           opt subtitle "HI-TECH Software Omniscient Code Generator (Lite mode) build 49521"
  5411                           
  5412                           opt pagewidth 120
  5413  001CA0                     i2l1706:
  5414  001CA0  0E00               	movlw	high(0)
  5415  001CA2  6E06               	movwf	((c:___wmul@product+1)),c
  5416  001CA4  0E00               	movlw	low(0)
  5417  001CA6  6E05               	movwf	((c:___wmul@product)),c
  5418  001CA8  D000               	goto	i2l1708
  5419                           opt subtitle "HI-TECH Software Omniscient Code Generator (Lite mode) build 49521"
  5420                           
  5421  001CAA                     i2l737:
  5422                           opt subtitle "HI-TECH Software Omniscient Code Generator (Lite mode) build 49521"
  5423                           
  5424  001CAA                     i2l1708:
  5425                           opt subtitle "HI-TECH Software Omniscient Code Generator (Lite mode) build 49521"
  5426  001CAA  A001               	btfss	((c:___wmul@multiplier)),c,(0)&7
  5427  001CAC  D001               	goto	i2u99_41
  5428  001CAE  D001               	goto	i2u99_40
  5429  001CB0                     i2u99_41:
  5430  001CB0  D005               	goto	i2l1712
  5431  001CB2                     i2u99_40:
  5432                           opt subtitle "HI-TECH Software Omniscient Code Generator (Lite mode) build 49521"
  5433                           
  5434  001CB2                     i2l1710:
  5435  001CB2  5003               	movf	((c:___wmul@multiplicand)),c,w
  5436  001CB4  2605               	addwf	((c:___wmul@product)),c
  5437  001CB6  5004               	movf	((c:___wmul@multiplicand+1)),c,w
  5438  001CB8  2206               	addwfc	((c:___wmul@product+1)),c
  5439                           opt subtitle "HI-TECH Software Omniscient Code Generator (Lite mode) build 49521"
  5440  001CBA  D000               	goto	i2l1712
  5441                           opt subtitle "HI-TECH Software Omniscient Code Generator (Lite mode) build 49521"
  5442  001CBC                     i2l738:
  5443                           opt subtitle "HI-TECH Software Omniscient Code Generator (Lite mode) build 49521"
  5444                           
  5445  001CBC                     i2l1712:
  5446  001CBC  90D8               	bcf	status,0
  5447  001CBE  3603               	rlcf	((c:___wmul@multiplicand)),c
  5448  001CC0  3604               	rlcf	((c:___wmul@multiplicand+1)),c
  5449                           opt subtitle "HI-TECH Software Omniscient Code Generator (Lite mode) build 49521"
  5450                           
  5451  001CC2                     i2l1714:
  5452  001CC2  90D8               	bcf	status,0
  5453  001CC4  3202               	rrcf	((c:___wmul@multiplier+1)),c
  5454  001CC6  3201               	rrcf	((c:___wmul@multiplier)),c
  5455                           opt subtitle "HI-TECH Software Omniscient Code Generator (Lite mode) build 49521"
  5456  001CC8  5002               	movf	((c:___wmul@multiplier+1)),c,w
  5457  001CCA  1001               	iorwf ((c:___wmul@multiplier)),c,w
  5458                           opt subtitle "HI-TECH Software Omniscient Code Generator (Lite mode) build 49521"
  5459  001CCC  A4D8               	btfss	status,2
  5460  001CCE  D001               	goto	i2u100_41
  5461  001CD0  D001               	goto	i2u100_40
  5462  001CD2                     i2u100_41:
  5463  001CD2  D7EB               	goto	i2l1708
  5464  001CD4                     i2u100_40:
  5465                           opt subtitle "HI-TECH Software Omniscient Code Generator (Lite mode) build 49521"
  5466  001CD4                     i2l739:
  5467                           opt subtitle "HI-TECH Software Omniscient Code Generator (Lite mode) build 49521"
  5468  001CD4  C005  F001         	movff	(c:___wmul@product),(c:?___wmul)
  5469  001CD8  C006  F002         	movff	(c:___wmul@product+1),(c:?___wmul+1)
  5470                           opt subtitle "HI-TECH Software Omniscient Code Generator (Lite mode) build 49521"
  5471                           
  5472  001CDC                     i2l740:
  5473  001CDC  0012               	return
  5474                           opt subtitle "HI-TECH Software Omniscient Code Generator (Lite mode) build 49521"
  5475                           
  5476  001CDE                     	__end_of___wmul:
  5477                           opt subtitle "HI-TECH Software Omniscient Code Generator (Lite mode) build 49521"
  5478                           
  5479  001011  00                 	db 0	; dummy byte at the end
  5480                           opt subtitle "HI-TECH Software Omniscient Code Generator (Lite mode) build 49521"
  5481                           
  5482                           opt pagewidth 120
  5483  0000                     __activetblptr	EQU	3
  5484                           opt subtitle "HI-TECH Software Omniscient Code Generator (Lite mode) build 49521"
  5485                           
  5486                           opt pagewidth 120
  5487                           
  5488                           	opt lm
  5489                           
  5490  0000                     __Lparam	EQU	__Lrparam
  5491  0000                     __Hparam	EQU	__Hrparam


Data Sizes:
    Strings     7
    Constant    10
    Data        36
    BSS         1811
    Persistent  0
    Stack       0

Auto Spaces:
    Space          Size  Autos    Used
    COMRAM           95     48      57
    BANK0           160     56     102
    BANK1           256      0       0
    BANK2           256      0       0
    BANK3           256      0       0
    BANK4           256      0       0
    BANK5           256      0       0
    BANK6           256      0       0
    BANK7           256      0       0
    BANK8           256      0       0
    BANK9           256      0       0
    BANK10          256      0       0
    BANK11          256      0       0
    BANK12          256      0       0
    BANK13          256      0       0
    BANK14          256      0       0
    BANK15           96      0       0

Pointer List with Targets:

    ?___lwmod	unsigned int  size(2) Largest target is 0

    ?___lwdiv	unsigned int  size(2) Largest target is 0

    ?___wmul	unsigned int  size(2) Largest target is 0

    sprintf@f	PTR const unsigned char  size(2) Largest target is 7
		 -> STR_1(CODE[7]), 

    sprintf@sp	PTR unsigned char  size(2) Largest target is 17
		 -> mensagem_lcd(BANK0[17]), 

    ?_sprintf	int  size(2) Largest target is 0

    sprintf@ap	PTR void [1] size(2) Largest target is 2
		 -> ?_sprintf(BANK0[2]), 

    S954$_cp	PTR const unsigned char  size(2) Largest target is 0

    _val._str._cp	PTR const unsigned char  size(2) Largest target is 0

    receiveData@l	PTR struct . size(2) Largest target is 1792
		 -> ledList(BIGRAM[1792]), 

    mostra_lcd_buff@p_char	PTR unsigned char  size(2) Largest target is 17
		 -> mensagem_lcd(BANK0[17]), 


Critical Paths under _main in COMRAM

    _mostra_lcd_buff->_pos_lcd
    _mostra_lcd_buff->_envia_dado
    _pos_lcd->_envia_lcd
    _envia_dado->_envia_lcd
    _lcd_start->_limpa_tela
    _lcd_start->_ctrl_lcd_cursor
    _limpa_tela->_envia_lcd
    _ctrl_lcd_cursor->_envia_lcd
    _envia_lcd->_tempo_us
    _sprintf->___lwmod
    ___lwmod->___lwdiv

Critical Paths under _receiveData in COMRAM

    _receiveData->___wmul

Critical Paths under _main in BANK0

    _main->_sprintf
    _mostra_lcd_buff->_pos_lcd
    _lcd_start->_ctrl_lcd_cursor
    _sprintf->___lwmod

Critical Paths under _receiveData in BANK0

    None.

Critical Paths under _main in BANK1

    None.

Critical Paths under _receiveData in BANK1

    None.

Critical Paths under _main in BANK2

    None.

Critical Paths under _receiveData in BANK2

    None.

Critical Paths under _main in BANK3

    None.

Critical Paths under _receiveData in BANK3

    None.

Critical Paths under _main in BANK4

    None.

Critical Paths under _receiveData in BANK4

    None.

Critical Paths under _main in BANK5

    None.

Critical Paths under _receiveData in BANK5

    None.

Critical Paths under _main in BANK6

    None.

Critical Paths under _receiveData in BANK6

    None.

Critical Paths under _main in BANK7

    None.

Critical Paths under _receiveData in BANK7

    None.

Critical Paths under _main in BANK8

    None.

Critical Paths under _receiveData in BANK8

    None.

Critical Paths under _main in BANK9

    None.

Critical Paths under _receiveData in BANK9

    None.

Critical Paths under _main in BANK10

    None.

Critical Paths under _receiveData in BANK10

    None.

Critical Paths under _main in BANK11

    None.

Critical Paths under _receiveData in BANK11

    None.

Critical Paths under _main in BANK12

    None.

Critical Paths under _receiveData in BANK12

    None.

Critical Paths under _main in BANK13

    None.

Critical Paths under _receiveData in BANK13

    None.

Critical Paths under _main in BANK14

    None.

Critical Paths under _receiveData in BANK14

    None.

Critical Paths under _main in BANK15

    None.

Critical Paths under _receiveData in BANK15

    None.

Call Graph Tables:

 ---------------------------------------------------------------------------------
 (Depth) Function   	        Calls       Base Space   Used Autos Params    Refs
 ---------------------------------------------------------------------------------
 (0) _main                                                34    34      0    5397
                                             22 BANK0     34    34      0
                          _lcd_start
                           _OpenSPI1
                            _sprintf
                    _mostra_lcd_buff
                       _Delay10KTCYx
 ---------------------------------------------------------------------------------
 (1) _mostra_lcd_buff                                      5     0      5    1434
                                              1 BANK0      5     0      5
                            _pos_lcd
                         _envia_dado
 ---------------------------------------------------------------------------------
 (2) _pos_lcd                                              3     1      2     762
                                             46 COMRAM     2     0      2
                                              0 BANK0      1     1      0
                          _envia_lcd
 ---------------------------------------------------------------------------------
 (2) _envia_dado                                           2     1      1     545
                                             46 COMRAM     2     1      1
                          _envia_lcd
 ---------------------------------------------------------------------------------
 (1) _lcd_start                                            8     8      0    2327
                                              5 BANK0      8     8      0
                           _tempo_us
                          _envia_lcd
                         _limpa_tela
                    _ctrl_lcd_cursor
 ---------------------------------------------------------------------------------
 (2) _limpa_tela                                           2     2      0     514
                                             46 COMRAM     2     2      0
                          _envia_lcd
 ---------------------------------------------------------------------------------
 (2) _ctrl_lcd_cursor                                      7     6      1     582
                                             46 COMRAM     2     1      1
                                              0 BANK0      5     5      0
                          _envia_lcd
 ---------------------------------------------------------------------------------
 (3) _envia_lcd                                            6     2      4     514
                                             40 COMRAM     6     2      4
                           _tempo_us
 ---------------------------------------------------------------------------------
 (4) _tempo_us                                             2     0      2     204
                                             38 COMRAM     2     0      2
 ---------------------------------------------------------------------------------
 (1) _OpenSPI1                                             3     0      3      88
                                             38 COMRAM     3     0      3
 ---------------------------------------------------------------------------------
 (1) _sprintf                                             18    12      6    1090
                                              4 BANK0     18    12      6
                            ___lwdiv
                            ___lwmod
 ---------------------------------------------------------------------------------
 (1) _Delay10KTCYx                                         2     1      1      22
                                             38 COMRAM     2     1      1
 ---------------------------------------------------------------------------------
 (2) ___lwdiv                                              8     4      4     162
                                             38 COMRAM     8     4      4
 ---------------------------------------------------------------------------------
 (2) ___lwmod                                              6     2      4     232
                                             46 COMRAM     2     2      0
                                              0 BANK0      4     0      4
                            ___lwdiv (ARG)
 ---------------------------------------------------------------------------------
 Estimated maximum stack depth 4
 ---------------------------------------------------------------------------------
 (Depth) Function   	        Calls       Base Space   Used Autos Params    Refs
 ---------------------------------------------------------------------------------
 (5) _receiveData                                         32    32      0     522
                                              6 COMRAM    32    32      0
                             ___wmul
 ---------------------------------------------------------------------------------
 (6) ___wmul                                               6     2      4      92
                                              0 COMRAM     6     2      4
 ---------------------------------------------------------------------------------
 Estimated maximum stack depth 6
 ---------------------------------------------------------------------------------

 Call Graph Graphs:

 _main (ROOT)
   _lcd_start
     _tempo_us
     _envia_lcd
       _tempo_us
     _limpa_tela
       _envia_lcd
         _tempo_us
     _ctrl_lcd_cursor
       _envia_lcd
         _tempo_us
   _OpenSPI1
   _sprintf
     ___lwdiv
     ___lwmod
       ___lwdiv (ARG)
   _mostra_lcd_buff
     _pos_lcd
       _envia_lcd
         _tempo_us
     _envia_dado
       _envia_lcd
         _tempo_us
   _Delay10KTCYx

 _receiveData (ROOT)
   ___wmul

 Address spaces:
Name               Size   Autos  Total    Cost      Usage
BIGRAM             F5F      0     700      37       45.5%
EEDATA             400      0       0       0        0.0%
BITBANK14          100      0       0      33        0.0%
BANK14             100      0       0      34        0.0%
BITBANK13          100      0       0      30        0.0%
BANK13             100      0       0      31        0.0%
BITBANK12          100      0       0      28        0.0%
BANK12             100      0       0      29        0.0%
BITBANK11          100      0       0      26        0.0%
BANK11             100      0       0      27        0.0%
BITBANK10          100      0       0      24        0.0%
BANK10             100      0       0      25        0.0%
BITBANK9           100      0       0      22        0.0%
BANK9              100      0       0      23        0.0%
BITBANK8           100      0       0      20        0.0%
BANK8              100      0       0      21        0.0%
BITBANK7           100      0       0      18        0.0%
BANK7              100      0       0      19        0.0%
BITBANK6           100      0       0      16        0.0%
BANK6              100      0       0      17        0.0%
BITBANK5           100      0       0      14        0.0%
BANK5              100      0       0      15        0.0%
BITBANK4           100      0       0      12        0.0%
BANK4              100      0       0      13        0.0%
BITBANK3           100      0       0      10        0.0%
BANK3              100      0       0      11        0.0%
BITBANK2           100      0       0       8        0.0%
BANK2              100      0       0       9        0.0%
BITBANK1           100      0       0       6        0.0%
BANK1              100      0       0       7        0.0%
BITBANK0            A0      0       0       4        0.0%
BANK0               A0     38      66       5       63.7%
BITBANK15           60      0       0      35        0.0%
BANK15              60      0       0      36        0.0%
BITCOMRAM           5F      0       0       0        0.0%
COMRAM              5F     30      39       1       60.0%
BITSFR               0      0       0      40        0.0%
SFR                  0      0       0      40        0.0%
STACK                0      0       8       2        0.0%
NULL                 0      0       0       0        0.0%
ABS                  0      0      9F      32        0.0%
DATA                 0      0     7A7       3        0.0%
CODE                 0      0       0       0        0.0%


Microchip Technology PIC18 Macro Assembler V1.12 build 49521 
Symbol Table                                                                                   Wed May  8 01:24:40 2013

                        l80 1802                          l81 1832                          l73 17DA  
                        l90 1870                          l82 181A                          l74 17C2  
                        l91 1862                          l83 1808                          l75 17B0  
                        l92 1886                          l84 1830                          l76 17D8  
                        l93 18AE                          l85 185E                          l77 1804  
                        l94 1896                          l86 1846                          l78 17EC  
                        l95 188A                          l87 1836                          l79 17DE  
                        l96 18AC                          l88 185C                          l97 18AE  
                        l89 1888         ___wmul@multiplicand 0003                 __CFG_BORV$3 000000  
              __CFG_CP0$OFF 000000                __CFG_CP1$OFF 000000                __CFG_CP2$OFF 000000  
              __CFG_CP3$OFF 000000                         l100 19AA                         l200 1598  
                       l201 1390                         l121 1C60                         l210 1546  
                       l202 1392                         l106 1CFA                         l211 14D2  
                       l203 13DE                         l131 1D30                         l212 155A  
                       l204 1394                         l124 19D6                         l140 1C8A  
                       l213 1596                         l205 1424                         l125 1A02  
                       l141 1C70                         l214 15A6                         l206 1448  
                       l230 1BD0                         l150 16B2                         l126 1A2E  
                       l142 1C9E                         l207 14A6                         l231 1BF8  
                       l151 17AA                         l127 1A5A                         l143 1C9E  
                       l208 148E                         l240 1C20                         l232 1BD4  
                       l128 1A5A                         l209 14CC                         l233 1BDA  
                       l234 1BDE                         l235 1C0A                         l236 1BFA  
                       l148 16A2                         l180 11AE                         l172 10A6  
                       l237 1C1A                         l229 1BE2                         l149 160C  
                       l181 1318                         l173 113C                         l238 1C00  
                       l182 11D6                         l239 1C04                         l183 12F8  
                       l184 133A                         l185 133C                         l186 133C  
                       l178 1186                         l195 155C                         l179 1338  
                       l196 1354                         l701 1B4E                         l197 137C  
                       l702 1B14                         l198 1398                         l711 1AE2  
                       l703 1B0A                         l199 138E                         l712 1A86  
                       l704 1B1E                         l713 1A76                         l705 1B20  
                       l714 1A94                         l706 1B42                         l715 1A96  
                       l707 1B4E                         l716 1AD0                         l708 1B56  
                       l717 1AE2                         l718 1AEA                         l790 1D32  
                       l791 1D48                         l792 1D48                __CFG_CPB$OFF 000000  
              __CFG_CPD$OFF 000000                         u930 1B00                         u931 1AFE  
                       u940 1B1C                         u941 1B1A                         u950 1B36  
                       u951 1B34                         prod 000FF3                         wreg 000FE8  
mostra_lcd_buff@buffer_size 0065                __CFG_MODE$MC 000000                __CFG_LVP$OFF 000000  
              __CFG_WDT$OFF 000000                        l2000 1340                        l2010 1396  
                      l2002 1354                        l2020 140C                        l2012 1398  
                      l2004 1364                        l2030 1448                        l2022 1414  
                      l2014 13DE                        l2006 1372                        l2040 14B6  
                      l2032 148C                        l2024 1424                        l2016 13F2  
                      l2008 137C                        l2050 153C                        l2042 14C2  
                      l2034 148E                        l2026 1434                        l2018 1400  
                      l2060 1A5C                        l2052 1546                        l2044 14CC  
                      l2036 1494                        l2028 1446                        l2070 1AB6  
                      l2062 1A6C                        l2046 14D2                        l2038 14A6  
                      l2054 155C                        l2072 1AD0                        l2064 1A76  
                      l2048 152E                        l2056 1598                        l1600 1C0A  
                      l2074 1ADC                        l2066 1A86                        l2058 15A6  
                      l1602 1C1E                        l2068 1A96                        l1800 1870  
                      l1802 188E                        l1810 1924                        l1804 1896  
                      l1820 196E                        l1812 1926                        l1900 1682  
                      l1670 1AF4                        l1590 1BC6                        l1822 1984  
                      l1814 1932                        l1806 18B0                        l1830 1CDE  
                      l1910 1718                        l1902 168E                        l1680 1B26  
                      l1672 1B00                        l1664 1D32                        l1592 1BCA  
                      l1824 198E                        l1816 1934                        l1808 18BA  
                      l1840 1C22                        l1920 1742                        l1912 1726  
                      l1904 1690                        l1682 1B36                        l1674 1B0A  
                      l1666 1D42                        l1594 1BE0                        l1586 1BBE  
                      l1770 17B0                        l1826 199C                        l1818 1952  
                      l1842 1C34                        l1922 175E                        l1914 1728  
                      l1906 169C                        l1850 19E2                        l1930 1012  
                      l1684 1B3E                        l1676 1B14                        l1668 1AEC  
                      l1596 1BE2                        l1588 1BC2                        l1780 17DE  
                      l1772 17B8                        l1924 177A                        l1916 1734  
                      l1908 16B2                        l1860 1D18                        l1852 1A02  
                      l1844 19AC                        l1940 1072                        l1932 1028  
                      l1686 1B42                        l1678 1B20                        l1598 1C08  
                      l1790 1834                        l1782 17E6                        l1774 17BA  
                      l1766 17AC                        l1926 1796                        l1918 1736  
                      l1854 1A0E                        l1846 19B6                        l1870 1C62  
                      l1950 10A6                        l1942 1076                        l1934 106C  
                      l1688 1B48                        l1792 183E                        l1784 1806  
                      l1776 17BC                        l1768 17AE                        l1928 179A  
                      l1880 15BA                        l1856 1A2E                        l1848 19D6  
                      l1872 1C70                        l1960 114E                        l1952 10B4  
                      l1944 1078                        l1936 106E                        l1794 1846  
                      l1786 1812                        l1778 17DC                        l1890 15FC  
                      l1882 15CA                        l1858 1A3A                        l1874 1C80  
                      l1970 1194                        l1962 115E                        l1954 10E2  
                      l1946 10A0                        l1938 1070                        l1796 1860  
                      l1788 181A                        l1892 15FE                        l1884 15DA  
                      l1876 1C8A                        l1980 11D6                        l1972 11AC  
                      l1964 116C                        l1956 112A                        l1948 10A2  
                      l1798 1868                        l1894 160C                        l1886 15EA  
                      l1878 15A8                        l1990 12E0                        l1982 125C  
                      l1974 11AE                        l1966 1184                        l1958 113C  
                      l1896 1672                        l1888 15FA                        l1984 1286  
                      l1992 12F8                        l1976 11BC                        l1968 1186  
                      l1898 1680                        l1994 1300                        l1986 12C8  
                      l1978 11D4                        l1988 12D8                        l1996 1318  
                      l1998 1320                        STR_1 100A                        u1100 18AA  
                      u1101 18A8                        u1200 1A3A                        u1201 1A38  
                      u1050 17D6                        u1051 17D4                        u1115 18B8  
                      u1060 1800                        u1116 18BA                        u1220 1C9C  
                      u1300 11AA                        u1061 17FE                        u1125 18C2  
                      u1221 1C9A                        u1301 11A8                        u1070 182E  
                      u1310 11D2                        u1071 182C                        u1135 18D8  
                      u1231 15B2                        u1311 11D0                        u1400 148A  
                      u1080 185A                        u1401 1488                        u1081 1858  
                      u1145 18F8                        u1161 1C2C                        u1410 14A4  
                      u1090 1884                        u1250 16B0                        u1170 19B6  
                      u1411 14A2                        u1091 1882                        u1155 198C  
                      u1251 16AE                        u1171 19B4                        u1420 14B6  
                      u1156 198E                        u1180 19E2                        u1340 12F6  
                      u1324 1278                        u1421 14B4                        u1245 167E  
                      u1181 19E0                        u1341 12F4                        u1325 1272  
                      u1430 1558                        u1246 1680                        u1190 1A0E  
                      u1350 1316                        u1334 12BC                        u1270 10B4  
                      u1431 1556                        u1191 1A0C                        u1351 1314  
                      u1335 12B6                        u1271 10B2                        u1440 1594  
                      u1360 1336                        u1441 1592                        u1265 1724  
                      u1361 1334                        u1281 1146                        u1450 1A6C  
                      u1370 1364                        u1266 1726                        u1290 1182  
                      u1451 1A6A                        u1507 1D38                        u1371 1362  
                      u1291 1180                        u1460 1A92                        u1380 140C  
                      u1461 1A90                        u1381 140A                        u1470 1AB6  
                      u1390 1444                        u1471 1AB4                        u1391 1442  
                      u1487 17B2                        u1497 17E0                        _PEIE 007F96  
              _transmissoes 00B3                        _main 1012          move_mensagem@F7234 0038  
                      fsr0h 000FEA                        fsr1h 000FE2                        fsr0l 000FE9  
                      fsr2h 000FDA                        fsr1l 000FE1                        indf2 000FDF  
                      fsr2l 000FD9                        pclat 000FFA                        prodh 000FF4  
                      prodl 000FF3                        start 01EE               __CFG_IESO$OFF 000000  
             __CFG_MCLRE$ON 000000           ??_mostra_lcd_buff 0031              envia_dado@dado 002F  
             __CFG_WAIT$OFF 000000                       ?_main 0001             __end_of___lwdiv 1B58  
           __end_of___lwmod 1AEC                       i2l162 01B4                       i2l163 008A  
                     i2l164 0064                       i2l165 0066                       i2l166 0066  
                     i2l167 0070                       i2l168 00AA                       i2l169 01B4  
                     i2l740 1CDC                       i2l737 1CAA                       i2l738 1CBC  
                     i2l739 1CD4                       _PORTA 000F80                       _PORTB 000F81  
                     _PORTC 000F82                       _PORTD 000F83                       _PORTE 000F84  
                     _PORTF 000F85                       _PORTG 000F86                       _PORTH 000F87  
                     _PORTJ 000F88                       _TRISA 000F92                       _TRISB 000F93  
                     _TRISC 000F94                       _TRISD 000F95                       _TRISE 000F96  
                     _TRISF 000F97                       _TRISG 000F98                       _TRISH 000F99  
                     _TRISJ 000F9A       __size_of_Delay10KTCYx 0018               __CFG_PWRT$OFF 000000  
             __CFG_WRT0$OFF 000000               __CFG_WRT1$OFF 000000               __CFG_WRT2$OFF 000000  
             __CFG_WRT3$OFF 000000              __CFG_EBTR0$OFF 000000              __CFG_FCMEN$OFF 000000  
            __CFG_EBTR1$OFF 000000              __CFG_EBTR2$OFF 000000              __CFG_EBTR3$OFF 000000  
             __CFG_WRTB$OFF 000000               __CFG_WRTC$OFF 000000              envia_lcd@delay 002B  
             __CFG_WRTD$OFF 000000              __CFG_EBTRB$OFF 000000             __end_of_dpowers 100A  
                     main@i 0090                       main@x 0094                       main@y 0096  
            __CFG_BOREN$OFF 000000                       tablat 000FF5             __end_of_pos_lcd 1A5C  
                     status 000FD8             __end_of_sprintf 15A8                ?_receiveData 0001  
           __initialization 1B58                __end_of_main 1340                _Delay10KTCYx 1D32  
          __end_of_OpenSPI1 1C22                      ??_main 0076               __activetblptr 000003  
           __CFG_BBSIZ$BB2K 000000                      i2l1710 1CB2                      i2l1712 1CBC  
                    i2l1720 0050                      i2l1714 1CC2                      i2l1706 1CA0  
                    i2l1730 0080                      i2l1722 0052                      i2l1708 1CAA  
                    i2l1740 00CC                      i2l1732 0084                      i2l1724 0056  
                    i2l1716 0040                      i2l1750 0162                      i2l1742 00E0  
                    i2l1734 008A                      i2l1726 005A                      i2l1718 0048  
                    i2l1760 01B0                      i2l1752 0176                      i2l1744 00F6  
                    i2l1736 00AA                      i2l1728 0070                      i2l1754 0192  
                    i2l1746 0112                      i2l1738 00B2                      i2l1756 01A2  
                    i2l1748 0152                      i2l1758 01AE              __CFG_XINST$OFF 000000  
          OpenSPI1@bus_mode 0028                      ___wmul 1CA0              __CFG_STVREN$ON 000000  
                 ??___lwdiv 002B                   ??___lwmod 002F                      clear_0 1B60  
                    clear_1 1B72                __pdataCOMRAM 0031            __end_of_tempo_us 18B0  
              __mediumconst 0000                      tblptrh 000FF7                      tblptrl 000FF6  
                    tblptru 000FF8                   ??_pos_lcd 0060                   ??_sprintf 006A  
                __accesstop 0060     __end_of__initialization 1BB8              __pcstackCOMRAM 0001  
     receiveData@totalBytes 001C                __pidataBANK0 1CFC          __size_of_lcd_start 0204  
                __pbssBANK0 00B3          __size_of_envia_lcd 00FC             _mostra_lcd_buff 1C62  
                 ?_OpenSPI1 0027    __size_of_ctrl_lcd_cursor 0040        __size_of_receiveData 01E6  
                   ?___wmul 0001            _receiveData$1794 001A                     i2u99_40 1CB2  
                   i2u99_41 1CB0                     _SSP1BUF 000FC9                  ??_OpenSPI1 002A  
                _envia_dado 1D18                     __Hparam 0000                     __Lparam 0000  
                 ?_tempo_us 0027           __end_of_lcd_start 17AC             __size_of___wmul 003E  
                   ___lwdiv 1AEC                     ___lwmod 1A5C                   _CMCONbits 000FB4  
              __psmallconst 1000              lcd_start@F7252 00A8                     __pcinit 1B58  
                   __ramtop 1000           __end_of_envia_lcd 19AC                     __ptext0 1012  
                   __ptext1 1C62                     __ptext2 19AC                     __ptext3 1D18  
                   __ptext4 15A8                     __ptext5 1CDE                     __ptext6 1C22  
                   __ptext7 18B0                     __ptext8 17AC                     __ptext9 1BBE  
                   _ledList 00C6                  _limpa_tela 1CDE                     _dpowers 1000  
                   _pos_lcd 19AC     __end_of_mostra_lcd_buff 1CA0                     _sprintf 1340  
      end_of_initialization 1BB8           OpenSPI1@smp_phase 0029                  ??_tempo_us 0029  
       mostra_lcd_buff@line 0061                     postdec1 000FE5                     postdec2 000FDD  
                   postinc0 000FEE                     postinc1 000FE6                     postinc2 000FDE  
         OpenSPI1@sync_mode 0027                 pos_lcd@line 002F           ??_ctrl_lcd_cursor 0030  
    ctrl_lcd_cursor@comando 0060                   _PORTBbits 000F81                   _PORTDbits 000F83  
          move_cursor@F7230 0036           lcd_start@lcd_conf 0067           lcd_start@contagem 0066  
                 _TRISCbits 000F94                   _TRISFbits 000F97                  _update_lcd 00B2  
               ?_envia_dado 002F              __end_of___wmul 1CDE               __pidataCOMRAM 1D4A  
             envia_lcd@byte 0029                 ?_limpa_tela 0001                receiveData@i 0021  
              receiveData@l 0025                receiveData@x 001D                receiveData@y 001F  
       start_initialization 1B58            ?_mostra_lcd_buff 0061            __CFG_OSC$INTIO67 000000  
         __size_of_OpenSPI1 0064                    ??___wmul 0005                 __pdataBANK0 0098  
          __CFG_LPT1OSC$OFF 000000                 __pbssBIGRAM 00C6         __size_of_envia_dado 001A  
             __pcstackBANK0 0060         __end_of__stringdata 1011                 sprintf@_val 0070  
               sprintf@flag 006E               ??_receiveData 0007                 sprintf@prec 006F  
       __size_of_limpa_tela 001E            ___lwdiv@dividend 0027           __CFG_CCP2MX$PORTC 000000  
                 __pintcode 0008                _mensagem_lcd 00B5               ?_Delay10KTCYx 0027  
                  ?___lwdiv 0027                    ?___lwmod 0060           __size_of_tempo_us 0104  
                 _lcd_start 15A8                 __smallconst 1000                   _envia_lcd 18B0  
                  ?_pos_lcd 002F            ___lwdiv@quotient 002C                    ?_sprintf 0064  
            ___wmul@product 0005             _ctrl_lcd_cursor 1C22                    _PIE1bits 000F9D  
                  i2u100_40 1CD4                    i2u100_41 1CD2                    i2u101_40 0048  
                  i2u101_41 0046                    i2u102_40 006E                    i2u102_41 006C  
                  i2u103_40 00A8                    i2u103_41 00A6                    i2u104_45 00BA  
                  _PIR1bits 000F9E       __CFG_DATABW$DATA16BIT 000000            __CFG_WDTPS$32768 000000  
       __end_of_receiveData 01EE              ??_Delay10KTCYx 0028                   main@F7281 00AE  
                 main@F7279 0098                    _SSP1CON1 000FC6                    _SSP1STAT 000FC7  
         __CFG_ECCPMX$PORTE 000000                  ?_lcd_start 0001                  _ADCON0bits 000FC2  
                _ADCON1bits 000FC1                 __stringdata 100A           ___wmul@multiplier 0001  
                 main@color 0092          receiveData@ledData 0023                  ?_envia_lcd 0029  
                 main@pixel 007C           main@colors_offset 008C            Delay10KTCYx@unit 0027  
                 copy_data0 1B8C                   copy_data1 1BAC                ??_envia_dado 0030  
                  _OpenSPI1 1BBE                    __Hrparam 0000                    __Lrparam 0000  
         envia_lcd@cmd_data 002A            __size_of___lwdiv 006C            __size_of___lwmod 0090  
              ??_limpa_tela 002F          __end_of_envia_dado 1D32             ___lwdiv@divisor 0029  
           ___lwdiv@counter 002E                    __ptext10 1340                    __ptext11 1D32  
                  __ptext12 1AEC                    __ptext13 1A5C                    __ptext15 1CA0  
              _SSP1CON1bits 000FC6            __size_of_pos_lcd 00B0     __end_of_ctrl_lcd_cursor 1C62  
          __size_of_sprintf 0268        ctrl_lcd_cursor@F7238 0031               __size_of_main 032E  
               _receiveData 0008          __end_of_limpa_tela 1CFC                    _tempo_us 17AC  
              _SSP1STATbits 000FC7       mostra_lcd_buff@column 0062       mostra_lcd_buff@p_char 0063  
               ??_lcd_start 0065       __CFG_ADDRBW$ADDR20BIT 000000                  _INTCONbits 000FF2  
               ??_envia_lcd 002D               pos_lcd@column 0030        __end_of_Delay10KTCYx 1D4A  
                  intlevel2 0000                   sprintf@ap 006C                   sprintf@sp 0064  
          ___lwmod@dividend 0060    __size_of_mostra_lcd_buff 003E                  _OSCCONbits 000FD3  
             tempo_us@tempo 0027            receiveData@board 0018                    sprintf@c 0075  
                  sprintf@f 0066             ___lwmod@divisor 0062             ___lwmod@counter 0030  
          ?_ctrl_lcd_cursor 002F     ctrl_lcd_cursor@controle 002F  
