

Microchip Technology PIC18 LITE Macro Assembler V1.12 build 49521 
                                                                                               Tue May  7 20:58:34 2013

HI-TECH Software Omniscient Code Generator (Lite mode) build 49521
     1  0000                     opt subtitle "HI-TECH Software Omniscient Code Generator (Lite mode) build 49521"
     2                           opt subtitle "HI-TECH Software Omniscient Code Generator (Lite mode) build 49521"
     3                           
     4                           opt pagewidth 120
     5                           
     6                           	opt lm
     7                           
     8  0000                     porta	equ	0F80h
     9  0000                     portb	equ	0F81h
    10  0000                     portc	equ	0F82h
    11  0000                     portd	equ	0F83h
    12  0000                     porte	equ	0F84h
    13  0000                     lata	equ	0F89h
    14  0000                     latb	equ	0F8Ah
    15  0000                     latc	equ	0F8Bh
    16  0000                     latd	equ	0F8Ch
    17  0000                     late	equ	0F8Dh
    18  0000                     trisa	equ	0F92h
    19  0000                     trisb	equ	0F93h
    20  0000                     trisc	equ	0F94h
    21  0000                     trisd	equ	0F95h
    22  0000                     trise	equ	0F96h
    23  0000                     pie1	equ	0F9Dh
    24  0000                     pir1	equ	0F9Eh
    25  0000                     ipr1	equ	0F9Fh
    26  0000                     pie2	equ	0FA0h
    27  0000                     pir2	equ	0FA1h
    28  0000                     ipr2	equ	0FA2h
    29  0000                     t3con	equ	0FB1h
    30  0000                     tmr3l	equ	0FB2h
    31  0000                     tmr3h	equ	0FB3h
    32  0000                     ccp1con	equ	0FBDh
    33  0000                     ccpr1l	equ	0FBEh
    34  0000                     ccpr1h	equ	0FBFh
    35  0000                     adcon1	equ	0FC1h
    36  0000                     adcon0	equ	0FC2h
    37  0000                     adresl	equ	0FC3h
    38  0000                     adresh	equ	0FC4h
    39  0000                     sspcon2	equ	0FC5h
    40  0000                     sspcon1	equ	0FC6h
    41  0000                     sspstat	equ	0FC7h
    42  0000                     sspadd	equ	0FC8h
    43  0000                     sspbuf	equ	0FC9h
    44  0000                     t2con	equ	0FCAh
    45  0000                     pr2	equ	0FCBh
    46  0000                     tmr2	equ	0FCCh
    47  0000                     t1con	equ	0FCDh
    48  0000                     tmr1l	equ	0FCEh
    49  0000                     tmr1h	equ	0FCFh
    50  0000                     rcon	equ	0FD0h
    51  0000                     wdtcon	equ	0FD1h
    52  0000                     lvdcon	equ	0FD2h
    53  0000                     osccon	equ	0FD3h
    54  0000                     t0con	equ	0FD5h
    55  0000                     tmr0l	equ	0FD6h
    56  0000                     tmr0h	equ	0FD7h
    57  0000                     status	equ	0FD8h
    58  0000                     fsr2	equ	0FD9h
    59  0000                     fsr2l	equ	0FD9h
    60  0000                     fsr2h	equ	0FDAh
    61  0000                     plusw2	equ	0FDBh
    62  0000                     preinc2	equ	0FDCh
    63  0000                     postdec2	equ	0FDDh
    64  0000                     postinc2	equ	0FDEh
    65  0000                     indf2	equ	0FDFh
    66  0000                     bsr	equ	0FE0h
    67  0000                     fsr1	equ	0FE1h
    68  0000                     fsr1l	equ	0FE1h
    69  0000                     fsr1h	equ	0FE2h
    70  0000                     plusw1	equ	0FE3h
    71  0000                     preinc1	equ	0FE4h
    72  0000                     postdec1	equ	0FE5h
    73  0000                     postinc1	equ	0FE6h
    74  0000                     indf1	equ	0FE7h
    75  0000                     wreg	equ	0FE8h
    76  0000                     fsr0	equ	0FE9h
    77  0000                     fsr0l	equ	0FE9h
    78  0000                     fsr0h	equ	0FEAh
    79  0000                     plusw0	equ	0FEBh
    80  0000                     preinc0	equ	0FECh
    81  0000                     postdec0	equ	0FEDh
    82  0000                     postinc0	equ	0FEEh
    83  0000                     indf0	equ	0FEFh
    84  0000                     intcon3	equ	0FF0h
    85  0000                     intcon2	equ	0FF1h
    86  0000                     intcon	equ	0FF2h
    87  0000                     prod	equ	0FF3h
    88  0000                     prodl	equ	0FF3h
    89  0000                     prodh	equ	0FF4h
    90  0000                     tablat	equ	0FF5h
    91  0000                     tblptr	equ	0FF6h
    92  0000                     tblptrl	equ	0FF6h
    93  0000                     tblptrh	equ	0FF7h
    94  0000                     tblptru	equ	0FF8h
    95  0000                     pcl	equ	0FF9h
    96  0000                     pclat	equ	0FFAh
    97  0000                     pclath	equ	0FFAh
    98  0000                     pclatu	equ	0FFBh
    99  0000                     stkptr	equ	0FFCh
   100  0000                     tosl	equ	0FFDh
   101  0000                     tosh	equ	0FFEh
   102  0000                     tosu	equ	0FFFh
   103                           opt subtitle "HI-TECH Software Omniscient Code Generator (Lite mode) build 49521"
   104                           
   105  0000                     	endm
   106                           opt subtitle "HI-TECH Software Omniscient Code Generator (Lite mode) build 49521"
   107                           
   108                           opt pagewidth 120
   109  0000                     SSP2CON2 equ 0F62h ;# 
   110                           opt subtitle "HI-TECH Software Omniscient Code Generator (Lite mode) build 49521"
   111  0000                     SSP2CON1 equ 0F63h ;# 
   112                           opt subtitle "HI-TECH Software Omniscient Code Generator (Lite mode) build 49521"
   113  0000                     SSP2STAT equ 0F64h ;# 
   114                           opt subtitle "HI-TECH Software Omniscient Code Generator (Lite mode) build 49521"
   115  0000                     SSP2ADD equ 0F65h ;# 
   116                           opt subtitle "HI-TECH Software Omniscient Code Generator (Lite mode) build 49521"
   117  0000                     SSP2BUF equ 0F66h ;# 
   118                           opt subtitle "HI-TECH Software Omniscient Code Generator (Lite mode) build 49521"
   119  0000                     ECCP2DEL equ 0F67h ;# 
   120                           opt subtitle "HI-TECH Software Omniscient Code Generator (Lite mode) build 49521"
   121  0000                     ECCP2AS equ 0F68h ;# 
   122                           opt subtitle "HI-TECH Software Omniscient Code Generator (Lite mode) build 49521"
   123  0000                     ECCP3DEL equ 0F69h ;# 
   124                           opt subtitle "HI-TECH Software Omniscient Code Generator (Lite mode) build 49521"
   125  0000                     ECCP3AS equ 0F6Ah ;# 
   126                           opt subtitle "HI-TECH Software Omniscient Code Generator (Lite mode) build 49521"
   127  0000                     RCSTA2 equ 0F6Bh ;# 
   128                           opt subtitle "HI-TECH Software Omniscient Code Generator (Lite mode) build 49521"
   129  0000                     TXSTA2 equ 0F6Ch ;# 
   130                           opt subtitle "HI-TECH Software Omniscient Code Generator (Lite mode) build 49521"
   131  0000                     TXREG2 equ 0F6Dh ;# 
   132                           opt subtitle "HI-TECH Software Omniscient Code Generator (Lite mode) build 49521"
   133  0000                     RCREG2 equ 0F6Eh ;# 
   134                           opt subtitle "HI-TECH Software Omniscient Code Generator (Lite mode) build 49521"
   135  0000                     SPBRG2 equ 0F6Fh ;# 
   136                           opt subtitle "HI-TECH Software Omniscient Code Generator (Lite mode) build 49521"
   137  0000                     CCP5CON equ 0F70h ;# 
   138                           opt subtitle "HI-TECH Software Omniscient Code Generator (Lite mode) build 49521"
   139  0000                     CCPR5 equ 0F71h ;# 
   140                           opt subtitle "HI-TECH Software Omniscient Code Generator (Lite mode) build 49521"
   141  0000                     CCPR5L equ 0F71h ;# 
   142                           opt subtitle "HI-TECH Software Omniscient Code Generator (Lite mode) build 49521"
   143  0000                     CCPR5H equ 0F72h ;# 
   144                           opt subtitle "HI-TECH Software Omniscient Code Generator (Lite mode) build 49521"
   145  0000                     CCP4CON equ 0F73h ;# 
   146                           opt subtitle "HI-TECH Software Omniscient Code Generator (Lite mode) build 49521"
   147  0000                     CCPR4 equ 0F74h ;# 
   148                           opt subtitle "HI-TECH Software Omniscient Code Generator (Lite mode) build 49521"
   149  0000                     CCPR4L equ 0F74h ;# 
   150                           opt subtitle "HI-TECH Software Omniscient Code Generator (Lite mode) build 49521"
   151  0000                     CCPR4H equ 0F75h ;# 
   152                           opt subtitle "HI-TECH Software Omniscient Code Generator (Lite mode) build 49521"
   153  0000                     T4CON equ 0F76h ;# 
   154                           opt subtitle "HI-TECH Software Omniscient Code Generator (Lite mode) build 49521"
   155  0000                     PR4 equ 0F77h ;# 
   156                           opt subtitle "HI-TECH Software Omniscient Code Generator (Lite mode) build 49521"
   157  0000                     TMR4 equ 0F78h ;# 
   158                           opt subtitle "HI-TECH Software Omniscient Code Generator (Lite mode) build 49521"
   159  0000                     ECCP1DEL equ 0F79h ;# 
   160                           opt subtitle "HI-TECH Software Omniscient Code Generator (Lite mode) build 49521"
   161  0000                     BAUDCON2 equ 0F7Ch ;# 
   162                           opt subtitle "HI-TECH Software Omniscient Code Generator (Lite mode) build 49521"
   163  0000                     SPBRGH2 equ 0F7Dh ;# 
   164                           opt subtitle "HI-TECH Software Omniscient Code Generator (Lite mode) build 49521"
   165  0000                     BAUDCON1 equ 0F7Eh ;# 
   166                           opt subtitle "HI-TECH Software Omniscient Code Generator (Lite mode) build 49521"
   167  0000                     BAUDCON equ 0F7Eh ;# 
   168                           opt subtitle "HI-TECH Software Omniscient Code Generator (Lite mode) build 49521"
   169  0000                     BAUDCTL equ 0F7Eh ;# 
   170                           opt subtitle "HI-TECH Software Omniscient Code Generator (Lite mode) build 49521"
   171  0000                     SPBRGH1 equ 0F7Fh ;# 
   172                           opt subtitle "HI-TECH Software Omniscient Code Generator (Lite mode) build 49521"
   173  0000                     SPBRGH equ 0F7Fh ;# 
   174                           opt subtitle "HI-TECH Software Omniscient Code Generator (Lite mode) build 49521"
   175  0000                     PORTA equ 0F80h ;# 
   176                           opt subtitle "HI-TECH Software Omniscient Code Generator (Lite mode) build 49521"
   177  0000                     PORTB equ 0F81h ;# 
   178                           opt subtitle "HI-TECH Software Omniscient Code Generator (Lite mode) build 49521"
   179  0000                     PORTC equ 0F82h ;# 
   180                           opt subtitle "HI-TECH Software Omniscient Code Generator (Lite mode) build 49521"
   181  0000                     PORTD equ 0F83h ;# 
   182                           opt subtitle "HI-TECH Software Omniscient Code Generator (Lite mode) build 49521"
   183  0000                     PORTE equ 0F84h ;# 
   184                           opt subtitle "HI-TECH Software Omniscient Code Generator (Lite mode) build 49521"
   185  0000                     PORTF equ 0F85h ;# 
   186                           opt subtitle "HI-TECH Software Omniscient Code Generator (Lite mode) build 49521"
   187  0000                     PORTG equ 0F86h ;# 
   188                           opt subtitle "HI-TECH Software Omniscient Code Generator (Lite mode) build 49521"
   189  0000                     PORTH equ 0F87h ;# 
   190                           opt subtitle "HI-TECH Software Omniscient Code Generator (Lite mode) build 49521"
   191  0000                     PORTJ equ 0F88h ;# 
   192                           opt subtitle "HI-TECH Software Omniscient Code Generator (Lite mode) build 49521"
   193  0000                     LATA equ 0F89h ;# 
   194                           opt subtitle "HI-TECH Software Omniscient Code Generator (Lite mode) build 49521"
   195  0000                     LATB equ 0F8Ah ;# 
   196                           opt subtitle "HI-TECH Software Omniscient Code Generator (Lite mode) build 49521"
   197  0000                     LATC equ 0F8Bh ;# 
   198                           opt subtitle "HI-TECH Software Omniscient Code Generator (Lite mode) build 49521"
   199  0000                     LATD equ 0F8Ch ;# 
   200                           opt subtitle "HI-TECH Software Omniscient Code Generator (Lite mode) build 49521"
   201  0000                     LATE equ 0F8Dh ;# 
   202                           opt subtitle "HI-TECH Software Omniscient Code Generator (Lite mode) build 49521"
   203  0000                     LATF equ 0F8Eh ;# 
   204                           opt subtitle "HI-TECH Software Omniscient Code Generator (Lite mode) build 49521"
   205  0000                     LATG equ 0F8Fh ;# 
   206                           opt subtitle "HI-TECH Software Omniscient Code Generator (Lite mode) build 49521"
   207  0000                     LATH equ 0F90h ;# 
   208                           opt subtitle "HI-TECH Software Omniscient Code Generator (Lite mode) build 49521"
   209  0000                     LATJ equ 0F91h ;# 
   210                           opt subtitle "HI-TECH Software Omniscient Code Generator (Lite mode) build 49521"
   211  0000                     TRISA equ 0F92h ;# 
   212                           opt subtitle "HI-TECH Software Omniscient Code Generator (Lite mode) build 49521"
   213  0000                     DDRA equ 0F92h ;# 
   214                           opt subtitle "HI-TECH Software Omniscient Code Generator (Lite mode) build 49521"
   215  0000                     TRISB equ 0F93h ;# 
   216                           opt subtitle "HI-TECH Software Omniscient Code Generator (Lite mode) build 49521"
   217  0000                     DDRB equ 0F93h ;# 
   218                           opt subtitle "HI-TECH Software Omniscient Code Generator (Lite mode) build 49521"
   219  0000                     TRISC equ 0F94h ;# 
   220                           opt subtitle "HI-TECH Software Omniscient Code Generator (Lite mode) build 49521"
   221  0000                     DDRC equ 0F94h ;# 
   222                           opt subtitle "HI-TECH Software Omniscient Code Generator (Lite mode) build 49521"
   223  0000                     TRISD equ 0F95h ;# 
   224                           opt subtitle "HI-TECH Software Omniscient Code Generator (Lite mode) build 49521"
   225  0000                     DDRD equ 0F95h ;# 
   226                           opt subtitle "HI-TECH Software Omniscient Code Generator (Lite mode) build 49521"
   227  0000                     TRISE equ 0F96h ;# 
   228                           opt subtitle "HI-TECH Software Omniscient Code Generator (Lite mode) build 49521"
   229  0000                     DDRE equ 0F96h ;# 
   230                           opt subtitle "HI-TECH Software Omniscient Code Generator (Lite mode) build 49521"
   231  0000                     TRISF equ 0F97h ;# 
   232                           opt subtitle "HI-TECH Software Omniscient Code Generator (Lite mode) build 49521"
   233  0000                     DDRF equ 0F97h ;# 
   234                           opt subtitle "HI-TECH Software Omniscient Code Generator (Lite mode) build 49521"
   235  0000                     TRISG equ 0F98h ;# 
   236                           opt subtitle "HI-TECH Software Omniscient Code Generator (Lite mode) build 49521"
   237  0000                     DDRG equ 0F98h ;# 
   238                           opt subtitle "HI-TECH Software Omniscient Code Generator (Lite mode) build 49521"
   239  0000                     TRISH equ 0F99h ;# 
   240                           opt subtitle "HI-TECH Software Omniscient Code Generator (Lite mode) build 49521"
   241  0000                     DDRH equ 0F99h ;# 
   242                           opt subtitle "HI-TECH Software Omniscient Code Generator (Lite mode) build 49521"
   243  0000                     TRISJ equ 0F9Ah ;# 
   244                           opt subtitle "HI-TECH Software Omniscient Code Generator (Lite mode) build 49521"
   245  0000                     DDRJ equ 0F9Ah ;# 
   246                           opt subtitle "HI-TECH Software Omniscient Code Generator (Lite mode) build 49521"
   247  0000                     OSCTUNE equ 0F9Bh ;# 
   248                           opt subtitle "HI-TECH Software Omniscient Code Generator (Lite mode) build 49521"
   249  0000                     MEMCON equ 0F9Ch ;# 
   250                           opt subtitle "HI-TECH Software Omniscient Code Generator (Lite mode) build 49521"
   251  0000                     PIE1 equ 0F9Dh ;# 
   252                           opt subtitle "HI-TECH Software Omniscient Code Generator (Lite mode) build 49521"
   253  0000                     PIR1 equ 0F9Eh ;# 
   254                           opt subtitle "HI-TECH Software Omniscient Code Generator (Lite mode) build 49521"
   255  0000                     IPR1 equ 0F9Fh ;# 
   256                           opt subtitle "HI-TECH Software Omniscient Code Generator (Lite mode) build 49521"
   257  0000                     PIE2 equ 0FA0h ;# 
   258                           opt subtitle "HI-TECH Software Omniscient Code Generator (Lite mode) build 49521"
   259  0000                     PIR2 equ 0FA1h ;# 
   260                           opt subtitle "HI-TECH Software Omniscient Code Generator (Lite mode) build 49521"
   261  0000                     IPR2 equ 0FA2h ;# 
   262                           opt subtitle "HI-TECH Software Omniscient Code Generator (Lite mode) build 49521"
   263  0000                     PIE3 equ 0FA3h ;# 
   264                           opt subtitle "HI-TECH Software Omniscient Code Generator (Lite mode) build 49521"
   265  0000                     PIR3 equ 0FA4h ;# 
   266                           opt subtitle "HI-TECH Software Omniscient Code Generator (Lite mode) build 49521"
   267  0000                     IPR3 equ 0FA5h ;# 
   268                           opt subtitle "HI-TECH Software Omniscient Code Generator (Lite mode) build 49521"
   269  0000                     EECON1 equ 0FA6h ;# 
   270                           opt subtitle "HI-TECH Software Omniscient Code Generator (Lite mode) build 49521"
   271  0000                     EECON2 equ 0FA7h ;# 
   272                           opt subtitle "HI-TECH Software Omniscient Code Generator (Lite mode) build 49521"
   273  0000                     EEDATA equ 0FA8h ;# 
   274                           opt subtitle "HI-TECH Software Omniscient Code Generator (Lite mode) build 49521"
   275  0000                     EEADR equ 0FA9h ;# 
   276                           opt subtitle "HI-TECH Software Omniscient Code Generator (Lite mode) build 49521"
   277  0000                     EEADRH equ 0FAAh ;# 
   278                           opt subtitle "HI-TECH Software Omniscient Code Generator (Lite mode) build 49521"
   279  0000                     RCSTA1 equ 0FABh ;# 
   280                           opt subtitle "HI-TECH Software Omniscient Code Generator (Lite mode) build 49521"
   281  0000                     RCSTA equ 0FABh ;# 
   282                           opt subtitle "HI-TECH Software Omniscient Code Generator (Lite mode) build 49521"
   283  0000                     TXSTA1 equ 0FACh ;# 
   284                           opt subtitle "HI-TECH Software Omniscient Code Generator (Lite mode) build 49521"
   285  0000                     TXSTA equ 0FACh ;# 
   286                           opt subtitle "HI-TECH Software Omniscient Code Generator (Lite mode) build 49521"
   287  0000                     TXREG1 equ 0FADh ;# 
   288                           opt subtitle "HI-TECH Software Omniscient Code Generator (Lite mode) build 49521"
   289  0000                     TXREG equ 0FADh ;# 
   290                           opt subtitle "HI-TECH Software Omniscient Code Generator (Lite mode) build 49521"
   291  0000                     RCREG1 equ 0FAEh ;# 
   292                           opt subtitle "HI-TECH Software Omniscient Code Generator (Lite mode) build 49521"
   293  0000                     RCREG equ 0FAEh ;# 
   294                           opt subtitle "HI-TECH Software Omniscient Code Generator (Lite mode) build 49521"
   295  0000                     SPBRG1 equ 0FAFh ;# 
   296                           opt subtitle "HI-TECH Software Omniscient Code Generator (Lite mode) build 49521"
   297  0000                     SPBRG equ 0FAFh ;# 
   298                           opt subtitle "HI-TECH Software Omniscient Code Generator (Lite mode) build 49521"
   299  0000                     PSPCON equ 0FB0h ;# 
   300                           opt subtitle "HI-TECH Software Omniscient Code Generator (Lite mode) build 49521"
   301  0000                     T3CON equ 0FB1h ;# 
   302                           opt subtitle "HI-TECH Software Omniscient Code Generator (Lite mode) build 49521"
   303  0000                     TMR3 equ 0FB2h ;# 
   304                           opt subtitle "HI-TECH Software Omniscient Code Generator (Lite mode) build 49521"
   305  0000                     TMR3L equ 0FB2h ;# 
   306                           opt subtitle "HI-TECH Software Omniscient Code Generator (Lite mode) build 49521"
   307  0000                     TMR3H equ 0FB3h ;# 
   308                           opt subtitle "HI-TECH Software Omniscient Code Generator (Lite mode) build 49521"
   309  0000                     CMCON equ 0FB4h ;# 
   310                           opt subtitle "HI-TECH Software Omniscient Code Generator (Lite mode) build 49521"
   311  0000                     CVRCON equ 0FB5h ;# 
   312                           opt subtitle "HI-TECH Software Omniscient Code Generator (Lite mode) build 49521"
   313  0000                     ECCP1AS equ 0FB6h ;# 
   314                           opt subtitle "HI-TECH Software Omniscient Code Generator (Lite mode) build 49521"
   315  0000                     CCP3CON equ 0FB7h ;# 
   316                           opt subtitle "HI-TECH Software Omniscient Code Generator (Lite mode) build 49521"
   317  0000                     ECCP3CON equ 0FB7h ;# 
   318                           opt subtitle "HI-TECH Software Omniscient Code Generator (Lite mode) build 49521"
   319  0000                     CCPR3 equ 0FB8h ;# 
   320                           opt subtitle "HI-TECH Software Omniscient Code Generator (Lite mode) build 49521"
   321  0000                     CCPR3L equ 0FB8h ;# 
   322                           opt subtitle "HI-TECH Software Omniscient Code Generator (Lite mode) build 49521"
   323  0000                     CCPR3H equ 0FB9h ;# 
   324                           opt subtitle "HI-TECH Software Omniscient Code Generator (Lite mode) build 49521"
   325  0000                     CCP2CON equ 0FBAh ;# 
   326                           opt subtitle "HI-TECH Software Omniscient Code Generator (Lite mode) build 49521"
   327  0000                     ECCP2CON equ 0FBAh ;# 
   328                           opt subtitle "HI-TECH Software Omniscient Code Generator (Lite mode) build 49521"
   329  0000                     CCPR2 equ 0FBBh ;# 
   330                           opt subtitle "HI-TECH Software Omniscient Code Generator (Lite mode) build 49521"
   331  0000                     CCPR2L equ 0FBBh ;# 
   332                           opt subtitle "HI-TECH Software Omniscient Code Generator (Lite mode) build 49521"
   333  0000                     CCPR2H equ 0FBCh ;# 
   334                           opt subtitle "HI-TECH Software Omniscient Code Generator (Lite mode) build 49521"
   335  0000                     CCP1CON equ 0FBDh ;# 
   336                           opt subtitle "HI-TECH Software Omniscient Code Generator (Lite mode) build 49521"
   337  0000                     ECCP1CON equ 0FBDh ;# 
   338                           opt subtitle "HI-TECH Software Omniscient Code Generator (Lite mode) build 49521"
   339  0000                     CCPR1 equ 0FBEh ;# 
   340                           opt subtitle "HI-TECH Software Omniscient Code Generator (Lite mode) build 49521"
   341  0000                     CCPR1L equ 0FBEh ;# 
   342                           opt subtitle "HI-TECH Software Omniscient Code Generator (Lite mode) build 49521"
   343  0000                     CCPR1H equ 0FBFh ;# 
   344                           opt subtitle "HI-TECH Software Omniscient Code Generator (Lite mode) build 49521"
   345  0000                     ADCON2 equ 0FC0h ;# 
   346                           opt subtitle "HI-TECH Software Omniscient Code Generator (Lite mode) build 49521"
   347  0000                     ADCON1 equ 0FC1h ;# 
   348                           opt subtitle "HI-TECH Software Omniscient Code Generator (Lite mode) build 49521"
   349  0000                     ADCON0 equ 0FC2h ;# 
   350                           opt subtitle "HI-TECH Software Omniscient Code Generator (Lite mode) build 49521"
   351  0000                     ADRES equ 0FC3h ;# 
   352                           opt subtitle "HI-TECH Software Omniscient Code Generator (Lite mode) build 49521"
   353  0000                     ADRESL equ 0FC3h ;# 
   354                           opt subtitle "HI-TECH Software Omniscient Code Generator (Lite mode) build 49521"
   355  0000                     ADRESH equ 0FC4h ;# 
   356                           opt subtitle "HI-TECH Software Omniscient Code Generator (Lite mode) build 49521"
   357  0000                     SSP1CON2 equ 0FC5h ;# 
   358                           opt subtitle "HI-TECH Software Omniscient Code Generator (Lite mode) build 49521"
   359  0000                     SSPCON2 equ 0FC5h ;# 
   360                           opt subtitle "HI-TECH Software Omniscient Code Generator (Lite mode) build 49521"
   361  0000                     SSP1CON1 equ 0FC6h ;# 
   362                           opt subtitle "HI-TECH Software Omniscient Code Generator (Lite mode) build 49521"
   363  0000                     SSPCON1 equ 0FC6h ;# 
   364                           opt subtitle "HI-TECH Software Omniscient Code Generator (Lite mode) build 49521"
   365  0000                     SSP1STAT equ 0FC7h ;# 
   366                           opt subtitle "HI-TECH Software Omniscient Code Generator (Lite mode) build 49521"
   367  0000                     SSPSTAT equ 0FC7h ;# 
   368                           opt subtitle "HI-TECH Software Omniscient Code Generator (Lite mode) build 49521"
   369  0000                     SSP1ADD equ 0FC8h ;# 
   370                           opt subtitle "HI-TECH Software Omniscient Code Generator (Lite mode) build 49521"
   371  0000                     SSPADD equ 0FC8h ;# 
   372                           opt subtitle "HI-TECH Software Omniscient Code Generator (Lite mode) build 49521"
   373  0000                     SSP1BUF equ 0FC9h ;# 
   374                           opt subtitle "HI-TECH Software Omniscient Code Generator (Lite mode) build 49521"
   375  0000                     SSPBUF equ 0FC9h ;# 
   376                           opt subtitle "HI-TECH Software Omniscient Code Generator (Lite mode) build 49521"
   377  0000                     T2CON equ 0FCAh ;# 
   378                           opt subtitle "HI-TECH Software Omniscient Code Generator (Lite mode) build 49521"
   379  0000                     PR2 equ 0FCBh ;# 
   380                           opt subtitle "HI-TECH Software Omniscient Code Generator (Lite mode) build 49521"
   381  0000                     TMR2 equ 0FCCh ;# 
   382                           opt subtitle "HI-TECH Software Omniscient Code Generator (Lite mode) build 49521"
   383  0000                     T1CON equ 0FCDh ;# 
   384                           opt subtitle "HI-TECH Software Omniscient Code Generator (Lite mode) build 49521"
   385  0000                     TMR1 equ 0FCEh ;# 
   386                           opt subtitle "HI-TECH Software Omniscient Code Generator (Lite mode) build 49521"
   387  0000                     TMR1L equ 0FCEh ;# 
   388                           opt subtitle "HI-TECH Software Omniscient Code Generator (Lite mode) build 49521"
   389  0000                     TMR1H equ 0FCFh ;# 
   390                           opt subtitle "HI-TECH Software Omniscient Code Generator (Lite mode) build 49521"
   391  0000                     RCON equ 0FD0h ;# 
   392                           opt subtitle "HI-TECH Software Omniscient Code Generator (Lite mode) build 49521"
   393  0000                     WDTCON equ 0FD1h ;# 
   394                           opt subtitle "HI-TECH Software Omniscient Code Generator (Lite mode) build 49521"
   395  0000                     HLVDCON equ 0FD2h ;# 
   396                           opt subtitle "HI-TECH Software Omniscient Code Generator (Lite mode) build 49521"
   397  0000                     LVDCON equ 0FD2h ;# 
   398                           opt subtitle "HI-TECH Software Omniscient Code Generator (Lite mode) build 49521"
   399  0000                     OSCCON equ 0FD3h ;# 
   400                           opt subtitle "HI-TECH Software Omniscient Code Generator (Lite mode) build 49521"
   401  0000                     T0CON equ 0FD5h ;# 
   402                           opt subtitle "HI-TECH Software Omniscient Code Generator (Lite mode) build 49521"
   403  0000                     TMR0 equ 0FD6h ;# 
   404                           opt subtitle "HI-TECH Software Omniscient Code Generator (Lite mode) build 49521"
   405  0000                     TMR0L equ 0FD6h ;# 
   406                           opt subtitle "HI-TECH Software Omniscient Code Generator (Lite mode) build 49521"
   407  0000                     TMR0H equ 0FD7h ;# 
   408                           opt subtitle "HI-TECH Software Omniscient Code Generator (Lite mode) build 49521"
   409  0000                     STATUS equ 0FD8h ;# 
   410                           opt subtitle "HI-TECH Software Omniscient Code Generator (Lite mode) build 49521"
   411  0000                     FSR2 equ 0FD9h ;# 
   412                           opt subtitle "HI-TECH Software Omniscient Code Generator (Lite mode) build 49521"
   413  0000                     FSR2L equ 0FD9h ;# 
   414                           opt subtitle "HI-TECH Software Omniscient Code Generator (Lite mode) build 49521"
   415  0000                     FSR2H equ 0FDAh ;# 
   416                           opt subtitle "HI-TECH Software Omniscient Code Generator (Lite mode) build 49521"
   417  0000                     PLUSW2 equ 0FDBh ;# 
   418                           opt subtitle "HI-TECH Software Omniscient Code Generator (Lite mode) build 49521"
   419  0000                     PREINC2 equ 0FDCh ;# 
   420                           opt subtitle "HI-TECH Software Omniscient Code Generator (Lite mode) build 49521"
   421  0000                     POSTDEC2 equ 0FDDh ;# 
   422                           opt subtitle "HI-TECH Software Omniscient Code Generator (Lite mode) build 49521"
   423  0000                     POSTINC2 equ 0FDEh ;# 
   424                           opt subtitle "HI-TECH Software Omniscient Code Generator (Lite mode) build 49521"
   425  0000                     INDF2 equ 0FDFh ;# 
   426                           opt subtitle "HI-TECH Software Omniscient Code Generator (Lite mode) build 49521"
   427  0000                     BSR equ 0FE0h ;# 
   428                           opt subtitle "HI-TECH Software Omniscient Code Generator (Lite mode) build 49521"
   429  0000                     FSR1 equ 0FE1h ;# 
   430                           opt subtitle "HI-TECH Software Omniscient Code Generator (Lite mode) build 49521"
   431  0000                     FSR1L equ 0FE1h ;# 
   432                           opt subtitle "HI-TECH Software Omniscient Code Generator (Lite mode) build 49521"
   433  0000                     FSR1H equ 0FE2h ;# 
   434                           opt subtitle "HI-TECH Software Omniscient Code Generator (Lite mode) build 49521"
   435  0000                     PLUSW1 equ 0FE3h ;# 
   436                           opt subtitle "HI-TECH Software Omniscient Code Generator (Lite mode) build 49521"
   437  0000                     PREINC1 equ 0FE4h ;# 
   438                           opt subtitle "HI-TECH Software Omniscient Code Generator (Lite mode) build 49521"
   439  0000                     POSTDEC1 equ 0FE5h ;# 
   440                           opt subtitle "HI-TECH Software Omniscient Code Generator (Lite mode) build 49521"
   441  0000                     POSTINC1 equ 0FE6h ;# 
   442                           opt subtitle "HI-TECH Software Omniscient Code Generator (Lite mode) build 49521"
   443  0000                     INDF1 equ 0FE7h ;# 
   444                           opt subtitle "HI-TECH Software Omniscient Code Generator (Lite mode) build 49521"
   445  0000                     WREG equ 0FE8h ;# 
   446                           opt subtitle "HI-TECH Software Omniscient Code Generator (Lite mode) build 49521"
   447  0000                     FSR0 equ 0FE9h ;# 
   448                           opt subtitle "HI-TECH Software Omniscient Code Generator (Lite mode) build 49521"
   449  0000                     FSR0L equ 0FE9h ;# 
   450                           opt subtitle "HI-TECH Software Omniscient Code Generator (Lite mode) build 49521"
   451  0000                     FSR0H equ 0FEAh ;# 
   452                           opt subtitle "HI-TECH Software Omniscient Code Generator (Lite mode) build 49521"
   453  0000                     PLUSW0 equ 0FEBh ;# 
   454                           opt subtitle "HI-TECH Software Omniscient Code Generator (Lite mode) build 49521"
   455  0000                     PREINC0 equ 0FECh ;# 
   456                           opt subtitle "HI-TECH Software Omniscient Code Generator (Lite mode) build 49521"
   457  0000                     POSTDEC0 equ 0FEDh ;# 
   458                           opt subtitle "HI-TECH Software Omniscient Code Generator (Lite mode) build 49521"
   459  0000                     POSTINC0 equ 0FEEh ;# 
   460                           opt subtitle "HI-TECH Software Omniscient Code Generator (Lite mode) build 49521"
   461  0000                     INDF0 equ 0FEFh ;# 
   462                           opt subtitle "HI-TECH Software Omniscient Code Generator (Lite mode) build 49521"
   463  0000                     INTCON3 equ 0FF0h ;# 
   464                           opt subtitle "HI-TECH Software Omniscient Code Generator (Lite mode) build 49521"
   465  0000                     INTCON2 equ 0FF1h ;# 
   466                           opt subtitle "HI-TECH Software Omniscient Code Generator (Lite mode) build 49521"
   467  0000                     INTCON equ 0FF2h ;# 
   468                           opt subtitle "HI-TECH Software Omniscient Code Generator (Lite mode) build 49521"
   469  0000                     PROD equ 0FF3h ;# 
   470                           opt subtitle "HI-TECH Software Omniscient Code Generator (Lite mode) build 49521"
   471  0000                     PRODL equ 0FF3h ;# 
   472                           opt subtitle "HI-TECH Software Omniscient Code Generator (Lite mode) build 49521"
   473  0000                     PRODH equ 0FF4h ;# 
   474                           opt subtitle "HI-TECH Software Omniscient Code Generator (Lite mode) build 49521"
   475  0000                     TABLAT equ 0FF5h ;# 
   476                           opt subtitle "HI-TECH Software Omniscient Code Generator (Lite mode) build 49521"
   477  0000                     TBLPTR equ 0FF6h ;# 
   478                           opt subtitle "HI-TECH Software Omniscient Code Generator (Lite mode) build 49521"
   479  0000                     TBLPTRL equ 0FF6h ;# 
   480                           opt subtitle "HI-TECH Software Omniscient Code Generator (Lite mode) build 49521"
   481  0000                     TBLPTRH equ 0FF7h ;# 
   482                           opt subtitle "HI-TECH Software Omniscient Code Generator (Lite mode) build 49521"
   483  0000                     TBLPTRU equ 0FF8h ;# 
   484                           opt subtitle "HI-TECH Software Omniscient Code Generator (Lite mode) build 49521"
   485  0000                     PCLAT equ 0FF9h ;# 
   486                           opt subtitle "HI-TECH Software Omniscient Code Generator (Lite mode) build 49521"
   487  0000                     PC equ 0FF9h ;# 
   488                           opt subtitle "HI-TECH Software Omniscient Code Generator (Lite mode) build 49521"
   489  0000                     PCL equ 0FF9h ;# 
   490                           opt subtitle "HI-TECH Software Omniscient Code Generator (Lite mode) build 49521"
   491  0000                     PCLATH equ 0FFAh ;# 
   492                           opt subtitle "HI-TECH Software Omniscient Code Generator (Lite mode) build 49521"
   493  0000                     PCLATU equ 0FFBh ;# 
   494                           opt subtitle "HI-TECH Software Omniscient Code Generator (Lite mode) build 49521"
   495  0000                     STKPTR equ 0FFCh ;# 
   496                           opt subtitle "HI-TECH Software Omniscient Code Generator (Lite mode) build 49521"
   497  0000                     TOS equ 0FFDh ;# 
   498                           opt subtitle "HI-TECH Software Omniscient Code Generator (Lite mode) build 49521"
   499  0000                     TOSL equ 0FFDh ;# 
   500                           opt subtitle "HI-TECH Software Omniscient Code Generator (Lite mode) build 49521"
   501  0000                     TOSH equ 0FFEh ;# 
   502                           opt subtitle "HI-TECH Software Omniscient Code Generator (Lite mode) build 49521"
   503  0000                     TOSU equ 0FFFh ;# 
   504                           opt subtitle "HI-TECH Software Omniscient Code Generator (Lite mode) build 49521"
   505                           
   506                           opt pagewidth 120
   507                           
   508                           	opt lm
   509                           
   510                           	processor	18F8622
   511                           porta	equ	0F80h
   512                           portb	equ	0F81h
   513                           portc	equ	0F82h
   514                           portd	equ	0F83h
   515                           porte	equ	0F84h
   516                           lata	equ	0F89h
   517                           latb	equ	0F8Ah
   518                           latc	equ	0F8Bh
   519                           latd	equ	0F8Ch
   520                           late	equ	0F8Dh
   521                           trisa	equ	0F92h
   522                           trisb	equ	0F93h
   523                           trisc	equ	0F94h
   524                           trisd	equ	0F95h
   525                           trise	equ	0F96h
   526                           pie1	equ	0F9Dh
   527                           pir1	equ	0F9Eh
   528                           ipr1	equ	0F9Fh
   529                           pie2	equ	0FA0h
   530                           pir2	equ	0FA1h
   531                           ipr2	equ	0FA2h
   532  001BAA                     __pidataCOMRAM:
   533                           opt subtitle "HI-TECH Software Omniscient Code Generator (Lite mode) build 49521"
   534                           
   535                           opt pagewidth 120
   536                           
   537  001BAA  03                 	db	low(03h)
   538  001BAB  02                 	db	low(02h)
   539  001BAC  00                 	db	low(0)
   540  001BAD  00                 	db	low(0)
   541  001BAE  00                 	db	low(0)
   542  001BAF  00                 	db   0
   543                           opt subtitle "HI-TECH Software Omniscient Code Generator (Lite mode) build 49521"
   544                           
   545                           opt pagewidth 120
   546  001BB0  0C                 	db	low(0Ch)
   547  001BB1  08                 	db	low(08h)
   548  001BB2  0F                 	db	low(0Fh)
   549  001BB3  0E                 	db	low(0Eh)
   550  001BB4  0D                 	db	low(0Dh)
   551                           opt subtitle "HI-TECH Software Omniscient Code Generator (Lite mode) build 49521"
   552                           
   553                           opt pagewidth 120
   554  001BB5  14                 	db	low(014h)
   555  001BB6  10                 	db	low(010h)
   556                           opt subtitle "HI-TECH Software Omniscient Code Generator (Lite mode) build 49521"
   557                           
   558                           opt pagewidth 120
   559  001BB7  1C                 	db	low(01Ch)
   560  001BB8  18                 	db	low(018h)
   561                           opt subtitle "HI-TECH Software Omniscient Code Generator (Lite mode) build 49521"
   562                           
   563                           opt pagewidth 120
   564                           
   565  001BB9  01                 	db	low(01h)
   566                           opt subtitle "HI-TECH Software Omniscient Code Generator (Lite mode) build 49521"
   567                           
   568                           opt pagewidth 120
   569  001000                     __psmallconst:
   570                           opt subtitle "HI-TECH Software Omniscient Code Generator (Lite mode) build 49521"
   571                           
   572  001000                     _dpowers:
   573  001000  0001               	dw	(01h)&0ffffh
   574  001002  000A               	dw	(0Ah)&0ffffh
   575  001004  0064               	dw	(064h)&0ffffh
   576  001006  03E8               	dw	(03E8h)&0ffffh
   577  001008  2710               	dw	(02710h)&0ffffh
   578                           opt subtitle "HI-TECH Software Omniscient Code Generator (Lite mode) build 49521"
   579  00100A                     __end_of_dpowers:
   580                           opt subtitle "HI-TECH Software Omniscient Code Generator (Lite mode) build 49521"
   581                           
   582                           opt pagewidth 120
   583                           
   584  00100A                     _hexpowers:
   585  00100A  0001               	dw	(01h)&0ffffh
   586  00100C  0010               	dw	(010h)&0ffffh
   587  00100E  0100               	dw	(0100h)&0ffffh
   588  001010  1000               	dw	(01000h)&0ffffh
   589                           opt subtitle "HI-TECH Software Omniscient Code Generator (Lite mode) build 49521"
   590  001012                     __end_of_hexpowers:
   591                           opt subtitle "HI-TECH Software Omniscient Code Generator (Lite mode) build 49521"
   592                           
   593                           opt pagewidth 120
   594                           
   595                           	opt lm
   596                           
   597                           	processor	18F8622
   598                           porta	equ	0F80h
   599  0000                     _ADCON0bits	set	0xFC2
   600                           opt subtitle "HI-TECH Software Omniscient Code Generator (Lite mode) build 49521"
   601  0000                     _ADCON1bits	set	0xFC1
   602                           opt subtitle "HI-TECH Software Omniscient Code Generator (Lite mode) build 49521"
   603  0000                     _CMCONbits	set	0xFB4
   604                           opt subtitle "HI-TECH Software Omniscient Code Generator (Lite mode) build 49521"
   605  0000                     _INTCONbits	set	0xFF2
   606                           opt subtitle "HI-TECH Software Omniscient Code Generator (Lite mode) build 49521"
   607  0000                     _IPR1bits	set	0xF9F
   608                           opt subtitle "HI-TECH Software Omniscient Code Generator (Lite mode) build 49521"
   609  0000                     _OSCCONbits	set	0xFD3
   610                           opt subtitle "HI-TECH Software Omniscient Code Generator (Lite mode) build 49521"
   611  0000                     _PIE1bits	set	0xF9D
   612                           opt subtitle "HI-TECH Software Omniscient Code Generator (Lite mode) build 49521"
   613  0000                     _PIR1bits	set	0xF9E
   614                           opt subtitle "HI-TECH Software Omniscient Code Generator (Lite mode) build 49521"
   615  0000                     _PORTA	set	0xF80
   616                           opt subtitle "HI-TECH Software Omniscient Code Generator (Lite mode) build 49521"
   617  0000                     _PORTB	set	0xF81
   618                           opt subtitle "HI-TECH Software Omniscient Code Generator (Lite mode) build 49521"
   619  0000                     _PORTBbits	set	0xF81
   620                           opt subtitle "HI-TECH Software Omniscient Code Generator (Lite mode) build 49521"
   621  0000                     _PORTC	set	0xF82
   622                           opt subtitle "HI-TECH Software Omniscient Code Generator (Lite mode) build 49521"
   623  0000                     _PORTD	set	0xF83
   624                           opt subtitle "HI-TECH Software Omniscient Code Generator (Lite mode) build 49521"
   625  0000                     _PORTDbits	set	0xF83
   626                           opt subtitle "HI-TECH Software Omniscient Code Generator (Lite mode) build 49521"
   627  0000                     _PORTE	set	0xF84
   628                           opt subtitle "HI-TECH Software Omniscient Code Generator (Lite mode) build 49521"
   629  0000                     _PORTF	set	0xF85
   630                           opt subtitle "HI-TECH Software Omniscient Code Generator (Lite mode) build 49521"
   631  0000                     _PORTG	set	0xF86
   632                           opt subtitle "HI-TECH Software Omniscient Code Generator (Lite mode) build 49521"
   633  0000                     _PORTH	set	0xF87
   634                           opt subtitle "HI-TECH Software Omniscient Code Generator (Lite mode) build 49521"
   635  0000                     _PORTJ	set	0xF88
   636                           opt subtitle "HI-TECH Software Omniscient Code Generator (Lite mode) build 49521"
   637  0000                     _SSP1BUF	set	0xFC9
   638                           opt subtitle "HI-TECH Software Omniscient Code Generator (Lite mode) build 49521"
   639  0000                     _SSP1CON1	set	0xFC6
   640                           opt subtitle "HI-TECH Software Omniscient Code Generator (Lite mode) build 49521"
   641  0000                     _SSP1CON1bits	set	0xFC6
   642                           opt subtitle "HI-TECH Software Omniscient Code Generator (Lite mode) build 49521"
   643  0000                     _SSP1STAT	set	0xFC7
   644                           opt subtitle "HI-TECH Software Omniscient Code Generator (Lite mode) build 49521"
   645  0000                     _SSP1STATbits	set	0xFC7
   646                           opt subtitle "HI-TECH Software Omniscient Code Generator (Lite mode) build 49521"
   647  0000                     _T0CONbits	set	0xFD5
   648                           opt subtitle "HI-TECH Software Omniscient Code Generator (Lite mode) build 49521"
   649  0000                     _TRISA	set	0xF92
   650                           opt subtitle "HI-TECH Software Omniscient Code Generator (Lite mode) build 49521"
   651  0000                     _TRISB	set	0xF93
   652                           opt subtitle "HI-TECH Software Omniscient Code Generator (Lite mode) build 49521"
   653  0000                     _TRISC	set	0xF94
   654                           opt subtitle "HI-TECH Software Omniscient Code Generator (Lite mode) build 49521"
   655  0000                     _TRISCbits	set	0xF94
   656                           opt subtitle "HI-TECH Software Omniscient Code Generator (Lite mode) build 49521"
   657  0000                     _TRISD	set	0xF95
   658                           opt subtitle "HI-TECH Software Omniscient Code Generator (Lite mode) build 49521"
   659  0000                     _TRISE	set	0xF96
   660                           opt subtitle "HI-TECH Software Omniscient Code Generator (Lite mode) build 49521"
   661  0000                     _TRISF	set	0xF97
   662                           opt subtitle "HI-TECH Software Omniscient Code Generator (Lite mode) build 49521"
   663  0000                     _TRISFbits	set	0xF97
   664                           opt subtitle "HI-TECH Software Omniscient Code Generator (Lite mode) build 49521"
   665  0000                     _TRISG	set	0xF98
   666                           opt subtitle "HI-TECH Software Omniscient Code Generator (Lite mode) build 49521"
   667  0000                     _TRISH	set	0xF99
   668                           opt subtitle "HI-TECH Software Omniscient Code Generator (Lite mode) build 49521"
   669  0000                     _TRISJ	set	0xF9A
   670                           opt subtitle "HI-TECH Software Omniscient Code Generator (Lite mode) build 49521"
   671  001012                     __stringdata:
   672                           opt subtitle "HI-TECH Software Omniscient Code Generator (Lite mode) build 49521"
   673  001012                     STR_2:
   674  001012  30                 	db	48	;'0'
   675  001013  78                 	db	120	;'x'
   676  001014  25                 	db	37
   677  001015  58                 	db	88	;'X'
   678  001016  2C                 	db	44
   679  001017  25                 	db	37
   680  001018  58                 	db	88	;'X'
   681  001019  2C                 	db	44
   682  00101A  25                 	db	37
   683  00101B  58                 	db	88	;'X'
   684  00101C  2C                 	db	44
   685  00101D  25                 	db	37
   686  00101E  58                 	db	88	;'X'
   687  00101F  2C                 	db	44
   688  001020  25                 	db	37
   689  001021  58                 	db	88	;'X'
   690  001022  20                 	db	32
   691  001023  20                 	db	32
   692  001024  20                 	db	32
   693  001025  20                 	db	32
   694  001026  20                 	db	32
   695  001027  20                 	db	32
   696  001028  20                 	db	32
   697  001029  00                 	db	0
   698                           opt subtitle "HI-TECH Software Omniscient Code Generator (Lite mode) build 49521"
   699  00102A                     STR_3:
   700  00102A  30                 	db	48	;'0'
   701  00102B  31                 	db	49	;'1'
   702  00102C  32                 	db	50	;'2'
   703  00102D  33                 	db	51	;'3'
   704  00102E  34                 	db	52	;'4'
   705  00102F  35                 	db	53	;'5'
   706  001030  36                 	db	54	;'6'
   707  001031  37                 	db	55	;'7'
   708  001032  38                 	db	56	;'8'
   709  001033  39                 	db	57	;'9'
   710  001034  41                 	db	65	;'A'
   711  001035  42                 	db	66	;'B'
   712  001036  43                 	db	67	;'C'
   713  001037  44                 	db	68	;'D'
   714  001038  45                 	db	69	;'E'
   715  001039  46                 	db	70	;'F'
   716  00103A  00                 	db	0
   717                           opt subtitle "HI-TECH Software Omniscient Code Generator (Lite mode) build 49521"
   718  00103B                     STR_1:
   719  00103B  6E                 	db	110	;'n'
   720  00103C  42                 	db	66	;'B'
   721  00103D  79                 	db	121	;'y'
   722  00103E  74                 	db	116	;'t'
   723  00103F  65                 	db	101	;'e'
   724  001040  73                 	db	115	;'s'
   725  001041  3D                 	db	61	;'='
   726  001042  25                 	db	37
   727  001043  64                 	db	100	;'d'
   728  001044  20                 	db	32
   729  001045  54                 	db	84	;'T'
   730  001046  3D                 	db	61	;'='
   731  001047  25                 	db	37
   732  001048  64                 	db	100	;'d'
   733  001049  20                 	db	32
   734  00104A  20                 	db	32
   735  00104B  00                 	db	0
   736                           opt subtitle "HI-TECH Software Omniscient Code Generator (Lite mode) build 49521"
   737  00104C                     __end_of__stringdata:
   738                           opt subtitle "HI-TECH Software Omniscient Code Generator (Lite mode) build 49521"
   739                           
   740  0000                     __CFG_IESO$OFF equ 0x0
   741                           opt subtitle "HI-TECH Software Omniscient Code Generator (Lite mode) build 49521"
   742  0000                     __CFG_OSC$INTIO67 equ 0x0
   743                           opt subtitle "HI-TECH Software Omniscient Code Generator (Lite mode) build 49521"
   744  0000                     __CFG_FCMEN$OFF equ 0x0
   745                           opt subtitle "HI-TECH Software Omniscient Code Generator (Lite mode) build 49521"
   746  0000                     __CFG_BOREN$OFF equ 0x0
   747                           opt subtitle "HI-TECH Software Omniscient Code Generator (Lite mode) build 49521"
   748  0000                     __CFG_BORV$3 equ 0x0
   749                           opt subtitle "HI-TECH Software Omniscient Code Generator (Lite mode) build 49521"
   750  0000                     __CFG_PWRT$OFF equ 0x0
   751                           opt subtitle "HI-TECH Software Omniscient Code Generator (Lite mode) build 49521"
   752  0000                     __CFG_WDTPS$32768 equ 0x0
   753                           opt subtitle "HI-TECH Software Omniscient Code Generator (Lite mode) build 49521"
   754  0000                     __CFG_WDT$OFF equ 0x0
   755                           opt subtitle "HI-TECH Software Omniscient Code Generator (Lite mode) build 49521"
   756  0000                     __CFG_MODE$MC equ 0x0
   757                           opt subtitle "HI-TECH Software Omniscient Code Generator (Lite mode) build 49521"
   758  0000                     __CFG_WAIT$OFF equ 0x0
   759                           opt subtitle "HI-TECH Software Omniscient Code Generator (Lite mode) build 49521"
   760  0000                     __CFG_DATABW$DATA16BIT equ 0x0
   761                           opt subtitle "HI-TECH Software Omniscient Code Generator (Lite mode) build 49521"
   762  0000                     __CFG_ADDRBW$ADDR20BIT equ 0x0
   763                           opt subtitle "HI-TECH Software Omniscient Code Generator (Lite mode) build 49521"
   764  0000                     __CFG_CCP2MX$PORTC equ 0x0
   765                           opt subtitle "HI-TECH Software Omniscient Code Generator (Lite mode) build 49521"
   766  0000                     __CFG_LPT1OSC$OFF equ 0x0
   767                           opt subtitle "HI-TECH Software Omniscient Code Generator (Lite mode) build 49521"
   768  0000                     __CFG_ECCPMX$PORTE equ 0x0
   769                           opt subtitle "HI-TECH Software Omniscient Code Generator (Lite mode) build 49521"
   770  0000                     __CFG_MCLRE$ON equ 0x0
   771                           opt subtitle "HI-TECH Software Omniscient Code Generator (Lite mode) build 49521"
   772  0000                     __CFG_STVREN$ON equ 0x0
   773                           opt subtitle "HI-TECH Software Omniscient Code Generator (Lite mode) build 49521"
   774  0000                     __CFG_XINST$OFF equ 0x0
   775                           opt subtitle "HI-TECH Software Omniscient Code Generator (Lite mode) build 49521"
   776  0000                     __CFG_BBSIZ$BB2K equ 0x0
   777                           opt subtitle "HI-TECH Software Omniscient Code Generator (Lite mode) build 49521"
   778  0000                     __CFG_LVP$OFF equ 0x0
   779                           opt subtitle "HI-TECH Software Omniscient Code Generator (Lite mode) build 49521"
   780  0000                     __CFG_CP0$OFF equ 0x0
   781                           opt subtitle "HI-TECH Software Omniscient Code Generator (Lite mode) build 49521"
   782  0000                     __CFG_CP1$OFF equ 0x0
   783                           opt subtitle "HI-TECH Software Omniscient Code Generator (Lite mode) build 49521"
   784  0000                     __CFG_CP2$OFF equ 0x0
   785                           opt subtitle "HI-TECH Software Omniscient Code Generator (Lite mode) build 49521"
   786  0000                     __CFG_CP3$OFF equ 0x0
   787                           opt subtitle "HI-TECH Software Omniscient Code Generator (Lite mode) build 49521"
   788  0000                     __CFG_CPD$OFF equ 0x0
   789                           opt subtitle "HI-TECH Software Omniscient Code Generator (Lite mode) build 49521"
   790  0000                     __CFG_CPB$OFF equ 0x0
   791                           opt subtitle "HI-TECH Software Omniscient Code Generator (Lite mode) build 49521"
   792  0000                     __CFG_WRT0$OFF equ 0x0
   793                           opt subtitle "HI-TECH Software Omniscient Code Generator (Lite mode) build 49521"
   794  0000                     __CFG_WRT1$OFF equ 0x0
   795                           opt subtitle "HI-TECH Software Omniscient Code Generator (Lite mode) build 49521"
   796  0000                     __CFG_WRT2$OFF equ 0x0
   797                           opt subtitle "HI-TECH Software Omniscient Code Generator (Lite mode) build 49521"
   798  0000                     __CFG_WRT3$OFF equ 0x0
   799                           opt subtitle "HI-TECH Software Omniscient Code Generator (Lite mode) build 49521"
   800  0000                     __CFG_WRTB$OFF equ 0x0
   801                           opt subtitle "HI-TECH Software Omniscient Code Generator (Lite mode) build 49521"
   802  0000                     __CFG_WRTC$OFF equ 0x0
   803                           opt subtitle "HI-TECH Software Omniscient Code Generator (Lite mode) build 49521"
   804  0000                     __CFG_WRTD$OFF equ 0x0
   805                           opt subtitle "HI-TECH Software Omniscient Code Generator (Lite mode) build 49521"
   806  0000                     __CFG_EBTR0$OFF equ 0x0
   807                           opt subtitle "HI-TECH Software Omniscient Code Generator (Lite mode) build 49521"
   808  0000                     __CFG_EBTR1$OFF equ 0x0
   809                           opt subtitle "HI-TECH Software Omniscient Code Generator (Lite mode) build 49521"
   810  0000                     __CFG_EBTR2$OFF equ 0x0
   811                           opt subtitle "HI-TECH Software Omniscient Code Generator (Lite mode) build 49521"
   812  0000                     __CFG_EBTR3$OFF equ 0x0
   813                           opt subtitle "HI-TECH Software Omniscient Code Generator (Lite mode) build 49521"
   814  0000                     __CFG_EBTRB$OFF equ 0x0
   815                           opt subtitle "HI-TECH Software Omniscient Code Generator (Lite mode) build 49521"
   816                           
   817                           opt pagewidth 120
   818                           
   819  001AC6                     __pcinit:
   820                           opt subtitle "HI-TECH Software Omniscient Code Generator (Lite mode) build 49521"
   821  001AC6                     start_initialization:
   822                           opt subtitle "HI-TECH Software Omniscient Code Generator (Lite mode) build 49521"
   823                           
   824  001AC6                     __initialization:
   825                           opt subtitle "HI-TECH Software Omniscient Code Generator (Lite mode) build 49521"
   826                           
   827  000043                     __pbssCOMRAM:
   828                           opt subtitle "HI-TECH Software Omniscient Code Generator (Lite mode) build 49521"
   829  000043                     _i:
   830  000043                            ds      2
   831                           opt subtitle "HI-TECH Software Omniscient Code Generator (Lite mode) build 49521"
   832  000045                     _transmissoes:
   833  000045                            ds      2
   834                           opt subtitle "HI-TECH Software Omniscient Code Generator (Lite mode) build 49521"
   835  000047                     _nBytes_SPI:
   836  000047                            ds      1
   837                           opt subtitle "HI-TECH Software Omniscient Code Generator (Lite mode) build 49521"
   838                           
   839  000033                     __pdataCOMRAM:
   840                           opt subtitle "HI-TECH Software Omniscient Code Generator (Lite mode) build 49521"
   841                           
   842  000033                     lcd_start@F7252:
   843  000033                            ds      6
   844                           opt subtitle "HI-TECH Software Omniscient Code Generator (Lite mode) build 49521"
   845                           
   846                           opt pagewidth 120
   847  000039                     ctrl_lcd_cursor@F7238:
   848  000039                            ds      5
   849                           opt subtitle "HI-TECH Software Omniscient Code Generator (Lite mode) build 49521"
   850                           
   851                           opt pagewidth 120
   852  00003E                     move_cursor@F7230:
   853  00003E                            ds      2
   854                           opt subtitle "HI-TECH Software Omniscient Code Generator (Lite mode) build 49521"
   855                           
   856                           opt pagewidth 120
   857  000040                     move_mensagem@F7234:
   858  000040                            ds      2
   859                           opt subtitle "HI-TECH Software Omniscient Code Generator (Lite mode) build 49521"
   860                           
   861                           opt pagewidth 120
   862                           
   863  000042                     _update_lcd:
   864  000042                            ds      1
   865                           opt subtitle "HI-TECH Software Omniscient Code Generator (Lite mode) build 49521"
   866                           
   867  000060                     __pbssBANK0:
   868                           opt subtitle "HI-TECH Software Omniscient Code Generator (Lite mode) build 49521"
   869  000060                     _SPI_Data:
   870  000060                            ds      64
   871                           opt subtitle "HI-TECH Software Omniscient Code Generator (Lite mode) build 49521"
   872                           
   873  0000A0                     _SPI_Recv:
   874  0000A0                            ds      21
   875                           opt subtitle "HI-TECH Software Omniscient Code Generator (Lite mode) build 49521"
   876  0000B5                     _mensagem_lcd:
   877  0000B5                            ds      17
   878                           opt subtitle "HI-TECH Software Omniscient Code Generator (Lite mode) build 49521"
   879                           
   880                           opt pagewidth 120
   881  001AC6  EE00  F060         lfsr	0,__pbssBANK0
   882  001ACA  0E66               movlw	102
   883  001ACC                     clear_0:
   884  001ACC  6AEE               clrf	postinc0,c
   885  001ACE  06E8               decf	wreg
   886  001AD0  E1FD               bnz	clear_0
   887                           opt subtitle "HI-TECH Software Omniscient Code Generator (Lite mode) build 49521"
   888                           
   889  001AD2  6A47               clrf	(__pbssCOMRAM+4)&0xffh,c
   890  001AD4  6A46               clrf	(__pbssCOMRAM+3)&0xffh,c
   891  001AD6  6A45               clrf	(__pbssCOMRAM+2)&0xffh,c
   892  001AD8  6A44               clrf	(__pbssCOMRAM+1)&0xffh,c
   893  001ADA  6A43               clrf	(__pbssCOMRAM+0)&0xffh,c
   894                           opt subtitle "HI-TECH Software Omniscient Code Generator (Lite mode) build 49521"
   895                           
   896                           opt pagewidth 120
   897  001ADC  0EAA               	movlw	low (__pidataCOMRAM)
   898  001ADE  6EF6               	movwf	tblptrl
   899  001AE0  0E1B               	movlw	high(__pidataCOMRAM)
   900  001AE2  6EF7               	movwf	tblptrh
   901  001AE4  0E00               	movlw	low highword(__pidataCOMRAM)
   902  001AE6  6EF8               	movwf	tblptru
   903  001AE8  EE00  F033         	lfsr	0,__pdataCOMRAM
   904  001AEC  EE10 F010          	lfsr	1,16
   905  001AF0                     	copy_data0:
   906  001AF0  0009               	tblrd	*+
   907  001AF2  CFF5 FFEE          	movff	tablat, postinc0
   908  001AF6  50E5               	movf	postdec1,w
   909  001AF8  50E1               	movf	fsr1l,w
   910  001AFA  E1FA               	bnz	copy_data0
   911                           opt subtitle "HI-TECH Software Omniscient Code Generator (Lite mode) build 49521"
   912                           
   913                           opt pagewidth 120
   914                           
   915                           	opt lm
   916  001AFC                     end_of_initialization:
   917  001AFC                     __end_of__initialization:movlb 0
   918  001AFE  EFB3  F00A         goto _main	;jump to C main() function
   919                           opt subtitle "HI-TECH Software Omniscient Code Generator (Lite mode) build 49521"
   920                           
   921  0000C6                     __pcstackBANK0:
   922                           opt subtitle "HI-TECH Software Omniscient Code Generator (Lite mode) build 49521"
   923  0000C6                     sprintf@idx:	; 1 bytes @ 0x0
   924  0000C6                     	ds   1
   925                           opt subtitle "HI-TECH Software Omniscient Code Generator (Lite mode) build 49521"
   926  0000C7                     sprintf@ap:	; 2 bytes @ 0x1
   927  0000C7                     	ds   2
   928                           opt subtitle "HI-TECH Software Omniscient Code Generator (Lite mode) build 49521"
   929  0000C9                     sprintf@prec:	; 1 bytes @ 0x3
   930  0000C9                     	ds   1
   931                           opt subtitle "HI-TECH Software Omniscient Code Generator (Lite mode) build 49521"
   932  0000CA                     sprintf@flag:	; 1 bytes @ 0x4
   933  0000CA                     	ds   1
   934                           opt subtitle "HI-TECH Software Omniscient Code Generator (Lite mode) build 49521"
   935  0000CB                     sprintf@_val:	; 5 bytes @ 0x5
   936  0000CB                     	ds   5
   937                           opt subtitle "HI-TECH Software Omniscient Code Generator (Lite mode) build 49521"
   938  0000D0                     sprintf@c:	; 1 bytes @ 0xA
   939  0000D0                     	ds   1
   940                           opt subtitle "HI-TECH Software Omniscient Code Generator (Lite mode) build 49521"
   941                           
   942  000001                     __pcstackCOMRAM:
   943  000001                     ?_limpa_tela:	; 0 bytes @ 0x0
   944  000001                     ?_lcd_start:	; 0 bytes @ 0x0
   945  000001                     ?_receiveData:	; 0 bytes @ 0x0
   946  000001                     ??_receiveData:	; 0 bytes @ 0x0
   947  000001                     ?_main:	; 0 bytes @ 0x0
   948  000001                     	ds   17
   949                           opt subtitle "HI-TECH Software Omniscient Code Generator (Lite mode) build 49521"
   950  000012                     ?_OpenSPI1:	; 0 bytes @ 0x11
   951                           opt subtitle "HI-TECH Software Omniscient Code Generator (Lite mode) build 49521"
   952  000012                     ?_tempo_us:	; 0 bytes @ 0x11
   953                           opt subtitle "HI-TECH Software Omniscient Code Generator (Lite mode) build 49521"
   954  000012                     ?___lwdiv:	; 2 bytes @ 0x11
   955                           opt subtitle "HI-TECH Software Omniscient Code Generator (Lite mode) build 49521"
   956  000012                     OpenSPI1@sync_mode:	; 1 bytes @ 0x11
   957                           opt subtitle "HI-TECH Software Omniscient Code Generator (Lite mode) build 49521"
   958  000012                     tempo_us@tempo:	; 2 bytes @ 0x11
   959                           opt subtitle "HI-TECH Software Omniscient Code Generator (Lite mode) build 49521"
   960  000012                     ___lwdiv@dividend:	; 2 bytes @ 0x11
   961  000012                     	ds   1
   962                           opt subtitle "HI-TECH Software Omniscient Code Generator (Lite mode) build 49521"
   963  000013                     OpenSPI1@bus_mode:	; 1 bytes @ 0x12
   964  000013                     	ds   1
   965  000014                     ??_tempo_us:	; 0 bytes @ 0x13
   966                           opt subtitle "HI-TECH Software Omniscient Code Generator (Lite mode) build 49521"
   967  000014                     ?_envia_lcd:	; 0 bytes @ 0x13
   968                           opt subtitle "HI-TECH Software Omniscient Code Generator (Lite mode) build 49521"
   969  000014                     envia_lcd@byte:	; 1 bytes @ 0x13
   970                           opt subtitle "HI-TECH Software Omniscient Code Generator (Lite mode) build 49521"
   971  000014                     OpenSPI1@smp_phase:	; 1 bytes @ 0x13
   972                           opt subtitle "HI-TECH Software Omniscient Code Generator (Lite mode) build 49521"
   973  000014                     ___lwdiv@divisor:	; 2 bytes @ 0x13
   974  000014                     	ds   1
   975  000015                     ??_OpenSPI1:	; 0 bytes @ 0x14
   976                           opt subtitle "HI-TECH Software Omniscient Code Generator (Lite mode) build 49521"
   977  000015                     envia_lcd@cmd_data:	; 1 bytes @ 0x14
   978  000015                     	ds   1
   979  000016                     ??___lwdiv:	; 0 bytes @ 0x15
   980                           opt subtitle "HI-TECH Software Omniscient Code Generator (Lite mode) build 49521"
   981  000016                     envia_lcd@delay:	; 2 bytes @ 0x15
   982  000016                     	ds   1
   983                           opt subtitle "HI-TECH Software Omniscient Code Generator (Lite mode) build 49521"
   984  000017                     ___lwdiv@counter:	; 1 bytes @ 0x16
   985  000017                     	ds   1
   986  000018                     ??_envia_lcd:	; 0 bytes @ 0x17
   987                           opt subtitle "HI-TECH Software Omniscient Code Generator (Lite mode) build 49521"
   988  000018                     ___lwdiv@quotient:	; 2 bytes @ 0x17
   989  000018                     	ds   2
   990  00001A                     ??_limpa_tela:	; 0 bytes @ 0x19
   991                           opt subtitle "HI-TECH Software Omniscient Code Generator (Lite mode) build 49521"
   992  00001A                     ?_ctrl_lcd_cursor:	; 0 bytes @ 0x19
   993                           opt subtitle "HI-TECH Software Omniscient Code Generator (Lite mode) build 49521"
   994  00001A                     ?_pos_lcd:	; 0 bytes @ 0x19
   995                           opt subtitle "HI-TECH Software Omniscient Code Generator (Lite mode) build 49521"
   996  00001A                     ?_envia_dado:	; 0 bytes @ 0x19
   997                           opt subtitle "HI-TECH Software Omniscient Code Generator (Lite mode) build 49521"
   998  00001A                     ?___lwmod:	; 2 bytes @ 0x19
   999                           opt subtitle "HI-TECH Software Omniscient Code Generator (Lite mode) build 49521"
  1000  00001A                     ctrl_lcd_cursor@controle:	; 1 bytes @ 0x19
  1001                           opt subtitle "HI-TECH Software Omniscient Code Generator (Lite mode) build 49521"
  1002  00001A                     pos_lcd@line:	; 1 bytes @ 0x19
  1003                           opt subtitle "HI-TECH Software Omniscient Code Generator (Lite mode) build 49521"
  1004  00001A                     envia_dado@dado:	; 1 bytes @ 0x19
  1005                           opt subtitle "HI-TECH Software Omniscient Code Generator (Lite mode) build 49521"
  1006  00001A                     ___lwmod@dividend:	; 2 bytes @ 0x19
  1007  00001A                     	ds   1
  1008  00001B                     ??_ctrl_lcd_cursor:	; 0 bytes @ 0x1A
  1009  00001B                     ??_envia_dado:	; 0 bytes @ 0x1A
  1010                           opt subtitle "HI-TECH Software Omniscient Code Generator (Lite mode) build 49521"
  1011  00001B                     pos_lcd@column:	; 1 bytes @ 0x1A
  1012  00001B                     	ds   1
  1013  00001C                     ??_pos_lcd:	; 0 bytes @ 0x1B
  1014                           opt subtitle "HI-TECH Software Omniscient Code Generator (Lite mode) build 49521"
  1015  00001C                     ___lwmod@divisor:	; 2 bytes @ 0x1B
  1016                           opt subtitle "HI-TECH Software Omniscient Code Generator (Lite mode) build 49521"
  1017  00001C                     ctrl_lcd_cursor@comando:	; 5 bytes @ 0x1B
  1018  00001C                     	ds   1
  1019                           opt subtitle "HI-TECH Software Omniscient Code Generator (Lite mode) build 49521"
  1020  00001D                     ?_mostra_lcd_buff:	; 0 bytes @ 0x1C
  1021                           opt subtitle "HI-TECH Software Omniscient Code Generator (Lite mode) build 49521"
  1022  00001D                     mostra_lcd_buff@line:	; 1 bytes @ 0x1C
  1023  00001D                     	ds   1
  1024  00001E                     ??___lwmod:	; 0 bytes @ 0x1D
  1025                           opt subtitle "HI-TECH Software Omniscient Code Generator (Lite mode) build 49521"
  1026  00001E                     mostra_lcd_buff@column:	; 1 bytes @ 0x1D
  1027  00001E                     	ds   1
  1028                           opt subtitle "HI-TECH Software Omniscient Code Generator (Lite mode) build 49521"
  1029  00001F                     ___lwmod@counter:	; 1 bytes @ 0x1E
  1030                           opt subtitle "HI-TECH Software Omniscient Code Generator (Lite mode) build 49521"
  1031  00001F                     mostra_lcd_buff@p_char:	; 2 bytes @ 0x1E
  1032  00001F                     	ds   1
  1033                           opt subtitle "HI-TECH Software Omniscient Code Generator (Lite mode) build 49521"
  1034  000020                     ?_sprintf:	; 2 bytes @ 0x1F
  1035                           opt subtitle "HI-TECH Software Omniscient Code Generator (Lite mode) build 49521"
  1036  000020                     sprintf@sp:	; 2 bytes @ 0x1F
  1037  000020                     	ds   1
  1038  000021                     ??_lcd_start:	; 0 bytes @ 0x20
  1039                           opt subtitle "HI-TECH Software Omniscient Code Generator (Lite mode) build 49521"
  1040  000021                     mostra_lcd_buff@buffer_size:	; 1 bytes @ 0x20
  1041  000021                     	ds   1
  1042  000022                     ??_mostra_lcd_buff:	; 0 bytes @ 0x21
  1043                           opt subtitle "HI-TECH Software Omniscient Code Generator (Lite mode) build 49521"
  1044  000022                     lcd_start@contagem:	; 1 bytes @ 0x21
  1045                           opt subtitle "HI-TECH Software Omniscient Code Generator (Lite mode) build 49521"
  1046  000022                     sprintf@f:	; 2 bytes @ 0x21
  1047  000022                     	ds   1
  1048                           opt subtitle "HI-TECH Software Omniscient Code Generator (Lite mode) build 49521"
  1049  000023                     lcd_start@lcd_conf:	; 6 bytes @ 0x22
  1050  000023                     	ds   11
  1051  00002E                     ??_sprintf:	; 0 bytes @ 0x2D
  1052  00002E                     	ds   2
  1053  000030                     ??_main:	; 0 bytes @ 0x2F
  1054  000030                     	ds   3
  1055                           opt subtitle "HI-TECH Software Omniscient Code Generator (Lite mode) build 49521"
  1056                           
  1057                           opt pagewidth 120
  1058                           
  1059                           	opt lm
  1060                           
  1061                           	processor	18F8622
  1062                           porta	equ	0F80h
  1063                           portb	equ	0F81h
  1064                           portc	equ	0F82h
  1065                           portd	equ	0F83h
  1066                           porte	equ	0F84h
  1067                           lata	equ	0F89h
  1068                           latb	equ	0F8Ah
  1069                           latc	equ	0F8Bh
  1070                           latd	equ	0F8Ch
  1071                           late	equ	0F8Dh
  1072                           trisa	equ	0F92h
  1073                           trisb	equ	0F93h
  1074                           trisc	equ	0F94h
  1075                           trisd	equ	0F95h
  1076                           trise	equ	0F96h
  1077                           pie1	equ	0F9Dh
  1078                           pir1	equ	0F9Eh
  1079                           ipr1	equ	0F9Fh
  1080                           pie2	equ	0FA0h
  1081                           pir2	equ	0FA1h
  1082                           ipr2	equ	0FA2h
  1083                           t3con	equ	0FB1h
  1084                           tmr3l	equ	0FB2h
  1085                           tmr3h	equ	0FB3h
  1086                           ccp1con	equ	0FBDh
  1087                           ccpr1l	equ	0FBEh
  1088                           ccpr1h	equ	0FBFh
  1089                           adcon1	equ	0FC1h
  1090                           adcon0	equ	0FC2h
  1091                           adresl	equ	0FC3h
  1092                           adresh	equ	0FC4h
  1093                           sspcon2	equ	0FC5h
  1094                           sspcon1	equ	0FC6h
  1095                           sspstat	equ	0FC7h
  1096                           sspadd	equ	0FC8h
  1097                           sspbuf	equ	0FC9h
  1098                           t2con	equ	0FCAh
  1099                           pr2	equ	0FCBh
  1100                           tmr2	equ	0FCCh
  1101                           t1con	equ	0FCDh
  1102                           tmr1l	equ	0FCEh
  1103                           tmr1h	equ	0FCFh
  1104                           rcon	equ	0FD0h
  1105                           wdtcon	equ	0FD1h
  1106                           lvdcon	equ	0FD2h
  1107                           osccon	equ	0FD3h
  1108                           t0con	equ	0FD5h
  1109                           tmr0l	equ	0FD6h
  1110                           tmr0h	equ	0FD7h
  1111                           status	equ	0FD8h
  1112                           fsr2	equ	0FD9h
  1113                           fsr2l	equ	0FD9h
  1114                           fsr2h	equ	0FDAh
  1115                           plusw2	equ	0FDBh
  1116                           preinc2	equ	0FDCh
  1117                           postdec2	equ	0FDDh
  1118                           postinc2	equ	0FDEh
  1119                           indf2	equ	0FDFh
  1120                           bsr	equ	0FE0h
  1121                           fsr1	equ	0FE1h
  1122                           fsr1l	equ	0FE1h
  1123                           fsr1h	equ	0FE2h
  1124                           plusw1	equ	0FE3h
  1125                           preinc1	equ	0FE4h
  1126                           postdec1	equ	0FE5h
  1127                           postinc1	equ	0FE6h
  1128                           indf1	equ	0FE7h
  1129                           wreg	equ	0FE8h
  1130                           fsr0	equ	0FE9h
  1131                           fsr0l	equ	0FE9h
  1132                           fsr0h	equ	0FEAh
  1133                           plusw0	equ	0FEBh
  1134                           preinc0	equ	0FECh
  1135                           postdec0	equ	0FEDh
  1136                           postinc0	equ	0FEEh
  1137                           indf0	equ	0FEFh
  1138                           intcon3	equ	0FF0h
  1139                           intcon2	equ	0FF1h
  1140                           intcon	equ	0FF2h
  1141                           prod	equ	0FF3h
  1142                           prodl	equ	0FF3h
  1143                           prodh	equ	0FF4h
  1144                           tablat	equ	0FF5h
  1145                           tblptr	equ	0FF6h
  1146                           tblptrl	equ	0FF6h
  1147                           tblptrh	equ	0FF7h
  1148                           tblptru	equ	0FF8h
  1149                           pcl	equ	0FF9h
  1150                           pclat	equ	0FFAh
  1151                           pclath	equ	0FFAh
  1152                           pclatu	equ	0FFBh
  1153                           stkptr	equ	0FFCh
  1154                           tosl	equ	0FFDh
  1155                           tosh	equ	0FFEh
  1156                           tosu	equ	0FFFh
  1157                           skipnz macro
  1158                           	btfsc	status,2
  1159                           	endm
  1160                           	global	__ramtop
  1161                           	global	__accesstop
  1162                           # 46 "/Applications/microchip/xc8/v1.12/include/pic18f8622.h"
  1163                           SSP2CON2 equ 0F62h ;# 
  1164                           # 202 "/Applications/microchip/xc8/v1.12/include/pic18f8622.h"
  1165                           SSP2CON1 equ 0F63h ;# 
  1166                           # 321 "/Applications/microchip/xc8/v1.12/include/pic18f8622.h"
  1167                           SSP2STAT equ 0F64h ;# 
  1168                           # 727 "/Applications/microchip/xc8/v1.12/include/pic18f8622.h"
  1169                           SSP2ADD equ 0F65h ;# 
  1170                           # 809 "/Applications/microchip/xc8/v1.12/include/pic18f8622.h"
  1171                           SSP2BUF equ 0F66h ;# 
  1172                           # 815 "/Applications/microchip/xc8/v1.12/include/pic18f8622.h"
  1173                           ECCP2DEL equ 0F67h ;# 
  1174                           # 934 "/Applications/microchip/xc8/v1.12/include/pic18f8622.h"
  1175                           ECCP2AS equ 0F68h ;# 
  1176                           # 1065 "/Applications/microchip/xc8/v1.12/include/pic18f8622.h"
  1177                           ECCP3DEL equ 0F69h ;# 
  1178                           # 1184 "/Applications/microchip/xc8/v1.12/include/pic18f8622.h"
  1179                           ECCP3AS equ 0F6Ah ;# 
  1180                           # 1315 "/Applications/microchip/xc8/v1.12/include/pic18f8622.h"
  1181                           RCSTA2 equ 0F6Bh ;# 
  1182                           # 1494 "/Applications/microchip/xc8/v1.12/include/pic18f8622.h"
  1183                           TXSTA2 equ 0F6Ch ;# 
  1184                           # 1655 "/Applications/microchip/xc8/v1.12/include/pic18f8622.h"
  1185                           TXREG2 equ 0F6Dh ;# 
  1186                           # 1661 "/Applications/microchip/xc8/v1.12/include/pic18f8622.h"
  1187                           RCREG2 equ 0F6Eh ;# 
  1188                           # 1667 "/Applications/microchip/xc8/v1.12/include/pic18f8622.h"
  1189                           SPBRG2 equ 0F6Fh ;# 
  1190                           # 1673 "/Applications/microchip/xc8/v1.12/include/pic18f8622.h"
  1191                           CCP5CON equ 0F70h ;# 
  1192                           # 1751 "/Applications/microchip/xc8/v1.12/include/pic18f8622.h"
  1193                           CCPR5 equ 0F71h ;# 
  1194                           # 1757 "/Applications/microchip/xc8/v1.12/include/pic18f8622.h"
  1195                           CCPR5L equ 0F71h ;# 
  1196                           # 1763 "/Applications/microchip/xc8/v1.12/include/pic18f8622.h"
  1197                           CCPR5H equ 0F72h ;# 
  1198                           # 1769 "/Applications/microchip/xc8/v1.12/include/pic18f8622.h"
  1199                           CCP4CON equ 0F73h ;# 
  1200                           # 1847 "/Applications/microchip/xc8/v1.12/include/pic18f8622.h"
  1201                           CCPR4 equ 0F74h ;# 
  1202                           # 1853 "/Applications/microchip/xc8/v1.12/include/pic18f8622.h"
  1203                           CCPR4L equ 0F74h ;# 
  1204                           # 1859 "/Applications/microchip/xc8/v1.12/include/pic18f8622.h"
  1205                           CCPR4H equ 0F75h ;# 
  1206                           # 1865 "/Applications/microchip/xc8/v1.12/include/pic18f8622.h"
  1207                           T4CON equ 0F76h ;# 
  1208                           # 1935 "/Applications/microchip/xc8/v1.12/include/pic18f8622.h"
  1209                           PR4 equ 0F77h ;# 
  1210                           # 1941 "/Applications/microchip/xc8/v1.12/include/pic18f8622.h"
  1211                           TMR4 equ 0F78h ;# 
  1212                           # 1947 "/Applications/microchip/xc8/v1.12/include/pic18f8622.h"
  1213                           ECCP1DEL equ 0F79h ;# 
  1214                           # 2066 "/Applications/microchip/xc8/v1.12/include/pic18f8622.h"
  1215                           BAUDCON2 equ 0F7Ch ;# 
  1216                           # 2184 "/Applications/microchip/xc8/v1.12/include/pic18f8622.h"
  1217                           SPBRGH2 equ 0F7Dh ;# 
  1218                           # 2190 "/Applications/microchip/xc8/v1.12/include/pic18f8622.h"
  1219                           BAUDCON1 equ 0F7Eh ;# 
  1220                           # 2195 "/Applications/microchip/xc8/v1.12/include/pic18f8622.h"
  1221                           BAUDCON equ 0F7Eh ;# 
  1222                           # 2199 "/Applications/microchip/xc8/v1.12/include/pic18f8622.h"
  1223                           BAUDCTL equ 0F7Eh ;# 
  1224                           # 2594 "/Applications/microchip/xc8/v1.12/include/pic18f8622.h"
  1225                           SPBRGH1 equ 0F7Fh ;# 
  1226                           # 2599 "/Applications/microchip/xc8/v1.12/include/pic18f8622.h"
  1227                           SPBRGH equ 0F7Fh ;# 
  1228                           # 2605 "/Applications/microchip/xc8/v1.12/include/pic18f8622.h"
  1229                           PORTA equ 0F80h ;# 
  1230                           # 2752 "/Applications/microchip/xc8/v1.12/include/pic18f8622.h"
  1231                           PORTB equ 0F81h ;# 
  1232                           # 2905 "/Applications/microchip/xc8/v1.12/include/pic18f8622.h"
  1233                           PORTC equ 0F82h ;# 
  1234                           # 3159 "/Applications/microchip/xc8/v1.12/include/pic18f8622.h"
  1235                           PORTD equ 0F83h ;# 
  1236                           # 3377 "/Applications/microchip/xc8/v1.12/include/pic18f8622.h"
  1237                           PORTE equ 0F84h ;# 
  1238                           # 3760 "/Applications/microchip/xc8/v1.12/include/pic18f8622.h"
  1239                           PORTF equ 0F85h ;# 
  1240                           # 3927 "/Applications/microchip/xc8/v1.12/include/pic18f8622.h"
  1241                           PORTG equ 0F86h ;# 
  1242                           # 4105 "/Applications/microchip/xc8/v1.12/include/pic18f8622.h"
  1243                           PORTH equ 0F87h ;# 
  1244                           # 4315 "/Applications/microchip/xc8/v1.12/include/pic18f8622.h"
  1245                           PORTJ equ 0F88h ;# 
  1246                           # 4520 "/Applications/microchip/xc8/v1.12/include/pic18f8622.h"
  1247                           LATA equ 0F89h ;# 
  1248                           # 4652 "/Applications/microchip/xc8/v1.12/include/pic18f8622.h"
  1249                           LATB equ 0F8Ah ;# 
  1250                           # 4784 "/Applications/microchip/xc8/v1.12/include/pic18f8622.h"
  1251                           LATC equ 0F8Bh ;# 
  1252                           # 4916 "/Applications/microchip/xc8/v1.12/include/pic18f8622.h"
  1253                           LATD equ 0F8Ch ;# 
  1254                           # 5048 "/Applications/microchip/xc8/v1.12/include/pic18f8622.h"
  1255                           LATE equ 0F8Dh ;# 
  1256                           # 5180 "/Applications/microchip/xc8/v1.12/include/pic18f8622.h"
  1257                           LATF equ 0F8Eh ;# 
  1258                           # 5312 "/Applications/microchip/xc8/v1.12/include/pic18f8622.h"
  1259                           LATG equ 0F8Fh ;# 
  1260                           # 5405 "/Applications/microchip/xc8/v1.12/include/pic18f8622.h"
  1261                           LATH equ 0F90h ;# 
  1262                           # 5537 "/Applications/microchip/xc8/v1.12/include/pic18f8622.h"
  1263                           LATJ equ 0F91h ;# 
  1264                           # 5669 "/Applications/microchip/xc8/v1.12/include/pic18f8622.h"
  1265                           TRISA equ 0F92h ;# 
  1266                           # 5674 "/Applications/microchip/xc8/v1.12/include/pic18f8622.h"
  1267                           DDRA equ 0F92h ;# 
  1268                           # 5890 "/Applications/microchip/xc8/v1.12/include/pic18f8622.h"
  1269                           TRISB equ 0F93h ;# 
  1270                           # 5895 "/Applications/microchip/xc8/v1.12/include/pic18f8622.h"
  1271                           DDRB equ 0F93h ;# 
  1272                           # 6111 "/Applications/microchip/xc8/v1.12/include/pic18f8622.h"
  1273                           TRISC equ 0F94h ;# 
  1274                           # 6116 "/Applications/microchip/xc8/v1.12/include/pic18f8622.h"
  1275                           DDRC equ 0F94h ;# 
  1276                           # 6332 "/Applications/microchip/xc8/v1.12/include/pic18f8622.h"
  1277                           TRISD equ 0F95h ;# 
  1278                           # 6337 "/Applications/microchip/xc8/v1.12/include/pic18f8622.h"
  1279                           DDRD equ 0F95h ;# 
  1280                           # 6553 "/Applications/microchip/xc8/v1.12/include/pic18f8622.h"
  1281                           TRISE equ 0F96h ;# 
  1282                           # 6558 "/Applications/microchip/xc8/v1.12/include/pic18f8622.h"
  1283                           DDRE equ 0F96h ;# 
  1284                           # 6774 "/Applications/microchip/xc8/v1.12/include/pic18f8622.h"
  1285                           TRISF equ 0F97h ;# 
  1286                           # 6779 "/Applications/microchip/xc8/v1.12/include/pic18f8622.h"
  1287                           DDRF equ 0F97h ;# 
  1288                           # 6995 "/Applications/microchip/xc8/v1.12/include/pic18f8622.h"
  1289                           TRISG equ 0F98h ;# 
  1290                           # 7000 "/Applications/microchip/xc8/v1.12/include/pic18f8622.h"
  1291                           DDRG equ 0F98h ;# 
  1292                           # 7144 "/Applications/microchip/xc8/v1.12/include/pic18f8622.h"
  1293                           TRISH equ 0F99h ;# 
  1294                           # 7149 "/Applications/microchip/xc8/v1.12/include/pic18f8622.h"
  1295                           DDRH equ 0F99h ;# 
  1296                           # 7365 "/Applications/microchip/xc8/v1.12/include/pic18f8622.h"
  1297                           TRISJ equ 0F9Ah ;# 
  1298                           # 7370 "/Applications/microchip/xc8/v1.12/include/pic18f8622.h"
  1299                           DDRJ equ 0F9Ah ;# 
  1300                           # 7586 "/Applications/microchip/xc8/v1.12/include/pic18f8622.h"
  1301                           OSCTUNE equ 0F9Bh ;# 
  1302                           # 7650 "/Applications/microchip/xc8/v1.12/include/pic18f8622.h"
  1303                           MEMCON equ 0F9Ch ;# 
  1304                           # 7710 "/Applications/microchip/xc8/v1.12/include/pic18f8622.h"
  1305                           PIE1 equ 0F9Dh ;# 
  1306                           # 7792 "/Applications/microchip/xc8/v1.12/include/pic18f8622.h"
  1307                           PIR1 equ 0F9Eh ;# 
  1308                           # 7874 "/Applications/microchip/xc8/v1.12/include/pic18f8622.h"
  1309                           IPR1 equ 0F9Fh ;# 
  1310                           # 7956 "/Applications/microchip/xc8/v1.12/include/pic18f8622.h"
  1311                           PIE2 equ 0FA0h ;# 
  1312                           # 8027 "/Applications/microchip/xc8/v1.12/include/pic18f8622.h"
  1313                           PIR2 equ 0FA1h ;# 
  1314                           # 8098 "/Applications/microchip/xc8/v1.12/include/pic18f8622.h"
  1315                           IPR2 equ 0FA2h ;# 
  1316                           # 8169 "/Applications/microchip/xc8/v1.12/include/pic18f8622.h"
  1317                           PIE3 equ 0FA3h ;# 
  1318                           # 8292 "/Applications/microchip/xc8/v1.12/include/pic18f8622.h"
  1319                           PIR3 equ 0FA4h ;# 
  1320                           # 8371 "/Applications/microchip/xc8/v1.12/include/pic18f8622.h"
  1321                           IPR3 equ 0FA5h ;# 
  1322                           # 8450 "/Applications/microchip/xc8/v1.12/include/pic18f8622.h"
  1323                           EECON1 equ 0FA6h ;# 
  1324                           # 8515 "/Applications/microchip/xc8/v1.12/include/pic18f8622.h"
  1325                           EECON2 equ 0FA7h ;# 
  1326                           # 8521 "/Applications/microchip/xc8/v1.12/include/pic18f8622.h"
  1327                           EEDATA equ 0FA8h ;# 
  1328                           # 8527 "/Applications/microchip/xc8/v1.12/include/pic18f8622.h"
  1329                           EEADR equ 0FA9h ;# 
  1330                           # 8533 "/Applications/microchip/xc8/v1.12/include/pic18f8622.h"
  1331                           EEADRH equ 0FAAh ;# 
  1332                           # 8539 "/Applications/microchip/xc8/v1.12/include/pic18f8622.h"
  1333                           RCSTA1 equ 0FABh ;# 
  1334                           # 8544 "/Applications/microchip/xc8/v1.12/include/pic18f8622.h"
  1335                           RCSTA equ 0FABh ;# 
  1336                           # 8862 "/Applications/microchip/xc8/v1.12/include/pic18f8622.h"
  1337                           TXSTA1 equ 0FACh ;# 
  1338                           # 8867 "/Applications/microchip/xc8/v1.12/include/pic18f8622.h"
  1339                           TXSTA equ 0FACh ;# 
  1340                           # 9149 "/Applications/microchip/xc8/v1.12/include/pic18f8622.h"
  1341                           TXREG1 equ 0FADh ;# 
  1342                           # 9154 "/Applications/microchip/xc8/v1.12/include/pic18f8622.h"
  1343                           TXREG equ 0FADh ;# 
  1344                           # 9160 "/Applications/microchip/xc8/v1.12/include/pic18f8622.h"
  1345                           RCREG1 equ 0FAEh ;# 
  1346                           # 9165 "/Applications/microchip/xc8/v1.12/include/pic18f8622.h"
  1347                           RCREG equ 0FAEh ;# 
  1348                           # 9171 "/Applications/microchip/xc8/v1.12/include/pic18f8622.h"
  1349                           SPBRG1 equ 0FAFh ;# 
  1350                           # 9176 "/Applications/microchip/xc8/v1.12/include/pic18f8622.h"
  1351                           SPBRG equ 0FAFh ;# 
  1352                           # 9182 "/Applications/microchip/xc8/v1.12/include/pic18f8622.h"
  1353                           PSPCON equ 0FB0h ;# 
  1354                           # 9220 "/Applications/microchip/xc8/v1.12/include/pic18f8622.h"
  1355                           T3CON equ 0FB1h ;# 
  1356                           # 9342 "/Applications/microchip/xc8/v1.12/include/pic18f8622.h"
  1357                           TMR3 equ 0FB2h ;# 
  1358                           # 9348 "/Applications/microchip/xc8/v1.12/include/pic18f8622.h"
  1359                           TMR3L equ 0FB2h ;# 
  1360                           # 9354 "/Applications/microchip/xc8/v1.12/include/pic18f8622.h"
  1361                           TMR3H equ 0FB3h ;# 
  1362                           # 9360 "/Applications/microchip/xc8/v1.12/include/pic18f8622.h"
  1363                           CMCON equ 0FB4h ;# 
  1364                           # 9455 "/Applications/microchip/xc8/v1.12/include/pic18f8622.h"
  1365                           CVRCON equ 0FB5h ;# 
  1366                           # 9533 "/Applications/microchip/xc8/v1.12/include/pic18f8622.h"
  1367                           ECCP1AS equ 0FB6h ;# 
  1368                           # 9664 "/Applications/microchip/xc8/v1.12/include/pic18f8622.h"
  1369                           CCP3CON equ 0FB7h ;# 
  1370                           # 9669 "/Applications/microchip/xc8/v1.12/include/pic18f8622.h"
  1371                           ECCP3CON equ 0FB7h ;# 
  1372                           # 9855 "/Applications/microchip/xc8/v1.12/include/pic18f8622.h"
  1373                           CCPR3 equ 0FB8h ;# 
  1374                           # 9861 "/Applications/microchip/xc8/v1.12/include/pic18f8622.h"
  1375                           CCPR3L equ 0FB8h ;# 
  1376                           # 9867 "/Applications/microchip/xc8/v1.12/include/pic18f8622.h"
  1377                           CCPR3H equ 0FB9h ;# 
  1378                           # 9873 "/Applications/microchip/xc8/v1.12/include/pic18f8622.h"
  1379                           CCP2CON equ 0FBAh ;# 
  1380                           # 9878 "/Applications/microchip/xc8/v1.12/include/pic18f8622.h"
  1381                           ECCP2CON equ 0FBAh ;# 
  1382                           # 10064 "/Applications/microchip/xc8/v1.12/include/pic18f8622.h"
  1383                           CCPR2 equ 0FBBh ;# 
  1384                           # 10070 "/Applications/microchip/xc8/v1.12/include/pic18f8622.h"
  1385                           CCPR2L equ 0FBBh ;# 
  1386                           # 10076 "/Applications/microchip/xc8/v1.12/include/pic18f8622.h"
  1387                           CCPR2H equ 0FBCh ;# 
  1388                           # 10082 "/Applications/microchip/xc8/v1.12/include/pic18f8622.h"
  1389                           CCP1CON equ 0FBDh ;# 
  1390                           # 10087 "/Applications/microchip/xc8/v1.12/include/pic18f8622.h"
  1391                           ECCP1CON equ 0FBDh ;# 
  1392                           # 10273 "/Applications/microchip/xc8/v1.12/include/pic18f8622.h"
  1393                           CCPR1 equ 0FBEh ;# 
  1394                           # 10279 "/Applications/microchip/xc8/v1.12/include/pic18f8622.h"
  1395                           CCPR1L equ 0FBEh ;# 
  1396                           # 10285 "/Applications/microchip/xc8/v1.12/include/pic18f8622.h"
  1397                           CCPR1H equ 0FBFh ;# 
  1398                           # 10291 "/Applications/microchip/xc8/v1.12/include/pic18f8622.h"
  1399                           ADCON2 equ 0FC0h ;# 
  1400                           # 10361 "/Applications/microchip/xc8/v1.12/include/pic18f8622.h"
  1401                           ADCON1 equ 0FC1h ;# 
  1402                           # 10451 "/Applications/microchip/xc8/v1.12/include/pic18f8622.h"
  1403                           ADCON0 equ 0FC2h ;# 
  1404                           # 10573 "/Applications/microchip/xc8/v1.12/include/pic18f8622.h"
  1405                           ADRES equ 0FC3h ;# 
  1406                           # 10579 "/Applications/microchip/xc8/v1.12/include/pic18f8622.h"
  1407                           ADRESL equ 0FC3h ;# 
  1408                           # 10585 "/Applications/microchip/xc8/v1.12/include/pic18f8622.h"
  1409                           ADRESH equ 0FC4h ;# 
  1410                           # 10591 "/Applications/microchip/xc8/v1.12/include/pic18f8622.h"
  1411                           SSP1CON2 equ 0FC5h ;# 
  1412                           # 10596 "/Applications/microchip/xc8/v1.12/include/pic18f8622.h"
  1413                           SSPCON2 equ 0FC5h ;# 
  1414                           # 11034 "/Applications/microchip/xc8/v1.12/include/pic18f8622.h"
  1415                           SSP1CON1 equ 0FC6h ;# 
  1416                           # 11039 "/Applications/microchip/xc8/v1.12/include/pic18f8622.h"
  1417                           SSPCON1 equ 0FC6h ;# 
  1418                           # 11313 "/Applications/microchip/xc8/v1.12/include/pic18f8622.h"
  1419                           SSP1STAT equ 0FC7h ;# 
  1420                           # 11318 "/Applications/microchip/xc8/v1.12/include/pic18f8622.h"
  1421                           SSPSTAT equ 0FC7h ;# 
  1422                           # 11986 "/Applications/microchip/xc8/v1.12/include/pic18f8622.h"
  1423                           SSP1ADD equ 0FC8h ;# 
  1424                           # 11991 "/Applications/microchip/xc8/v1.12/include/pic18f8622.h"
  1425                           SSPADD equ 0FC8h ;# 
  1426                           # 12291 "/Applications/microchip/xc8/v1.12/include/pic18f8622.h"
  1427                           SSP1BUF equ 0FC9h ;# 
  1428                           # 12296 "/Applications/microchip/xc8/v1.12/include/pic18f8622.h"
  1429                           SSPBUF equ 0FC9h ;# 
  1430                           # 12302 "/Applications/microchip/xc8/v1.12/include/pic18f8622.h"
  1431                           T2CON equ 0FCAh ;# 
  1432                           # 12372 "/Applications/microchip/xc8/v1.12/include/pic18f8622.h"
  1433                           PR2 equ 0FCBh ;# 
  1434                           # 12378 "/Applications/microchip/xc8/v1.12/include/pic18f8622.h"
  1435                           TMR2 equ 0FCCh ;# 
  1436                           # 12384 "/Applications/microchip/xc8/v1.12/include/pic18f8622.h"
  1437                           T1CON equ 0FCDh ;# 
  1438                           # 12497 "/Applications/microchip/xc8/v1.12/include/pic18f8622.h"
  1439                           TMR1 equ 0FCEh ;# 
  1440                           # 12503 "/Applications/microchip/xc8/v1.12/include/pic18f8622.h"
  1441                           TMR1L equ 0FCEh ;# 
  1442                           # 12509 "/Applications/microchip/xc8/v1.12/include/pic18f8622.h"
  1443                           TMR1H equ 0FCFh ;# 
  1444                           # 12515 "/Applications/microchip/xc8/v1.12/include/pic18f8622.h"
  1445                           RCON equ 0FD0h ;# 
  1446  001566                     __ptext0:
  1447                           opt subtitle "HI-TECH Software Omniscient Code Generator (Lite mode) build 49521"
  1448                           
  1449                           opt pagewidth 120
  1450                           
  1451  0000                     	__size_of_main	equ	__end_of_main-_main
  1452                           opt subtitle "HI-TECH Software Omniscient Code Generator (Lite mode) build 49521"
  1453  001566                     _main:
  1454                           opt subtitle "HI-TECH Software Omniscient Code Generator (Lite mode) build 49521"
  1455                           
  1456                           opt pagewidth 120
  1457  001566                     l1678:
  1458                           opt subtitle "HI-TECH Software Omniscient Code Generator (Lite mode) build 49521"
  1459  001566  88D3               		bsf	((c:4051)),c, 4+0	;volatile
  1460  001568  8AD3               	bsf	((c:4051)),c, 4+1	;volatile
  1461  00156A  8CD3               	bsf	((c:4051)),c, 4+2	;volatile
  1462                           opt subtitle "HI-TECH Software Omniscient Code Generator (Lite mode) build 49521"
  1463                           
  1464                           opt pagewidth 120
  1465  00156C  90C2               	bcf	((c:4034)),c,0	;volatile
  1466                           opt subtitle "HI-TECH Software Omniscient Code Generator (Lite mode) build 49521"
  1467                           
  1468  00156E  80C1               	bsf	((c:4033)),c,0	;volatile
  1469                           opt subtitle "HI-TECH Software Omniscient Code Generator (Lite mode) build 49521"
  1470                           
  1471  001570  82C1               	bsf	((c:4033)),c,1	;volatile
  1472                           opt subtitle "HI-TECH Software Omniscient Code Generator (Lite mode) build 49521"
  1473                           
  1474  001572  84C1               	bsf	((c:4033)),c,2	;volatile
  1475                           opt subtitle "HI-TECH Software Omniscient Code Generator (Lite mode) build 49521"
  1476                           
  1477  001574  86C1               	bsf	((c:4033)),c,3	;volatile
  1478                           opt subtitle "HI-TECH Software Omniscient Code Generator (Lite mode) build 49521"
  1479                           
  1480  001576  80B4               	bsf	((c:4020)),c,0	;volatile
  1481                           opt subtitle "HI-TECH Software Omniscient Code Generator (Lite mode) build 49521"
  1482                           
  1483  001578  82B4               	bsf	((c:4020)),c,1	;volatile
  1484                           opt subtitle "HI-TECH Software Omniscient Code Generator (Lite mode) build 49521"
  1485                           
  1486  00157A  84B4               	bsf	((c:4020)),c,2	;volatile
  1487                           opt subtitle "HI-TECH Software Omniscient Code Generator (Lite mode) build 49521"
  1488                           
  1489  00157C                     l1680:
  1490                           opt subtitle "HI-TECH Software Omniscient Code Generator (Lite mode) build 49521"
  1491  00157C  0E00               	movlw	low(0)
  1492  00157E  6E92               	movwf	((c:3986)),c	;volatile
  1493                           opt subtitle "HI-TECH Software Omniscient Code Generator (Lite mode) build 49521"
  1494                           
  1495  001580  0E00               	movlw	low(0)
  1496  001582  6E93               	movwf	((c:3987)),c	;volatile
  1497                           opt subtitle "HI-TECH Software Omniscient Code Generator (Lite mode) build 49521"
  1498                           
  1499  001584  0E18               	movlw	low(018h)
  1500  001586  6E94               	movwf	((c:3988)),c	;volatile
  1501                           opt subtitle "HI-TECH Software Omniscient Code Generator (Lite mode) build 49521"
  1502                           
  1503  001588  0E00               	movlw	low(0)
  1504  00158A  6E95               	movwf	((c:3989)),c	;volatile
  1505                           opt subtitle "HI-TECH Software Omniscient Code Generator (Lite mode) build 49521"
  1506                           
  1507  00158C  0E00               	movlw	low(0)
  1508  00158E  6E96               	movwf	((c:3990)),c	;volatile
  1509                           opt subtitle "HI-TECH Software Omniscient Code Generator (Lite mode) build 49521"
  1510                           
  1511  001590  0E00               	movlw	low(0)
  1512  001592  6E97               	movwf	((c:3991)),c	;volatile
  1513                           opt subtitle "HI-TECH Software Omniscient Code Generator (Lite mode) build 49521"
  1514                           
  1515  001594  0E00               	movlw	low(0)
  1516  001596  6E98               	movwf	((c:3992)),c	;volatile
  1517                           opt subtitle "HI-TECH Software Omniscient Code Generator (Lite mode) build 49521"
  1518                           
  1519  001598  0E00               	movlw	low(0)
  1520  00159A  6E99               	movwf	((c:3993)),c	;volatile
  1521                           opt subtitle "HI-TECH Software Omniscient Code Generator (Lite mode) build 49521"
  1522                           
  1523  00159C  0E00               	movlw	low(0)
  1524  00159E  6E9A               	movwf	((c:3994)),c	;volatile
  1525                           opt subtitle "HI-TECH Software Omniscient Code Generator (Lite mode) build 49521"
  1526                           
  1527  0015A0  0E00               	movlw	low(0)
  1528  0015A2  6E80               	movwf	((c:3968)),c	;volatile
  1529                           opt subtitle "HI-TECH Software Omniscient Code Generator (Lite mode) build 49521"
  1530                           
  1531  0015A4  0E00               	movlw	low(0)
  1532  0015A6  6E81               	movwf	((c:3969)),c	;volatile
  1533                           opt subtitle "HI-TECH Software Omniscient Code Generator (Lite mode) build 49521"
  1534                           
  1535  0015A8  0E00               	movlw	low(0)
  1536  0015AA  6E82               	movwf	((c:3970)),c	;volatile
  1537                           opt subtitle "HI-TECH Software Omniscient Code Generator (Lite mode) build 49521"
  1538                           
  1539  0015AC  0E00               	movlw	low(0)
  1540  0015AE  6E83               	movwf	((c:3971)),c	;volatile
  1541                           opt subtitle "HI-TECH Software Omniscient Code Generator (Lite mode) build 49521"
  1542                           
  1543  0015B0  0E00               	movlw	low(0)
  1544  0015B2  6E84               	movwf	((c:3972)),c	;volatile
  1545                           opt subtitle "HI-TECH Software Omniscient Code Generator (Lite mode) build 49521"
  1546                           
  1547  0015B4  0E00               	movlw	low(0)
  1548  0015B6  6E85               	movwf	((c:3973)),c	;volatile
  1549                           opt subtitle "HI-TECH Software Omniscient Code Generator (Lite mode) build 49521"
  1550                           
  1551  0015B8  0E00               	movlw	low(0)
  1552  0015BA  6E86               	movwf	((c:3974)),c	;volatile
  1553                           opt subtitle "HI-TECH Software Omniscient Code Generator (Lite mode) build 49521"
  1554                           
  1555  0015BC  0E00               	movlw	low(0)
  1556  0015BE  6E87               	movwf	((c:3975)),c	;volatile
  1557                           opt subtitle "HI-TECH Software Omniscient Code Generator (Lite mode) build 49521"
  1558                           
  1559  0015C0                     l1682:
  1560                           opt subtitle "HI-TECH Software Omniscient Code Generator (Lite mode) build 49521"
  1561  0015C0  6888               	setf	((c:3976)),c	;volatile
  1562                           opt subtitle "HI-TECH Software Omniscient Code Generator (Lite mode) build 49521"
  1563                           
  1564  0015C2                     l1684:
  1565                           opt subtitle "HI-TECH Software Omniscient Code Generator (Lite mode) build 49521"
  1566  0015C2  9EF2               	bcf	((c:4082)),c,7	;volatile
  1567                           opt subtitle "HI-TECH Software Omniscient Code Generator (Lite mode) build 49521"
  1568                           
  1569  0015C4                     l1686:
  1570                           opt subtitle "HI-TECH Software Omniscient Code Generator (Lite mode) build 49521"
  1571  0015C4  9CF2               	bcf	((c:4082)),c,6	;volatile
  1572                           opt subtitle "HI-TECH Software Omniscient Code Generator (Lite mode) build 49521"
  1573                           
  1574  0015C6                     l1688:
  1575                           opt subtitle "HI-TECH Software Omniscient Code Generator (Lite mode) build 49521"
  1576  0015C6  ECE7  F009         	call	_lcd_start	;wreg free
  1577                           opt subtitle "HI-TECH Software Omniscient Code Generator (Lite mode) build 49521"
  1578                           
  1579  0015CA                     l1690:
  1580                           opt subtitle "HI-TECH Software Omniscient Code Generator (Lite mode) build 49521"
  1581  0015CA  9AC6               	bcf	(0+(5/8)+(c:4038)),c,(5)&7	;volatile
  1582                           opt subtitle "HI-TECH Software Omniscient Code Generator (Lite mode) build 49521"
  1583                           
  1584  0015CC                     l1692:
  1585                           opt subtitle "HI-TECH Software Omniscient Code Generator (Lite mode) build 49521"
  1586  0015CC  6E30               	movwf	(??_main+0+0)&0ffh,c
  1587  0015CE  0E04               	movlw	low(04h)
  1588  0015D0  6E12               	movwf	((c:?_OpenSPI1)),c
  1589  0015D2  5030               	movf	(??_main+0+0)&0ffh,c,w
  1590  0015D4  6E31               	movwf	(??_main+1+0)&0ffh,c
  1591  0015D6  0E00               	movlw	low(0)
  1592  0015D8  6E13               	movwf	(0+((c:?_OpenSPI1)+01h)),c
  1593  0015DA  5031               	movf	(??_main+1+0)&0ffh,c,w
  1594  0015DC  6E32               	movwf	(??_main+2+0)&0ffh,c
  1595  0015DE  0E00               	movlw	low(0)
  1596  0015E0  6E14               	movwf	(0+((c:?_OpenSPI1)+02h)),c
  1597  0015E2  5032               	movf	(??_main+2+0)&0ffh,c,w
  1598  0015E4  EC03  F00D         	call	_OpenSPI1	;wreg free
  1599                           opt subtitle "HI-TECH Software Omniscient Code Generator (Lite mode) build 49521"
  1600                           
  1601  0015E8                     l1694:
  1602                           opt subtitle "HI-TECH Software Omniscient Code Generator (Lite mode) build 49521"
  1603  0015E8  869F               	bsf	((c:3999)),c,3	;volatile
  1604                           opt subtitle "HI-TECH Software Omniscient Code Generator (Lite mode) build 49521"
  1605                           
  1606  0015EA                     l1696:
  1607                           opt subtitle "HI-TECH Software Omniscient Code Generator (Lite mode) build 49521"
  1608  0015EA  969E               	bcf	((c:3998)),c,3	;volatile
  1609                           opt subtitle "HI-TECH Software Omniscient Code Generator (Lite mode) build 49521"
  1610                           
  1611  0015EC                     l1698:
  1612                           opt subtitle "HI-TECH Software Omniscient Code Generator (Lite mode) build 49521"
  1613  0015EC  969D               	bcf	((c:3997)),c,3	;volatile
  1614                           opt subtitle "HI-TECH Software Omniscient Code Generator (Lite mode) build 49521"
  1615                           
  1616  0015EE  D00D               	goto	l1704
  1617                           opt subtitle "HI-TECH Software Omniscient Code Generator (Lite mode) build 49521"
  1618  0015F0                     l179:
  1619                           opt subtitle "HI-TECH Software Omniscient Code Generator (Lite mode) build 49521"
  1620  0015F0                     l1700:
  1621  0015F0  0100               	movlb	0	; () banked
  1622  0015F2  0E60               	movlw	low(_SPI_Data)
  1623  0015F4  2443               	addwf	((c:_i)),c,w
  1624  0015F6  6ED9               	movwf	c:fsr2l
  1625  0015F8  0100               	movlb	0	; () banked
  1626  0015FA  0E00               	movlw	high(_SPI_Data)
  1627  0015FC  2044               	addwfc	((c:_i+1)),c,w
  1628  0015FE  6EDA               	movwf	1+c:fsr2l
  1629  001600  0E00               	movlw	low(0)
  1630  001602  6EDF               	movwf	indf2
  1631                           opt subtitle "HI-TECH Software Omniscient Code Generator (Lite mode) build 49521"
  1632  001604                     l1702:; BSR set to: 0
  1633                           opt subtitle "HI-TECH Software Omniscient Code Generator (Lite mode) build 49521"
  1634  001604  4A43               	infsnz	((c:_i)),c
  1635  001606  2A44               	incf	((c:_i+1)),c
  1636  001608  D000               	goto	l1704
  1637                           opt subtitle "HI-TECH Software Omniscient Code Generator (Lite mode) build 49521"
  1638  00160A                     l178:; BSR set to: 0
  1639                           opt subtitle "HI-TECH Software Omniscient Code Generator (Lite mode) build 49521"
  1640                           
  1641  00160A                     l1704:
  1642  00160A  5044               	movf	((c:_i+1)),c,w
  1643  00160C  0A80               	xorlw	80h
  1644  00160E  0F80               	addlw	-((0)^80h)
  1645  001610  0E40               	movlw	040h
  1646  001612  B4D8               	btfsc	status,2
  1647  001614  5C43               	subwf	((c:_i)),c,w
  1648  001616  A0D8               	btfss	status,0
  1649  001618  D001               	goto	u911
  1650  00161A  D001               	goto	u910
  1651  00161C                     u911:
  1652  00161C  D7E9               	goto	l1700
  1653  00161E                     u910:
  1654  00161E  D000               	goto	l1706
  1655                           opt subtitle "HI-TECH Software Omniscient Code Generator (Lite mode) build 49521"
  1656  001620                     l180:
  1657                           opt subtitle "HI-TECH Software Omniscient Code Generator (Lite mode) build 49521"
  1658  001620                     l1706:
  1659  001620  0E00               	movlw	high(0)
  1660  001622  6E44               	movwf	((c:_i+1)),c
  1661  001624  0E00               	movlw	low(0)
  1662  001626  6E43               	movwf	((c:_i)),c
  1663                           opt subtitle "HI-TECH Software Omniscient Code Generator (Lite mode) build 49521"
  1664                           
  1665                           opt pagewidth 120
  1666  001628                     l181:
  1667                           opt subtitle "HI-TECH Software Omniscient Code Generator (Lite mode) build 49521"
  1668                           
  1669                           opt pagewidth 120
  1670  001628  5042               	movf	((c:_update_lcd)),c,w
  1671  00162A  B4D8               	btfsc	status,2
  1672  00162C  D001               	goto	u921
  1673  00162E  D001               	goto	u920
  1674  001630                     u921:
  1675  001630  D7FB               	goto	l181
  1676  001632                     u920:
  1677                           opt subtitle "HI-TECH Software Omniscient Code Generator (Lite mode) build 49521"
  1678                           
  1679  001632                     l1708:
  1680                           opt subtitle "HI-TECH Software Omniscient Code Generator (Lite mode) build 49521"
  1681                           
  1682  001632  0100               	movlb	0	; () banked
  1683  001634  0E00               	movlw	high(_mensagem_lcd)
  1684  001636  6E21               	movwf	((c:?_sprintf+1)),c
  1685  001638  0100               	movlb	0	; () banked
  1686  00163A  0EB5               	movlw	low(_mensagem_lcd)
  1687  00163C  6E20               	movwf	((c:?_sprintf)),c
  1688  00163E  0E10               	movlw	high(STR_1)
  1689  001640  6E23               	movwf	(1+((c:?_sprintf)+02h)),c
  1690  001642  0E3B               	movlw	low(STR_1)
  1691  001644  6E22               	movwf	(0+((c:?_sprintf)+02h)),c
  1692  001646  C047  F024         	movff	(c:_nBytes_SPI),0+((c:?_sprintf)+04h)
  1693  00164A  6A25               	clrf	(1+((c:?_sprintf)+04h)),c
  1694  00164C  C045  F026         	movff	(c:_transmissoes),0+((c:?_sprintf)+06h)
  1695  001650  C046  F027         	movff	(c:_transmissoes+1),1+((c:?_sprintf)+06h)
  1696  001654  EC27  F008         	call	_sprintf	;wreg free
  1697                           opt subtitle "HI-TECH Software Omniscient Code Generator (Lite mode) build 49521"
  1698                           
  1699  001658                     l1710:
  1700                           opt subtitle "HI-TECH Software Omniscient Code Generator (Lite mode) build 49521"
  1701  001658  6E30               	movwf	(??_main+0+0)&0ffh,c
  1702  00165A  0E01               	movlw	low(01h)
  1703  00165C  6E1D               	movwf	((c:?_mostra_lcd_buff)),c
  1704  00165E  5030               	movf	(??_main+0+0)&0ffh,c,w
  1705  001660  6E31               	movwf	(??_main+1+0)&0ffh,c
  1706  001662  0E01               	movlw	low(01h)
  1707  001664  6E1E               	movwf	(0+((c:?_mostra_lcd_buff)+01h)),c
  1708  001666  5031               	movf	(??_main+1+0)&0ffh,c,w
  1709  001668  0100               	movlb	0	; () banked
  1710  00166A  0E00               	movlw	high(_mensagem_lcd)
  1711  00166C  6E20               	movwf	(1+((c:?_mostra_lcd_buff)+02h)),c
  1712  00166E  0100               	movlb	0	; () banked
  1713  001670  0EB5               	movlw	low(_mensagem_lcd)
  1714  001672  6E1F               	movwf	(0+((c:?_mostra_lcd_buff)+02h)),c
  1715  001674  6E32               	movwf	(??_main+2+0)&0ffh,c
  1716  001676  0E10               	movlw	low(010h)
  1717  001678  6E21               	movwf	(0+((c:?_mostra_lcd_buff)+04h)),c
  1718  00167A  5032               	movf	(??_main+2+0)&0ffh,c,w
  1719  00167C  EC9F  F00D         	call	_mostra_lcd_buff	;wreg free
  1720                           opt subtitle "HI-TECH Software Omniscient Code Generator (Lite mode) build 49521"
  1721                           
  1722  001680                     l1712:
  1723                           opt subtitle "HI-TECH Software Omniscient Code Generator (Lite mode) build 49521"
  1724  001680  0100               	movlb	0	; () banked
  1725  001682  0E00               	movlw	high(_mensagem_lcd)
  1726  001684  6E21               	movwf	((c:?_sprintf+1)),c
  1727  001686  0100               	movlb	0	; () banked
  1728  001688  0EB5               	movlw	low(_mensagem_lcd)
  1729  00168A  6E20               	movwf	((c:?_sprintf)),c
  1730  00168C  0E10               	movlw	high(STR_2)
  1731  00168E  6E23               	movwf	(1+((c:?_sprintf)+02h)),c
  1732  001690  0E12               	movlw	low(STR_2)
  1733  001692  6E22               	movwf	(0+((c:?_sprintf)+02h)),c
  1734  001694  0100               	movlb	0	; () banked
  1735  001696  C060  F024         	movff	(_SPI_Data),0+((c:?_sprintf)+04h)
  1736  00169A  6A25               	clrf	(1+((c:?_sprintf)+04h)),c
  1737  00169C  0100               	movlb	0	; () banked
  1738  00169E  C061  F026         	movff	0+(_SPI_Data+01h),0+((c:?_sprintf)+06h)
  1739  0016A2  6A27               	clrf	(1+((c:?_sprintf)+06h)),c
  1740  0016A4  0100               	movlb	0	; () banked
  1741  0016A6  C062  F028         	movff	0+(_SPI_Data+02h),0+((c:?_sprintf)+08h)
  1742  0016AA  6A29               	clrf	(1+((c:?_sprintf)+08h)),c
  1743  0016AC  0100               	movlb	0	; () banked
  1744  0016AE  C063  F02A         	movff	0+(_SPI_Data+03h),0+((c:?_sprintf)+0Ah)
  1745  0016B2  6A2B               	clrf	(1+((c:?_sprintf)+0Ah)),c
  1746  0016B4  0100               	movlb	0	; () banked
  1747  0016B6  C064  F02C         	movff	0+(_SPI_Data+04h),0+((c:?_sprintf)+0Ch)
  1748  0016BA  6A2D               	clrf	(1+((c:?_sprintf)+0Ch)),c
  1749  0016BC  EC27  F008         	call	_sprintf	;wreg free
  1750                           opt subtitle "HI-TECH Software Omniscient Code Generator (Lite mode) build 49521"
  1751                           
  1752  0016C0  6E30               	movwf	(??_main+0+0)&0ffh,c
  1753  0016C2  0E02               	movlw	low(02h)
  1754  0016C4  6E1D               	movwf	((c:?_mostra_lcd_buff)),c
  1755  0016C6  5030               	movf	(??_main+0+0)&0ffh,c,w
  1756  0016C8  6E31               	movwf	(??_main+1+0)&0ffh,c
  1757  0016CA  0E01               	movlw	low(01h)
  1758  0016CC  6E1E               	movwf	(0+((c:?_mostra_lcd_buff)+01h)),c
  1759  0016CE  5031               	movf	(??_main+1+0)&0ffh,c,w
  1760  0016D0  0100               	movlb	0	; () banked
  1761  0016D2  0E00               	movlw	high(_mensagem_lcd)
  1762  0016D4  6E20               	movwf	(1+((c:?_mostra_lcd_buff)+02h)),c
  1763  0016D6  0100               	movlb	0	; () banked
  1764  0016D8  0EB5               	movlw	low(_mensagem_lcd)
  1765  0016DA  6E1F               	movwf	(0+((c:?_mostra_lcd_buff)+02h)),c
  1766  0016DC  6E32               	movwf	(??_main+2+0)&0ffh,c
  1767  0016DE  0E10               	movlw	low(010h)
  1768  0016E0  6E21               	movwf	(0+((c:?_mostra_lcd_buff)+04h)),c
  1769  0016E2  5032               	movf	(??_main+2+0)&0ffh,c,w
  1770  0016E4  EC9F  F00D         	call	_mostra_lcd_buff	;wreg free
  1771                           opt subtitle "HI-TECH Software Omniscient Code Generator (Lite mode) build 49521"
  1772                           
  1773  0016E8                     l1714:
  1774                           opt subtitle "HI-TECH Software Omniscient Code Generator (Lite mode) build 49521"
  1775  0016E8  6E30               	movwf	(??_main+0+0)&0ffh,c
  1776  0016EA  0E00               	movlw	low(0)
  1777  0016EC  6E42               	movwf	((c:_update_lcd)),c
  1778  0016EE  5030               	movf	(??_main+0+0)&0ffh,c,w
  1779  0016F0  D79B               	goto	l181
  1780                           opt subtitle "HI-TECH Software Omniscient Code Generator (Lite mode) build 49521"
  1781                           
  1782  0016F2                     l182:
  1783  0016F2  D79A               	goto	l181
  1784                           opt subtitle "HI-TECH Software Omniscient Code Generator (Lite mode) build 49521"
  1785                           
  1786  0016F4                     l183:
  1787                           opt subtitle "HI-TECH Software Omniscient Code Generator (Lite mode) build 49521"
  1788  0016F4  D799               	goto	l181
  1789                           opt subtitle "HI-TECH Software Omniscient Code Generator (Lite mode) build 49521"
  1790  0016F6                     l184:
  1791                           opt subtitle "HI-TECH Software Omniscient Code Generator (Lite mode) build 49521"
  1792                           
  1793  0016F6                     l185:
  1794                           opt subtitle "HI-TECH Software Omniscient Code Generator (Lite mode) build 49521"
  1795  0016F6  EF79  F000         	goto	start
  1796                           opt subtitle "HI-TECH Software Omniscient Code Generator (Lite mode) build 49521"
  1797                           
  1798  0016FA                     	__end_of_main:
  1799                           opt subtitle "HI-TECH Software Omniscient Code Generator (Lite mode) build 49521"
  1800                           
  1801                           opt pagewidth 120
  1802                           
  1803                           	opt lm
  1804                           
  1805                           	processor	18F8622
  1806                           porta	equ	0F80h
  1807                           portb	equ	0F81h
  1808                           portc	equ	0F82h
  1809                           portd	equ	0F83h
  1810                           porte	equ	0F84h
  1811                           lata	equ	0F89h
  1812                           latb	equ	0F8Ah
  1813                           latc	equ	0F8Bh
  1814                           latd	equ	0F8Ch
  1815                           late	equ	0F8Dh
  1816                           trisa	equ	0F92h
  1817                           trisb	equ	0F93h
  1818                           trisc	equ	0F94h
  1819                           trisd	equ	0F95h
  1820                           trise	equ	0F96h
  1821                           pie1	equ	0F9Dh
  1822                           pir1	equ	0F9Eh
  1823                           ipr1	equ	0F9Fh
  1824                           pie2	equ	0FA0h
  1825                           pir2	equ	0FA1h
  1826                           ipr2	equ	0FA2h
  1827                           t3con	equ	0FB1h
  1828                           tmr3l	equ	0FB2h
  1829                           tmr3h	equ	0FB3h
  1830                           ccp1con	equ	0FBDh
  1831                           ccpr1l	equ	0FBEh
  1832                           ccpr1h	equ	0FBFh
  1833                           adcon1	equ	0FC1h
  1834                           adcon0	equ	0FC2h
  1835                           adresl	equ	0FC3h
  1836                           adresh	equ	0FC4h
  1837                           sspcon2	equ	0FC5h
  1838  001B3E                     __ptext1:
  1839                           opt subtitle "HI-TECH Software Omniscient Code Generator (Lite mode) build 49521"
  1840                           
  1841                           opt pagewidth 120
  1842                           
  1843  0000                     	__size_of_mostra_lcd_buff	equ	__end_of_mostra_lcd_buff-_mostra_lcd_buff
  1844                           opt subtitle "HI-TECH Software Omniscient Code Generator (Lite mode) build 49521"
  1845  001B3E                     _mostra_lcd_buff:
  1846                           opt subtitle "HI-TECH Software Omniscient Code Generator (Lite mode) build 49521"
  1847                           
  1848                           opt pagewidth 120
  1849  001B3E                     l1400:
  1850                           opt subtitle "HI-TECH Software Omniscient Code Generator (Lite mode) build 49521"
  1851  001B3E  C01D  F01A         	movff	(c:mostra_lcd_buff@line),(c:?_pos_lcd)
  1852  001B42  C01E  F01B         	movff	(c:mostra_lcd_buff@column),0+((c:?_pos_lcd)+01h)
  1853  001B46  EC7D  F00C         	call	_pos_lcd	;wreg free
  1854                           opt subtitle "HI-TECH Software Omniscient Code Generator (Lite mode) build 49521"
  1855                           
  1856  001B4A  D00B               	goto	l1406
  1857                           opt subtitle "HI-TECH Software Omniscient Code Generator (Lite mode) build 49521"
  1858  001B4C                     l141:
  1859                           opt subtitle "HI-TECH Software Omniscient Code Generator (Lite mode) build 49521"
  1860                           
  1861  001B4C                     l1402:
  1862                           opt subtitle "HI-TECH Software Omniscient Code Generator (Lite mode) build 49521"
  1863                           
  1864  001B4C  C01F  FFD9         	movff	(c:mostra_lcd_buff@p_char),fsr2l
  1865  001B50  C020  FFDA         	movff	(c:mostra_lcd_buff@p_char+1),fsr2h
  1866  001B54  50DF               	movf	indf2,w
  1867  001B56  6E1A               	movwf	((c:?_envia_dado)),c
  1868  001B58  ECC8  F00D         	call	_envia_dado	;wreg free
  1869                           opt subtitle "HI-TECH Software Omniscient Code Generator (Lite mode) build 49521"
  1870                           
  1871  001B5C                     l1404:
  1872                           opt subtitle "HI-TECH Software Omniscient Code Generator (Lite mode) build 49521"
  1873  001B5C  4A1F               	infsnz	((c:mostra_lcd_buff@p_char)),c
  1874  001B5E  2A20               	incf	((c:mostra_lcd_buff@p_char+1)),c
  1875  001B60  D000               	goto	l1406
  1876                           opt subtitle "HI-TECH Software Omniscient Code Generator (Lite mode) build 49521"
  1877                           
  1878  001B62                     l140:
  1879                           opt subtitle "HI-TECH Software Omniscient Code Generator (Lite mode) build 49521"
  1880                           
  1881  001B62                     l1406:
  1882  001B62  0621               	decf	((c:mostra_lcd_buff@buffer_size)),c
  1883  001B64  2821               	incf	((c:mostra_lcd_buff@buffer_size))&0ffh,w
  1884                           opt subtitle "HI-TECH Software Omniscient Code Generator (Lite mode) build 49521"
  1885  001B66  A4D8               	btfss	status,2
  1886  001B68  D001               	goto	u631
  1887  001B6A  D001               	goto	u630
  1888  001B6C                     u631:
  1889  001B6C  D7EF               	goto	l1402
  1890  001B6E                     u630:
  1891  001B6E  D000               	goto	l143
  1892                           opt subtitle "HI-TECH Software Omniscient Code Generator (Lite mode) build 49521"
  1893  001B70                     l142:
  1894                           opt subtitle "HI-TECH Software Omniscient Code Generator (Lite mode) build 49521"
  1895                           
  1896  001B70                     l143:
  1897  001B70  0012               	return
  1898                           opt subtitle "HI-TECH Software Omniscient Code Generator (Lite mode) build 49521"
  1899                           
  1900  001B72                     	__end_of_mostra_lcd_buff:
  1901                           opt subtitle "HI-TECH Software Omniscient Code Generator (Lite mode) build 49521"
  1902                           
  1903                           opt pagewidth 120
  1904                           
  1905                           	opt lm
  1906                           
  1907                           	processor	18F8622
  1908                           porta	equ	0F80h
  1909                           portb	equ	0F81h
  1910                           portc	equ	0F82h
  1911                           portd	equ	0F83h
  1912                           porte	equ	0F84h
  1913                           lata	equ	0F89h
  1914                           latb	equ	0F8Ah
  1915                           latc	equ	0F8Bh
  1916                           latd	equ	0F8Ch
  1917                           late	equ	0F8Dh
  1918                           trisa	equ	0F92h
  1919                           trisb	equ	0F93h
  1920                           trisc	equ	0F94h
  1921                           trisd	equ	0F95h
  1922                           trise	equ	0F96h
  1923                           pie1	equ	0F9Dh
  1924                           pir1	equ	0F9Eh
  1925                           ipr1	equ	0F9Fh
  1926                           pie2	equ	0FA0h
  1927                           pir2	equ	0FA1h
  1928                           ipr2	equ	0FA2h
  1929                           t3con	equ	0FB1h
  1930                           tmr3l	equ	0FB2h
  1931                           tmr3h	equ	0FB3h
  1932                           ccp1con	equ	0FBDh
  1933                           ccpr1l	equ	0FBEh
  1934                           ccpr1h	equ	0FBFh
  1935                           adcon1	equ	0FC1h
  1936                           adcon0	equ	0FC2h
  1937  0018FA                     __ptext2:
  1938                           opt subtitle "HI-TECH Software Omniscient Code Generator (Lite mode) build 49521"
  1939                           
  1940                           opt pagewidth 120
  1941                           
  1942  0000                     	__size_of_pos_lcd	equ	__end_of_pos_lcd-_pos_lcd
  1943                           opt subtitle "HI-TECH Software Omniscient Code Generator (Lite mode) build 49521"
  1944  0018FA                     _pos_lcd:
  1945                           opt subtitle "HI-TECH Software Omniscient Code Generator (Lite mode) build 49521"
  1946                           
  1947                           opt pagewidth 120
  1948  0018FA                     l1374:
  1949                           opt subtitle "HI-TECH Software Omniscient Code Generator (Lite mode) build 49521"
  1950  0018FA  041A               	decf	((c:pos_lcd@line)),c,w
  1951                           opt subtitle "HI-TECH Software Omniscient Code Generator (Lite mode) build 49521"
  1952  0018FC  A4D8               	btfss	status,2
  1953  0018FE  D001               	goto	u581
  1954  001900  D001               	goto	u580
  1955  001902                     u581:
  1956  001902  D00E               	goto	l1378
  1957  001904                     u580:
  1958                           opt subtitle "HI-TECH Software Omniscient Code Generator (Lite mode) build 49521"
  1959                           
  1960  001904                     l1376:
  1961                           opt subtitle "HI-TECH Software Omniscient Code Generator (Lite mode) build 49521"
  1962  001904  501B               	movf	((c:pos_lcd@column)),c,w
  1963  001906  0F7F               	addlw	low(07Fh)
  1964  001908  6E14               	movwf	((c:?_envia_lcd)),c
  1965  00190A  6E1C               	movwf	(??_pos_lcd+0+0)&0ffh,c
  1966  00190C  0E00               	movlw	low(0)
  1967  00190E  6E15               	movwf	(0+((c:?_envia_lcd)+01h)),c
  1968  001910  501C               	movf	(??_pos_lcd+0+0)&0ffh,c,w
  1969  001912  0E00               	movlw	high(028h)
  1970  001914  6E17               	movwf	(1+((c:?_envia_lcd)+02h)),c
  1971  001916  0E28               	movlw	low(028h)
  1972  001918  6E16               	movwf	(0+((c:?_envia_lcd)+02h)),c
  1973  00191A  ECFF  F00B         	call	_envia_lcd	;wreg free
  1974  00191E  D000               	goto	l1378
  1975                           opt subtitle "HI-TECH Software Omniscient Code Generator (Lite mode) build 49521"
  1976  001920                     l124:
  1977                           opt subtitle "HI-TECH Software Omniscient Code Generator (Lite mode) build 49521"
  1978                           
  1979  001920                     l1378:
  1980                           opt subtitle "HI-TECH Software Omniscient Code Generator (Lite mode) build 49521"
  1981  001920  501A               	movf	((c:pos_lcd@line)),c,w
  1982  001922  0A02               	xorlw	2
  1983                           opt subtitle "HI-TECH Software Omniscient Code Generator (Lite mode) build 49521"
  1984  001924  A4D8               	btfss	status,2
  1985  001926  D001               	goto	u591
  1986  001928  D001               	goto	u590
  1987  00192A                     u591:
  1988  00192A  D00E               	goto	l1382
  1989  00192C                     u590:
  1990                           opt subtitle "HI-TECH Software Omniscient Code Generator (Lite mode) build 49521"
  1991                           
  1992  00192C                     l1380:
  1993                           opt subtitle "HI-TECH Software Omniscient Code Generator (Lite mode) build 49521"
  1994  00192C  501B               	movf	((c:pos_lcd@column)),c,w
  1995  00192E  0FBF               	addlw	low(0BFh)
  1996  001930  6E14               	movwf	((c:?_envia_lcd)),c
  1997  001932  6E1C               	movwf	(??_pos_lcd+0+0)&0ffh,c
  1998  001934  0E00               	movlw	low(0)
  1999  001936  6E15               	movwf	(0+((c:?_envia_lcd)+01h)),c
  2000  001938  501C               	movf	(??_pos_lcd+0+0)&0ffh,c,w
  2001  00193A  0E00               	movlw	high(028h)
  2002  00193C  6E17               	movwf	(1+((c:?_envia_lcd)+02h)),c
  2003  00193E  0E28               	movlw	low(028h)
  2004  001940  6E16               	movwf	(0+((c:?_envia_lcd)+02h)),c
  2005  001942  ECFF  F00B         	call	_envia_lcd	;wreg free
  2006  001946  D000               	goto	l1382
  2007                           opt subtitle "HI-TECH Software Omniscient Code Generator (Lite mode) build 49521"
  2008  001948                     l125:
  2009                           opt subtitle "HI-TECH Software Omniscient Code Generator (Lite mode) build 49521"
  2010                           
  2011  001948                     l1382:
  2012                           opt subtitle "HI-TECH Software Omniscient Code Generator (Lite mode) build 49521"
  2013  001948  501A               	movf	((c:pos_lcd@line)),c,w
  2014  00194A  0A03               	xorlw	3
  2015                           opt subtitle "HI-TECH Software Omniscient Code Generator (Lite mode) build 49521"
  2016  00194C  A4D8               	btfss	status,2
  2017  00194E  D001               	goto	u601
  2018  001950  D001               	goto	u600
  2019  001952                     u601:
  2020  001952  D00E               	goto	l1386
  2021  001954                     u600:
  2022                           opt subtitle "HI-TECH Software Omniscient Code Generator (Lite mode) build 49521"
  2023                           
  2024  001954                     l1384:
  2025                           opt subtitle "HI-TECH Software Omniscient Code Generator (Lite mode) build 49521"
  2026  001954  501B               	movf	((c:pos_lcd@column)),c,w
  2027  001956  0F93               	addlw	low(093h)
  2028  001958  6E14               	movwf	((c:?_envia_lcd)),c
  2029  00195A  6E1C               	movwf	(??_pos_lcd+0+0)&0ffh,c
  2030  00195C  0E00               	movlw	low(0)
  2031  00195E  6E15               	movwf	(0+((c:?_envia_lcd)+01h)),c
  2032  001960  501C               	movf	(??_pos_lcd+0+0)&0ffh,c,w
  2033  001962  0E00               	movlw	high(028h)
  2034  001964  6E17               	movwf	(1+((c:?_envia_lcd)+02h)),c
  2035  001966  0E28               	movlw	low(028h)
  2036  001968  6E16               	movwf	(0+((c:?_envia_lcd)+02h)),c
  2037  00196A  ECFF  F00B         	call	_envia_lcd	;wreg free
  2038  00196E  D000               	goto	l1386
  2039                           opt subtitle "HI-TECH Software Omniscient Code Generator (Lite mode) build 49521"
  2040  001970                     l126:
  2041                           opt subtitle "HI-TECH Software Omniscient Code Generator (Lite mode) build 49521"
  2042                           
  2043  001970                     l1386:
  2044                           opt subtitle "HI-TECH Software Omniscient Code Generator (Lite mode) build 49521"
  2045  001970  501A               	movf	((c:pos_lcd@line)),c,w
  2046  001972  0A04               	xorlw	4
  2047                           opt subtitle "HI-TECH Software Omniscient Code Generator (Lite mode) build 49521"
  2048  001974  A4D8               	btfss	status,2
  2049  001976  D001               	goto	u611
  2050  001978  D001               	goto	u610
  2051  00197A                     u611:
  2052  00197A  D00E               	goto	l128
  2053  00197C                     u610:
  2054                           opt subtitle "HI-TECH Software Omniscient Code Generator (Lite mode) build 49521"
  2055                           
  2056  00197C                     l1388:
  2057                           opt subtitle "HI-TECH Software Omniscient Code Generator (Lite mode) build 49521"
  2058  00197C  501B               	movf	((c:pos_lcd@column)),c,w
  2059  00197E  0FD3               	addlw	low(0D3h)
  2060  001980  6E14               	movwf	((c:?_envia_lcd)),c
  2061  001982  6E1C               	movwf	(??_pos_lcd+0+0)&0ffh,c
  2062  001984  0E00               	movlw	low(0)
  2063  001986  6E15               	movwf	(0+((c:?_envia_lcd)+01h)),c
  2064  001988  501C               	movf	(??_pos_lcd+0+0)&0ffh,c,w
  2065  00198A  0E00               	movlw	high(028h)
  2066  00198C  6E17               	movwf	(1+((c:?_envia_lcd)+02h)),c
  2067  00198E  0E28               	movlw	low(028h)
  2068  001990  6E16               	movwf	(0+((c:?_envia_lcd)+02h)),c
  2069  001992  ECFF  F00B         	call	_envia_lcd	;wreg free
  2070  001996  D000               	goto	l128
  2071                           opt subtitle "HI-TECH Software Omniscient Code Generator (Lite mode) build 49521"
  2072  001998                     l127:
  2073                           opt subtitle "HI-TECH Software Omniscient Code Generator (Lite mode) build 49521"
  2074                           
  2075  001998                     l128:
  2076  001998  0012               	return
  2077                           opt subtitle "HI-TECH Software Omniscient Code Generator (Lite mode) build 49521"
  2078                           
  2079  00199A                     	__end_of_pos_lcd:
  2080                           opt subtitle "HI-TECH Software Omniscient Code Generator (Lite mode) build 49521"
  2081                           
  2082                           opt pagewidth 120
  2083                           
  2084                           	opt lm
  2085                           
  2086                           	processor	18F8622
  2087                           porta	equ	0F80h
  2088                           portb	equ	0F81h
  2089                           portc	equ	0F82h
  2090                           portd	equ	0F83h
  2091                           porte	equ	0F84h
  2092                           lata	equ	0F89h
  2093                           latb	equ	0F8Ah
  2094                           latc	equ	0F8Bh
  2095                           latd	equ	0F8Ch
  2096                           late	equ	0F8Dh
  2097                           trisa	equ	0F92h
  2098                           trisb	equ	0F93h
  2099                           trisc	equ	0F94h
  2100                           trisd	equ	0F95h
  2101                           trise	equ	0F96h
  2102                           pie1	equ	0F9Dh
  2103                           pir1	equ	0F9Eh
  2104                           ipr1	equ	0F9Fh
  2105                           pie2	equ	0FA0h
  2106                           pir2	equ	0FA1h
  2107                           ipr2	equ	0FA2h
  2108                           t3con	equ	0FB1h
  2109                           tmr3l	equ	0FB2h
  2110                           tmr3h	equ	0FB3h
  2111                           ccp1con	equ	0FBDh
  2112                           ccpr1l	equ	0FBEh
  2113                           ccpr1h	equ	0FBFh
  2114                           adcon1	equ	0FC1h
  2115  001B90                     __ptext3:
  2116                           opt subtitle "HI-TECH Software Omniscient Code Generator (Lite mode) build 49521"
  2117                           
  2118                           opt pagewidth 120
  2119                           
  2120  0000                     	__size_of_envia_dado	equ	__end_of_envia_dado-_envia_dado
  2121                           opt subtitle "HI-TECH Software Omniscient Code Generator (Lite mode) build 49521"
  2122  001B90                     _envia_dado:
  2123                           opt subtitle "HI-TECH Software Omniscient Code Generator (Lite mode) build 49521"
  2124                           
  2125                           opt pagewidth 120
  2126  001B90                     l1390:
  2127                           opt subtitle "HI-TECH Software Omniscient Code Generator (Lite mode) build 49521"
  2128  001B90  C01A  F014         	movff	(c:envia_dado@dado),(c:?_envia_lcd)
  2129  001B94  6E1B               	movwf	(??_envia_dado+0+0)&0ffh,c
  2130  001B96  0E01               	movlw	low(01h)
  2131  001B98  6E15               	movwf	(0+((c:?_envia_lcd)+01h)),c
  2132  001B9A  501B               	movf	(??_envia_dado+0+0)&0ffh,c,w
  2133  001B9C  0E00               	movlw	high(02Dh)
  2134  001B9E  6E17               	movwf	(1+((c:?_envia_lcd)+02h)),c
  2135  001BA0  0E2D               	movlw	low(02Dh)
  2136  001BA2  6E16               	movwf	(0+((c:?_envia_lcd)+02h)),c
  2137  001BA4  ECFF  F00B         	call	_envia_lcd	;wreg free
  2138                           opt subtitle "HI-TECH Software Omniscient Code Generator (Lite mode) build 49521"
  2139                           
  2140  001BA8                     l131:
  2141  001BA8  0012               	return
  2142                           opt subtitle "HI-TECH Software Omniscient Code Generator (Lite mode) build 49521"
  2143                           
  2144  001BAA                     	__end_of_envia_dado:
  2145                           opt subtitle "HI-TECH Software Omniscient Code Generator (Lite mode) build 49521"
  2146                           
  2147                           opt pagewidth 120
  2148                           
  2149                           	opt lm
  2150                           
  2151                           	processor	18F8622
  2152                           porta	equ	0F80h
  2153                           portb	equ	0F81h
  2154                           portc	equ	0F82h
  2155                           portd	equ	0F83h
  2156                           porte	equ	0F84h
  2157                           lata	equ	0F89h
  2158                           latb	equ	0F8Ah
  2159                           latc	equ	0F8Bh
  2160                           latd	equ	0F8Ch
  2161                           late	equ	0F8Dh
  2162                           trisa	equ	0F92h
  2163                           trisb	equ	0F93h
  2164                           trisc	equ	0F94h
  2165                           trisd	equ	0F95h
  2166                           trise	equ	0F96h
  2167                           pie1	equ	0F9Dh
  2168                           pir1	equ	0F9Eh
  2169                           ipr1	equ	0F9Fh
  2170                           pie2	equ	0FA0h
  2171                           pir2	equ	0FA1h
  2172                           ipr2	equ	0FA2h
  2173                           t3con	equ	0FB1h
  2174                           tmr3l	equ	0FB2h
  2175                           tmr3h	equ	0FB3h
  2176                           ccp1con	equ	0FBDh
  2177                           ccpr1l	equ	0FBEh
  2178                           ccpr1h	equ	0FBFh
  2179                           adcon1	equ	0FC1h
  2180                           adcon0	equ	0FC2h
  2181                           adresl	equ	0FC3h
  2182                           adresh	equ	0FC4h
  2183  0013CE                     __ptext4:
  2184                           opt subtitle "HI-TECH Software Omniscient Code Generator (Lite mode) build 49521"
  2185                           
  2186                           opt pagewidth 120
  2187                           
  2188  0000                     	__size_of_lcd_start	equ	__end_of_lcd_start-_lcd_start
  2189                           opt subtitle "HI-TECH Software Omniscient Code Generator (Lite mode) build 49521"
  2190  0013CE                     _lcd_start:
  2191                           opt subtitle "HI-TECH Software Omniscient Code Generator (Lite mode) build 49521"
  2192                           
  2193                           opt pagewidth 120
  2194  0013CE                     l1408:
  2195                           opt subtitle "HI-TECH Software Omniscient Code Generator (Lite mode) build 49521"
  2196  0013CE  EE20  F033         	lfsr	2,(lcd_start@F7252)
  2197  0013D2  EE10  F023         	lfsr	1,(lcd_start@lcd_conf)
  2198  0013D6  0E06               	movlw	6
  2199  0013D8                     u641:
  2200  0013D8  CFDE FFE6          	movff	postinc2,postinc1
  2201  0013DC  2EE8               	decfsz	wreg
  2202  0013DE  D7FC               	goto	u641
  2203                           opt subtitle "HI-TECH Software Omniscient Code Generator (Lite mode) build 49521"
  2204                           
  2205  0013E0                     l1410:
  2206                           opt subtitle "HI-TECH Software Omniscient Code Generator (Lite mode) build 49521"
  2207  0013E0  6E21               	movwf	(??_lcd_start+0+0)&0ffh,c
  2208  0013E2  0E00               	movlw	low(0)
  2209  0013E4  6E22               	movwf	((c:lcd_start@contagem)),c
  2210  0013E6  5021               	movf	(??_lcd_start+0+0)&0ffh,c,w
  2211                           opt subtitle "HI-TECH Software Omniscient Code Generator (Lite mode) build 49521"
  2212                           
  2213  0013E8                     l1412:
  2214                           opt subtitle "HI-TECH Software Omniscient Code Generator (Lite mode) build 49521"
  2215  0013E8  6E21               	movwf	(??_lcd_start+0+0)&0ffh,c
  2216  0013EA  0E28               	movlw	low(028h)
  2217  0013EC  6E25               	movwf	(0+((c:lcd_start@lcd_conf)+02h)),c
  2218  0013EE  5021               	movf	(??_lcd_start+0+0)&0ffh,c,w
  2219                           opt subtitle "HI-TECH Software Omniscient Code Generator (Lite mode) build 49521"
  2220                           
  2221  0013F0                     l1414:
  2222                           opt subtitle "HI-TECH Software Omniscient Code Generator (Lite mode) build 49521"
  2223  0013F0  6E21               	movwf	(??_lcd_start+0+0)&0ffh,c
  2224  0013F2  0E0F               	movlw	low(0Fh)
  2225  0013F4  6E26               	movwf	(0+((c:lcd_start@lcd_conf)+03h)),c
  2226  0013F6  5021               	movf	(??_lcd_start+0+0)&0ffh,c,w
  2227                           opt subtitle "HI-TECH Software Omniscient Code Generator (Lite mode) build 49521"
  2228                           
  2229  0013F8                     l1416:
  2230                           opt subtitle "HI-TECH Software Omniscient Code Generator (Lite mode) build 49521"
  2231  0013F8  6E21               	movwf	(??_lcd_start+0+0)&0ffh,c
  2232  0013FA  0E06               	movlw	low(06h)
  2233  0013FC  6E27               	movwf	(0+((c:lcd_start@lcd_conf)+04h)),c
  2234  0013FE  5021               	movf	(??_lcd_start+0+0)&0ffh,c,w
  2235                           opt subtitle "HI-TECH Software Omniscient Code Generator (Lite mode) build 49521"
  2236                           
  2237  001400                     l1418:
  2238                           opt subtitle "HI-TECH Software Omniscient Code Generator (Lite mode) build 49521"
  2239  001400  9483               	bcf	((c:3971)),c,2	;volatile
  2240                           opt subtitle "HI-TECH Software Omniscient Code Generator (Lite mode) build 49521"
  2241                           
  2242  001402                     l1420:
  2243                           opt subtitle "HI-TECH Software Omniscient Code Generator (Lite mode) build 49521"
  2244  001402  9683               	bcf	((c:3971)),c,3	;volatile
  2245                           opt subtitle "HI-TECH Software Omniscient Code Generator (Lite mode) build 49521"
  2246                           
  2247  001404                     l1422:
  2248                           opt subtitle "HI-TECH Software Omniscient Code Generator (Lite mode) build 49521"
  2249  001404  0E4E               	movlw	high(04E20h)
  2250  001406  6E13               	movwf	((c:?_tempo_us+1)),c
  2251  001408  0E20               	movlw	low(04E20h)
  2252  00140A  6E12               	movwf	((c:?_tempo_us)),c
  2253  00140C  EC7D  F00B         	call	_tempo_us	;wreg free
  2254                           opt subtitle "HI-TECH Software Omniscient Code Generator (Lite mode) build 49521"
  2255                           
  2256  001410  D03C               	goto	l148
  2257                           opt subtitle "HI-TECH Software Omniscient Code Generator (Lite mode) build 49521"
  2258  001412                     l149:
  2259                           opt subtitle "HI-TECH Software Omniscient Code Generator (Lite mode) build 49521"
  2260                           
  2261  001412                     l1424:
  2262                           opt subtitle "HI-TECH Software Omniscient Code Generator (Lite mode) build 49521"
  2263                           
  2264  001412  C023  F021         	movff	(c:lcd_start@lcd_conf),??_lcd_start+0+0
  2265  001416  90D8               	bcf	status,0
  2266  001418  3221               	rrcf	(??_lcd_start+0+0),c
  2267  00141A  90D8               	bcf	status,0
  2268  00141C  3221               	rrcf	(??_lcd_start+0+0),c
  2269  00141E  90D8               	bcf	status,0
  2270  001420  3221               	rrcf	(??_lcd_start+0+0),c
  2271                           opt subtitle "HI-TECH Software Omniscient Code Generator (Lite mode) build 49521"
  2272  001422  3221               	rrcf	(??_lcd_start+0+0),c
  2273  001424  3221               	rrcf	(??_lcd_start+0+0),c
  2274  001426  5083               	movf	((c:3971)),c,w	;volatile
  2275  001428  1821               	xorwf	(??_lcd_start+0+0),c,w
  2276  00142A  0B7F               	andlw	not (((1<<1)-1)<<7)
  2277  00142C  1821               	xorwf	(??_lcd_start+0+0),c,w
  2278  00142E  6E83               	movwf	((c:3971)),c	;volatile
  2279                           opt subtitle "HI-TECH Software Omniscient Code Generator (Lite mode) build 49521"
  2280                           
  2281  001430  C023  F021         	movff	(c:lcd_start@lcd_conf),??_lcd_start+0+0
  2282  001434  90D8               	bcf	status,0
  2283  001436  3221               	rrcf	(??_lcd_start+0+0),c
  2284  001438  90D8               	bcf	status,0
  2285  00143A  3221               	rrcf	(??_lcd_start+0+0),c
  2286                           opt subtitle "HI-TECH Software Omniscient Code Generator (Lite mode) build 49521"
  2287  00143C  3A21               	swapf	(??_lcd_start+0+0),c
  2288  00143E  4621               	rlncf	(??_lcd_start+0+0),c
  2289  001440  4621               	rlncf	(??_lcd_start+0+0),c
  2290  001442  5083               	movf	((c:3971)),c,w	;volatile
  2291  001444  1821               	xorwf	(??_lcd_start+0+0),c,w
  2292  001446  0BBF               	andlw	not (((1<<1)-1)<<6)
  2293  001448  1821               	xorwf	(??_lcd_start+0+0),c,w
  2294  00144A  6E83               	movwf	((c:3971)),c	;volatile
  2295                           opt subtitle "HI-TECH Software Omniscient Code Generator (Lite mode) build 49521"
  2296                           
  2297  00144C  C023  F021         	movff	(c:lcd_start@lcd_conf),??_lcd_start+0+0
  2298  001450  90D8               	bcf	status,0
  2299  001452  3221               	rrcf	(??_lcd_start+0+0),c
  2300                           opt subtitle "HI-TECH Software Omniscient Code Generator (Lite mode) build 49521"
  2301  001454  3A21               	swapf	(??_lcd_start+0+0),c
  2302  001456  4621               	rlncf	(??_lcd_start+0+0),c
  2303  001458  5083               	movf	((c:3971)),c,w	;volatile
  2304  00145A  1821               	xorwf	(??_lcd_start+0+0),c,w
  2305  00145C  0BDF               	andlw	not (((1<<1)-1)<<5)
  2306  00145E  1821               	xorwf	(??_lcd_start+0+0),c,w
  2307  001460  6E83               	movwf	((c:3971)),c	;volatile
  2308                           opt subtitle "HI-TECH Software Omniscient Code Generator (Lite mode) build 49521"
  2309                           
  2310  001462                     l1426:
  2311                           opt subtitle "HI-TECH Software Omniscient Code Generator (Lite mode) build 49521"
  2312  001462  B023               	btfsc	(c:lcd_start@lcd_conf),c,0
  2313  001464  D002               	bra	u655
  2314  001466  9883               	bcf	((c:3971)),c,4	;volatile
  2315  001468  D001               	bra	u656
  2316  00146A                     	u655:
  2317  00146A  8883               	bsf	((c:3971)),c,4	;volatile
  2318  00146C                     	u656:
  2319                           opt subtitle "HI-TECH Software Omniscient Code Generator (Lite mode) build 49521"
  2320                           
  2321                           opt pagewidth 120
  2322  00146C                     l1428:
  2323                           opt subtitle "HI-TECH Software Omniscient Code Generator (Lite mode) build 49521"
  2324  00146C  8683               	bsf	((c:3971)),c,3	;volatile
  2325                           opt subtitle "HI-TECH Software Omniscient Code Generator (Lite mode) build 49521"
  2326  00146E                     l1430:
  2327  00146E  0E00               	movlw	high(02h)
  2328  001470  6E13               	movwf	((c:?_tempo_us+1)),c
  2329  001472  0E02               	movlw	low(02h)
  2330  001474  6E12               	movwf	((c:?_tempo_us)),c
  2331  001476  EC7D  F00B         	call	_tempo_us	;wreg free
  2332                           opt subtitle "HI-TECH Software Omniscient Code Generator (Lite mode) build 49521"
  2333  00147A                     l1432:
  2334  00147A  9683               	bcf	((c:3971)),c,3	;volatile
  2335                           opt subtitle "HI-TECH Software Omniscient Code Generator (Lite mode) build 49521"
  2336                           
  2337  00147C                     l1434:
  2338                           opt subtitle "HI-TECH Software Omniscient Code Generator (Lite mode) build 49521"
  2339  00147C  0E13               	movlw	high(01388h)
  2340  00147E  6E13               	movwf	((c:?_tempo_us+1)),c
  2341  001480  0E88               	movlw	low(01388h)
  2342  001482  6E12               	movwf	((c:?_tempo_us)),c
  2343  001484  EC7D  F00B         	call	_tempo_us	;wreg free
  2344                           opt subtitle "HI-TECH Software Omniscient Code Generator (Lite mode) build 49521"
  2345                           
  2346  001488                     l1436:
  2347                           opt subtitle "HI-TECH Software Omniscient Code Generator (Lite mode) build 49521"
  2348  001488  2A22               	incf	((c:lcd_start@contagem)),c
  2349                           opt subtitle "HI-TECH Software Omniscient Code Generator (Lite mode) build 49521"
  2350                           
  2351  00148A                     l148:
  2352                           opt subtitle "HI-TECH Software Omniscient Code Generator (Lite mode) build 49521"
  2353  00148A  0E02               	movlw	(03h-1)
  2354  00148C  6422               	cpfsgt	((c:lcd_start@contagem)),c
  2355  00148E  D001               	goto	u661
  2356  001490  D001               	goto	u660
  2357  001492                     u661:
  2358  001492  D7BF               	goto	l1424
  2359  001494                     u660:
  2360  001494  D000               	goto	l1438
  2361                           opt subtitle "HI-TECH Software Omniscient Code Generator (Lite mode) build 49521"
  2362  001496                     l150:
  2363                           opt subtitle "HI-TECH Software Omniscient Code Generator (Lite mode) build 49521"
  2364                           
  2365  001496                     l1438:
  2366                           opt subtitle "HI-TECH Software Omniscient Code Generator (Lite mode) build 49521"
  2367                           
  2368  001496  C024  F021         	movff	0+((c:lcd_start@lcd_conf)+01h),??_lcd_start+0+0
  2369  00149A  90D8               	bcf	status,0
  2370  00149C  3221               	rrcf	(??_lcd_start+0+0),c
  2371  00149E  90D8               	bcf	status,0
  2372  0014A0  3221               	rrcf	(??_lcd_start+0+0),c
  2373  0014A2  90D8               	bcf	status,0
  2374  0014A4  3221               	rrcf	(??_lcd_start+0+0),c
  2375                           opt subtitle "HI-TECH Software Omniscient Code Generator (Lite mode) build 49521"
  2376  0014A6  3221               	rrcf	(??_lcd_start+0+0),c
  2377  0014A8  3221               	rrcf	(??_lcd_start+0+0),c
  2378  0014AA  5083               	movf	((c:3971)),c,w	;volatile
  2379  0014AC  1821               	xorwf	(??_lcd_start+0+0),c,w
  2380  0014AE  0B7F               	andlw	not (((1<<1)-1)<<7)
  2381  0014B0  1821               	xorwf	(??_lcd_start+0+0),c,w
  2382  0014B2  6E83               	movwf	((c:3971)),c	;volatile
  2383                           opt subtitle "HI-TECH Software Omniscient Code Generator (Lite mode) build 49521"
  2384                           
  2385  0014B4  C024  F021         	movff	0+((c:lcd_start@lcd_conf)+01h),??_lcd_start+0+0
  2386  0014B8  90D8               	bcf	status,0
  2387  0014BA  3221               	rrcf	(??_lcd_start+0+0),c
  2388  0014BC  90D8               	bcf	status,0
  2389  0014BE  3221               	rrcf	(??_lcd_start+0+0),c
  2390                           opt subtitle "HI-TECH Software Omniscient Code Generator (Lite mode) build 49521"
  2391  0014C0  3A21               	swapf	(??_lcd_start+0+0),c
  2392  0014C2  4621               	rlncf	(??_lcd_start+0+0),c
  2393  0014C4  4621               	rlncf	(??_lcd_start+0+0),c
  2394  0014C6  5083               	movf	((c:3971)),c,w	;volatile
  2395  0014C8  1821               	xorwf	(??_lcd_start+0+0),c,w
  2396  0014CA  0BBF               	andlw	not (((1<<1)-1)<<6)
  2397  0014CC  1821               	xorwf	(??_lcd_start+0+0),c,w
  2398  0014CE  6E83               	movwf	((c:3971)),c	;volatile
  2399                           opt subtitle "HI-TECH Software Omniscient Code Generator (Lite mode) build 49521"
  2400                           
  2401  0014D0  C024  F021         	movff	0+((c:lcd_start@lcd_conf)+01h),??_lcd_start+0+0
  2402  0014D4  90D8               	bcf	status,0
  2403  0014D6  3221               	rrcf	(??_lcd_start+0+0),c
  2404                           opt subtitle "HI-TECH Software Omniscient Code Generator (Lite mode) build 49521"
  2405  0014D8  3A21               	swapf	(??_lcd_start+0+0),c
  2406  0014DA  4621               	rlncf	(??_lcd_start+0+0),c
  2407  0014DC  5083               	movf	((c:3971)),c,w	;volatile
  2408  0014DE  1821               	xorwf	(??_lcd_start+0+0),c,w
  2409  0014E0  0BDF               	andlw	not (((1<<1)-1)<<5)
  2410  0014E2  1821               	xorwf	(??_lcd_start+0+0),c,w
  2411  0014E4  6E83               	movwf	((c:3971)),c	;volatile
  2412                           opt subtitle "HI-TECH Software Omniscient Code Generator (Lite mode) build 49521"
  2413                           
  2414  0014E6                     l1440:
  2415                           opt subtitle "HI-TECH Software Omniscient Code Generator (Lite mode) build 49521"
  2416  0014E6  B024               	btfsc	0+((c:lcd_start@lcd_conf)+01h),c,0
  2417  0014E8  D002               	bra	u675
  2418  0014EA  9883               	bcf	((c:3971)),c,4	;volatile
  2419  0014EC  D001               	bra	u676
  2420  0014EE                     	u675:
  2421  0014EE  8883               	bsf	((c:3971)),c,4	;volatile
  2422  0014F0                     	u676:
  2423                           opt subtitle "HI-TECH Software Omniscient Code Generator (Lite mode) build 49521"
  2424                           
  2425                           opt pagewidth 120
  2426  0014F0                     l1442:
  2427                           opt subtitle "HI-TECH Software Omniscient Code Generator (Lite mode) build 49521"
  2428  0014F0  8683               	bsf	((c:3971)),c,3	;volatile
  2429                           opt subtitle "HI-TECH Software Omniscient Code Generator (Lite mode) build 49521"
  2430  0014F2                     l1444:
  2431  0014F2  0E00               	movlw	high(02h)
  2432  0014F4  6E13               	movwf	((c:?_tempo_us+1)),c
  2433  0014F6  0E02               	movlw	low(02h)
  2434  0014F8  6E12               	movwf	((c:?_tempo_us)),c
  2435  0014FA  EC7D  F00B         	call	_tempo_us	;wreg free
  2436                           opt subtitle "HI-TECH Software Omniscient Code Generator (Lite mode) build 49521"
  2437  0014FE                     l1446:
  2438  0014FE  9683               	bcf	((c:3971)),c,3	;volatile
  2439                           opt subtitle "HI-TECH Software Omniscient Code Generator (Lite mode) build 49521"
  2440                           
  2441  001500                     l1448:
  2442                           opt subtitle "HI-TECH Software Omniscient Code Generator (Lite mode) build 49521"
  2443  001500  0E00               	movlw	high(028h)
  2444  001502  6E13               	movwf	((c:?_tempo_us+1)),c
  2445  001504  0E28               	movlw	low(028h)
  2446  001506  6E12               	movwf	((c:?_tempo_us)),c
  2447  001508  EC7D  F00B         	call	_tempo_us	;wreg free
  2448                           opt subtitle "HI-TECH Software Omniscient Code Generator (Lite mode) build 49521"
  2449                           
  2450  00150C                     l1450:
  2451                           opt subtitle "HI-TECH Software Omniscient Code Generator (Lite mode) build 49521"
  2452  00150C  C025  F014         	movff	0+((c:lcd_start@lcd_conf)+02h),(c:?_envia_lcd)
  2453  001510  6E21               	movwf	(??_lcd_start+0+0)&0ffh,c
  2454  001512  0E00               	movlw	low(0)
  2455  001514  6E15               	movwf	(0+((c:?_envia_lcd)+01h)),c
  2456  001516  5021               	movf	(??_lcd_start+0+0)&0ffh,c,w
  2457  001518  0E00               	movlw	high(028h)
  2458  00151A  6E17               	movwf	(1+((c:?_envia_lcd)+02h)),c
  2459  00151C  0E28               	movlw	low(028h)
  2460  00151E  6E16               	movwf	(0+((c:?_envia_lcd)+02h)),c
  2461  001520  ECFF  F00B         	call	_envia_lcd	;wreg free
  2462                           opt subtitle "HI-TECH Software Omniscient Code Generator (Lite mode) build 49521"
  2463                           
  2464  001524                     l1452:
  2465                           opt subtitle "HI-TECH Software Omniscient Code Generator (Lite mode) build 49521"
  2466  001524  C026  F014         	movff	0+((c:lcd_start@lcd_conf)+03h),(c:?_envia_lcd)
  2467  001528  6E21               	movwf	(??_lcd_start+0+0)&0ffh,c
  2468  00152A  0E00               	movlw	low(0)
  2469  00152C  6E15               	movwf	(0+((c:?_envia_lcd)+01h)),c
  2470  00152E  5021               	movf	(??_lcd_start+0+0)&0ffh,c,w
  2471  001530  0E00               	movlw	high(028h)
  2472  001532  6E17               	movwf	(1+((c:?_envia_lcd)+02h)),c
  2473  001534  0E28               	movlw	low(028h)
  2474  001536  6E16               	movwf	(0+((c:?_envia_lcd)+02h)),c
  2475  001538  ECFF  F00B         	call	_envia_lcd	;wreg free
  2476                           opt subtitle "HI-TECH Software Omniscient Code Generator (Lite mode) build 49521"
  2477                           
  2478  00153C                     l1454:
  2479                           opt subtitle "HI-TECH Software Omniscient Code Generator (Lite mode) build 49521"
  2480  00153C  C027  F014         	movff	0+((c:lcd_start@lcd_conf)+04h),(c:?_envia_lcd)
  2481  001540  6E21               	movwf	(??_lcd_start+0+0)&0ffh,c
  2482  001542  0E00               	movlw	low(0)
  2483  001544  6E15               	movwf	(0+((c:?_envia_lcd)+01h)),c
  2484  001546  5021               	movf	(??_lcd_start+0+0)&0ffh,c,w
  2485  001548  0E00               	movlw	high(028h)
  2486  00154A  6E17               	movwf	(1+((c:?_envia_lcd)+02h)),c
  2487  00154C  0E28               	movlw	low(028h)
  2488  00154E  6E16               	movwf	(0+((c:?_envia_lcd)+02h)),c
  2489  001550  ECFF  F00B         	call	_envia_lcd	;wreg free
  2490                           opt subtitle "HI-TECH Software Omniscient Code Generator (Lite mode) build 49521"
  2491                           
  2492  001554                     l1456:
  2493                           opt subtitle "HI-TECH Software Omniscient Code Generator (Lite mode) build 49521"
  2494  001554  ECB9  F00D         	call	_limpa_tela	;wreg free
  2495                           opt subtitle "HI-TECH Software Omniscient Code Generator (Lite mode) build 49521"
  2496                           
  2497  001558                     l1458:
  2498                           opt subtitle "HI-TECH Software Omniscient Code Generator (Lite mode) build 49521"
  2499  001558  6E21               	movwf	(??_lcd_start+0+0)&0ffh,c
  2500  00155A  0E00               	movlw	low(0)
  2501  00155C  6E1A               	movwf	((c:?_ctrl_lcd_cursor)),c
  2502  00155E  5021               	movf	(??_lcd_start+0+0)&0ffh,c,w
  2503  001560  EC81  F00D         	call	_ctrl_lcd_cursor	;wreg free
  2504                           opt subtitle "HI-TECH Software Omniscient Code Generator (Lite mode) build 49521"
  2505                           
  2506  001564                     l151:
  2507  001564  0012               	return
  2508                           opt subtitle "HI-TECH Software Omniscient Code Generator (Lite mode) build 49521"
  2509                           
  2510  001566                     	__end_of_lcd_start:
  2511                           opt subtitle "HI-TECH Software Omniscient Code Generator (Lite mode) build 49521"
  2512                           
  2513                           opt pagewidth 120
  2514                           
  2515                           	opt lm
  2516                           
  2517                           	processor	18F8622
  2518                           porta	equ	0F80h
  2519                           portb	equ	0F81h
  2520                           portc	equ	0F82h
  2521                           portd	equ	0F83h
  2522                           porte	equ	0F84h
  2523                           lata	equ	0F89h
  2524                           latb	equ	0F8Ah
  2525                           latc	equ	0F8Bh
  2526                           latd	equ	0F8Ch
  2527                           late	equ	0F8Dh
  2528                           trisa	equ	0F92h
  2529                           trisb	equ	0F93h
  2530                           trisc	equ	0F94h
  2531                           trisd	equ	0F95h
  2532                           trise	equ	0F96h
  2533                           pie1	equ	0F9Dh
  2534                           pir1	equ	0F9Eh
  2535                           ipr1	equ	0F9Fh
  2536                           pie2	equ	0FA0h
  2537                           pir2	equ	0FA1h
  2538                           ipr2	equ	0FA2h
  2539                           t3con	equ	0FB1h
  2540                           tmr3l	equ	0FB2h
  2541                           tmr3h	equ	0FB3h
  2542                           ccp1con	equ	0FBDh
  2543                           ccpr1l	equ	0FBEh
  2544                           ccpr1h	equ	0FBFh
  2545  001B72                     __ptext5:
  2546                           opt subtitle "HI-TECH Software Omniscient Code Generator (Lite mode) build 49521"
  2547                           
  2548                           opt pagewidth 120
  2549                           
  2550  0000                     	__size_of_limpa_tela	equ	__end_of_limpa_tela-_limpa_tela
  2551                           opt subtitle "HI-TECH Software Omniscient Code Generator (Lite mode) build 49521"
  2552  001B72                     _limpa_tela:
  2553                           opt subtitle "HI-TECH Software Omniscient Code Generator (Lite mode) build 49521"
  2554                           
  2555                           opt pagewidth 120
  2556  001B72                     l1360:
  2557                           opt subtitle "HI-TECH Software Omniscient Code Generator (Lite mode) build 49521"
  2558  001B72  6E1A               	movwf	(??_limpa_tela+0+0)&0ffh,c
  2559  001B74  0E01               	movlw	low(01h)
  2560  001B76  6E14               	movwf	((c:?_envia_lcd)),c
  2561  001B78  501A               	movf	(??_limpa_tela+0+0)&0ffh,c,w
  2562  001B7A  6E1B               	movwf	(??_limpa_tela+1+0)&0ffh,c
  2563  001B7C  0E00               	movlw	low(0)
  2564  001B7E  6E15               	movwf	(0+((c:?_envia_lcd)+01h)),c
  2565  001B80  501B               	movf	(??_limpa_tela+1+0)&0ffh,c,w
  2566  001B82  0E07               	movlw	high(07D0h)
  2567  001B84  6E17               	movwf	(1+((c:?_envia_lcd)+02h)),c
  2568  001B86  0ED0               	movlw	low(07D0h)
  2569  001B88  6E16               	movwf	(0+((c:?_envia_lcd)+02h)),c
  2570  001B8A  ECFF  F00B         	call	_envia_lcd	;wreg free
  2571                           opt subtitle "HI-TECH Software Omniscient Code Generator (Lite mode) build 49521"
  2572                           
  2573  001B8E                     l106:
  2574  001B8E  0012               	return
  2575                           opt subtitle "HI-TECH Software Omniscient Code Generator (Lite mode) build 49521"
  2576                           
  2577  001B90                     	__end_of_limpa_tela:
  2578                           opt subtitle "HI-TECH Software Omniscient Code Generator (Lite mode) build 49521"
  2579                           
  2580                           opt pagewidth 120
  2581                           
  2582                           	opt lm
  2583                           
  2584                           	processor	18F8622
  2585                           porta	equ	0F80h
  2586                           portb	equ	0F81h
  2587                           portc	equ	0F82h
  2588                           portd	equ	0F83h
  2589                           porte	equ	0F84h
  2590                           lata	equ	0F89h
  2591                           latb	equ	0F8Ah
  2592                           latc	equ	0F8Bh
  2593                           latd	equ	0F8Ch
  2594                           late	equ	0F8Dh
  2595                           trisa	equ	0F92h
  2596                           trisb	equ	0F93h
  2597                           trisc	equ	0F94h
  2598                           trisd	equ	0F95h
  2599                           trise	equ	0F96h
  2600                           pie1	equ	0F9Dh
  2601                           pir1	equ	0F9Eh
  2602                           ipr1	equ	0F9Fh
  2603                           pie2	equ	0FA0h
  2604                           pir2	equ	0FA1h
  2605                           ipr2	equ	0FA2h
  2606                           t3con	equ	0FB1h
  2607                           tmr3l	equ	0FB2h
  2608                           tmr3h	equ	0FB3h
  2609                           ccp1con	equ	0FBDh
  2610                           ccpr1l	equ	0FBEh
  2611                           ccpr1h	equ	0FBFh
  2612  001B02                     __ptext6:
  2613                           opt subtitle "HI-TECH Software Omniscient Code Generator (Lite mode) build 49521"
  2614                           
  2615                           opt pagewidth 120
  2616                           
  2617  0000                     	__size_of_ctrl_lcd_cursor	equ	__end_of_ctrl_lcd_cursor-_ctrl_lcd_cursor
  2618                           opt subtitle "HI-TECH Software Omniscient Code Generator (Lite mode) build 49521"
  2619  001B02                     _ctrl_lcd_cursor:
  2620                           opt subtitle "HI-TECH Software Omniscient Code Generator (Lite mode) build 49521"
  2621                           
  2622                           opt pagewidth 120
  2623  001B02                     l1370:
  2624                           opt subtitle "HI-TECH Software Omniscient Code Generator (Lite mode) build 49521"
  2625  001B02  EE20  F039         	lfsr	2,(ctrl_lcd_cursor@F7238)
  2626  001B06  EE10  F01C         	lfsr	1,(ctrl_lcd_cursor@comando)
  2627  001B0A  0E05               	movlw	5
  2628  001B0C                     u571:
  2629  001B0C  CFDE FFE6          	movff	postinc2,postinc1
  2630  001B10  2EE8               	decfsz	wreg
  2631  001B12  D7FC               	goto	u571
  2632                           opt subtitle "HI-TECH Software Omniscient Code Generator (Lite mode) build 49521"
  2633                           
  2634  001B14                     l1372:
  2635                           opt subtitle "HI-TECH Software Omniscient Code Generator (Lite mode) build 49521"
  2636  001B14  501A               	movf	((c:ctrl_lcd_cursor@controle)),c,w
  2637  001B16  0D01               	mullw	01h
  2638  001B18  0E1C               	movlw	low((c:ctrl_lcd_cursor@comando))
  2639  001B1A  24F3               	addwf	(prodl),c,w
  2640  001B1C  6ED9               	movwf	c:fsr2l
  2641  001B1E  0E00               	movlw	high((c:ctrl_lcd_cursor@comando))
  2642  001B20  20F4               	addwfc	prod+1,w
  2643  001B22  6EDA               	movwf	1+c:fsr2l
  2644  001B24  50DF               	movf	indf2,w
  2645  001B26  6E14               	movwf	((c:?_envia_lcd)),c
  2646  001B28  6E1B               	movwf	(??_ctrl_lcd_cursor+0+0)&0ffh,c
  2647  001B2A  0E00               	movlw	low(0)
  2648  001B2C  6E15               	movwf	(0+((c:?_envia_lcd)+01h)),c
  2649  001B2E  501B               	movf	(??_ctrl_lcd_cursor+0+0)&0ffh,c,w
  2650  001B30  0E00               	movlw	high(028h)
  2651  001B32  6E17               	movwf	(1+((c:?_envia_lcd)+02h)),c
  2652  001B34  0E28               	movlw	low(028h)
  2653  001B36  6E16               	movwf	(0+((c:?_envia_lcd)+02h)),c
  2654  001B38  ECFF  F00B         	call	_envia_lcd	;wreg free
  2655                           opt subtitle "HI-TECH Software Omniscient Code Generator (Lite mode) build 49521"
  2656                           
  2657  001B3C                     l121:
  2658  001B3C  0012               	return
  2659                           opt subtitle "HI-TECH Software Omniscient Code Generator (Lite mode) build 49521"
  2660                           
  2661  001B3E                     	__end_of_ctrl_lcd_cursor:
  2662                           opt subtitle "HI-TECH Software Omniscient Code Generator (Lite mode) build 49521"
  2663                           
  2664                           opt pagewidth 120
  2665                           
  2666                           	opt lm
  2667                           
  2668                           	processor	18F8622
  2669                           porta	equ	0F80h
  2670                           portb	equ	0F81h
  2671                           portc	equ	0F82h
  2672                           portd	equ	0F83h
  2673                           porte	equ	0F84h
  2674                           lata	equ	0F89h
  2675                           latb	equ	0F8Ah
  2676                           latc	equ	0F8Bh
  2677                           latd	equ	0F8Ch
  2678                           late	equ	0F8Dh
  2679                           trisa	equ	0F92h
  2680                           trisb	equ	0F93h
  2681                           trisc	equ	0F94h
  2682                           trisd	equ	0F95h
  2683                           trise	equ	0F96h
  2684                           pie1	equ	0F9Dh
  2685                           pir1	equ	0F9Eh
  2686                           ipr1	equ	0F9Fh
  2687                           pie2	equ	0FA0h
  2688                           pir2	equ	0FA1h
  2689                           ipr2	equ	0FA2h
  2690                           t3con	equ	0FB1h
  2691                           tmr3l	equ	0FB2h
  2692                           tmr3h	equ	0FB3h
  2693                           ccp1con	equ	0FBDh
  2694                           ccpr1l	equ	0FBEh
  2695                           ccpr1h	equ	0FBFh
  2696                           adcon1	equ	0FC1h
  2697                           adcon0	equ	0FC2h
  2698                           adresl	equ	0FC3h
  2699                           adresh	equ	0FC4h
  2700                           sspcon2	equ	0FC5h
  2701                           sspcon1	equ	0FC6h
  2702                           sspstat	equ	0FC7h
  2703                           sspadd	equ	0FC8h
  2704                           sspbuf	equ	0FC9h
  2705  0017FE                     __ptext7:
  2706                           opt subtitle "HI-TECH Software Omniscient Code Generator (Lite mode) build 49521"
  2707                           
  2708                           opt pagewidth 120
  2709                           
  2710  0000                     	__size_of_envia_lcd	equ	__end_of_envia_lcd-_envia_lcd
  2711                           opt subtitle "HI-TECH Software Omniscient Code Generator (Lite mode) build 49521"
  2712  0017FE                     _envia_lcd:
  2713                           opt subtitle "HI-TECH Software Omniscient Code Generator (Lite mode) build 49521"
  2714                           
  2715                           opt pagewidth 120
  2716  0017FE                     l1336:
  2717                           opt subtitle "HI-TECH Software Omniscient Code Generator (Lite mode) build 49521"
  2718  0017FE  B015               	btfsc	(c:envia_lcd@cmd_data),c,0
  2719  001800  D002               	bra	u525
  2720  001802  9483               	bcf	((c:3971)),c,2	;volatile
  2721  001804  D001               	bra	u526
  2722  001806                     	u525:
  2723  001806  8483               	bsf	((c:3971)),c,2	;volatile
  2724  001808                     	u526:
  2725                           opt subtitle "HI-TECH Software Omniscient Code Generator (Lite mode) build 49521"
  2726                           
  2727                           opt pagewidth 120
  2728  001808                     l1338:
  2729                           opt subtitle "HI-TECH Software Omniscient Code Generator (Lite mode) build 49521"
  2730  001808  6A18               	clrf	(??_envia_lcd+0+0)&0ffh,c
  2731  00180A  AE14               	btfss	((c:envia_lcd@byte)),c,7
  2732  00180C  D001               	bra	u535
  2733  00180E  2A18               	incf	(??_envia_lcd+0+0)&0ffh,c
  2734  001810                     	u535:
  2735  001810  3218               	rrcf	(??_envia_lcd+0+0),c
  2736  001812  3218               	rrcf	(??_envia_lcd+0+0),c
  2737  001814  5083               	movf	((c:3971)),c,w	;volatile
  2738  001816  1818               	xorwf	(??_envia_lcd+0+0),c,w
  2739  001818  0B7F               	andlw	not (((1<<1)-1)<<7)
  2740  00181A  1818               	xorwf	(??_envia_lcd+0+0),c,w
  2741  00181C  6E83               	movwf	((c:3971)),c	;volatile
  2742                           opt subtitle "HI-TECH Software Omniscient Code Generator (Lite mode) build 49521"
  2743                           
  2744  00181E  C014  F018         	movff	(c:envia_lcd@byte),??_envia_lcd+0+0
  2745  001822  0E06               	movlw	06h
  2746  001824  6E19               	movwf	(??_envia_lcd+1+0)&0ffh,c
  2747  001826                     u545:
  2748  001826  90D8               	bcf	status,0
  2749  001828  3218               	rrcf	(??_envia_lcd+0+0),c
  2750  00182A  2E19               	decfsz	(??_envia_lcd+1+0)&0ffh,c
  2751  00182C  D7FC               	goto	u545
  2752  00182E  3A18               	swapf	(??_envia_lcd+0+0),c
  2753  001830  4618               	rlncf	(??_envia_lcd+0+0),c
  2754  001832  4618               	rlncf	(??_envia_lcd+0+0),c
  2755  001834  5083               	movf	((c:3971)),c,w	;volatile
  2756  001836  1818               	xorwf	(??_envia_lcd+0+0),c,w
  2757  001838  0BBF               	andlw	not (((1<<1)-1)<<6)
  2758  00183A  1818               	xorwf	(??_envia_lcd+0+0),c,w
  2759  00183C  6E83               	movwf	((c:3971)),c	;volatile
  2760                           opt subtitle "HI-TECH Software Omniscient Code Generator (Lite mode) build 49521"
  2761                           
  2762  00183E  C014  F018         	movff	(c:envia_lcd@byte),??_envia_lcd+0+0
  2763  001842  0E05               	movlw	05h
  2764  001844  6E19               	movwf	(??_envia_lcd+1+0)&0ffh,c
  2765  001846                     u555:
  2766  001846  90D8               	bcf	status,0
  2767  001848  3218               	rrcf	(??_envia_lcd+0+0),c
  2768  00184A  2E19               	decfsz	(??_envia_lcd+1+0)&0ffh,c
  2769  00184C  D7FC               	goto	u555
  2770  00184E  3A18               	swapf	(??_envia_lcd+0+0),c
  2771  001850  4618               	rlncf	(??_envia_lcd+0+0),c
  2772  001852  5083               	movf	((c:3971)),c,w	;volatile
  2773  001854  1818               	xorwf	(??_envia_lcd+0+0),c,w
  2774  001856  0BDF               	andlw	not (((1<<1)-1)<<5)
  2775  001858  1818               	xorwf	(??_envia_lcd+0+0),c,w
  2776  00185A  6E83               	movwf	((c:3971)),c	;volatile
  2777                           opt subtitle "HI-TECH Software Omniscient Code Generator (Lite mode) build 49521"
  2778                           
  2779  00185C  C014  F018         	movff	(c:envia_lcd@byte),??_envia_lcd+0+0
  2780  001860  3A18               	swapf	(??_envia_lcd+0+0),c
  2781  001862  0E0F               	movlw	(0ffh shr 4) & 0ffh
  2782  001864  1618               	andwf	(??_envia_lcd+0+0),c
  2783  001866  3A18               	swapf	(??_envia_lcd+0+0),c
  2784  001868  5083               	movf	((c:3971)),c,w	;volatile
  2785  00186A  1818               	xorwf	(??_envia_lcd+0+0),c,w
  2786  00186C  0BEF               	andlw	not (((1<<1)-1)<<4)
  2787  00186E  1818               	xorwf	(??_envia_lcd+0+0),c,w
  2788  001870  6E83               	movwf	((c:3971)),c	;volatile
  2789                           opt subtitle "HI-TECH Software Omniscient Code Generator (Lite mode) build 49521"
  2790                           
  2791  001872                     l1340:
  2792                           opt subtitle "HI-TECH Software Omniscient Code Generator (Lite mode) build 49521"
  2793  001872  8683               	bsf	((c:3971)),c,3	;volatile
  2794                           opt subtitle "HI-TECH Software Omniscient Code Generator (Lite mode) build 49521"
  2795  001874                     l1342:
  2796  001874  0E00               	movlw	high(02h)
  2797  001876  6E13               	movwf	((c:?_tempo_us+1)),c
  2798  001878  0E02               	movlw	low(02h)
  2799  00187A  6E12               	movwf	((c:?_tempo_us)),c
  2800  00187C  EC7D  F00B         	call	_tempo_us	;wreg free
  2801                           opt subtitle "HI-TECH Software Omniscient Code Generator (Lite mode) build 49521"
  2802  001880                     l1344:
  2803  001880  9683               	bcf	((c:3971)),c,3	;volatile
  2804                           opt subtitle "HI-TECH Software Omniscient Code Generator (Lite mode) build 49521"
  2805                           
  2806  001882                     l1346:
  2807                           opt subtitle "HI-TECH Software Omniscient Code Generator (Lite mode) build 49521"
  2808  001882  C014  F018         	movff	(c:envia_lcd@byte),??_envia_lcd+0+0
  2809  001886  90D8               	bcf	status,0
  2810  001888  3218               	rrcf	(??_envia_lcd+0+0),c
  2811  00188A  90D8               	bcf	status,0
  2812  00188C  3218               	rrcf	(??_envia_lcd+0+0),c
  2813  00188E  90D8               	bcf	status,0
  2814  001890  3218               	rrcf	(??_envia_lcd+0+0),c
  2815                           opt subtitle "HI-TECH Software Omniscient Code Generator (Lite mode) build 49521"
  2816  001892  3218               	rrcf	(??_envia_lcd+0+0),c
  2817  001894  3218               	rrcf	(??_envia_lcd+0+0),c
  2818  001896  5083               	movf	((c:3971)),c,w	;volatile
  2819  001898  1818               	xorwf	(??_envia_lcd+0+0),c,w
  2820  00189A  0B7F               	andlw	not (((1<<1)-1)<<7)
  2821  00189C  1818               	xorwf	(??_envia_lcd+0+0),c,w
  2822  00189E  6E83               	movwf	((c:3971)),c	;volatile
  2823                           opt subtitle "HI-TECH Software Omniscient Code Generator (Lite mode) build 49521"
  2824                           
  2825  0018A0                     l1348:
  2826                           opt subtitle "HI-TECH Software Omniscient Code Generator (Lite mode) build 49521"
  2827  0018A0  C014  F018         	movff	(c:envia_lcd@byte),??_envia_lcd+0+0
  2828  0018A4  90D8               	bcf	status,0
  2829  0018A6  3218               	rrcf	(??_envia_lcd+0+0),c
  2830  0018A8  90D8               	bcf	status,0
  2831  0018AA  3218               	rrcf	(??_envia_lcd+0+0),c
  2832                           opt subtitle "HI-TECH Software Omniscient Code Generator (Lite mode) build 49521"
  2833  0018AC  3A18               	swapf	(??_envia_lcd+0+0),c
  2834  0018AE  4618               	rlncf	(??_envia_lcd+0+0),c
  2835  0018B0  4618               	rlncf	(??_envia_lcd+0+0),c
  2836  0018B2  5083               	movf	((c:3971)),c,w	;volatile
  2837  0018B4  1818               	xorwf	(??_envia_lcd+0+0),c,w
  2838  0018B6  0BBF               	andlw	not (((1<<1)-1)<<6)
  2839  0018B8  1818               	xorwf	(??_envia_lcd+0+0),c,w
  2840  0018BA  6E83               	movwf	((c:3971)),c	;volatile
  2841                           opt subtitle "HI-TECH Software Omniscient Code Generator (Lite mode) build 49521"
  2842                           
  2843  0018BC                     l1350:
  2844                           opt subtitle "HI-TECH Software Omniscient Code Generator (Lite mode) build 49521"
  2845  0018BC  C014  F018         	movff	(c:envia_lcd@byte),??_envia_lcd+0+0
  2846  0018C0  90D8               	bcf	status,0
  2847  0018C2  3218               	rrcf	(??_envia_lcd+0+0),c
  2848                           opt subtitle "HI-TECH Software Omniscient Code Generator (Lite mode) build 49521"
  2849  0018C4  3A18               	swapf	(??_envia_lcd+0+0),c
  2850  0018C6  4618               	rlncf	(??_envia_lcd+0+0),c
  2851  0018C8  5083               	movf	((c:3971)),c,w	;volatile
  2852  0018CA  1818               	xorwf	(??_envia_lcd+0+0),c,w
  2853  0018CC  0BDF               	andlw	not (((1<<1)-1)<<5)
  2854  0018CE  1818               	xorwf	(??_envia_lcd+0+0),c,w
  2855  0018D0  6E83               	movwf	((c:3971)),c	;volatile
  2856                           opt subtitle "HI-TECH Software Omniscient Code Generator (Lite mode) build 49521"
  2857                           
  2858  0018D2                     l1352:
  2859                           opt subtitle "HI-TECH Software Omniscient Code Generator (Lite mode) build 49521"
  2860  0018D2  B014               	btfsc	(c:envia_lcd@byte),c,0
  2861  0018D4  D002               	bra	u565
  2862  0018D6  9883               	bcf	((c:3971)),c,4	;volatile
  2863  0018D8  D001               	bra	u566
  2864  0018DA                     	u565:
  2865  0018DA  8883               	bsf	((c:3971)),c,4	;volatile
  2866  0018DC                     	u566:
  2867                           opt subtitle "HI-TECH Software Omniscient Code Generator (Lite mode) build 49521"
  2868                           
  2869                           opt pagewidth 120
  2870  0018DC                     l1354:
  2871                           opt subtitle "HI-TECH Software Omniscient Code Generator (Lite mode) build 49521"
  2872  0018DC  8683               	bsf	((c:3971)),c,3	;volatile
  2873  0018DE  0E00               	movlw	high(02h)
  2874  0018E0  6E13               	movwf	((c:?_tempo_us+1)),c
  2875  0018E2  0E02               	movlw	low(02h)
  2876  0018E4  6E12               	movwf	((c:?_tempo_us)),c
  2877  0018E6  EC7D  F00B         	call	_tempo_us	;wreg free
  2878                           opt subtitle "HI-TECH Software Omniscient Code Generator (Lite mode) build 49521"
  2879  0018EA                     l1356:
  2880  0018EA  9683               	bcf	((c:3971)),c,3	;volatile
  2881                           opt subtitle "HI-TECH Software Omniscient Code Generator (Lite mode) build 49521"
  2882                           
  2883  0018EC  C016  F012         	movff	(c:envia_lcd@delay),(c:?_tempo_us)
  2884  0018F0  C017  F013         	movff	(c:envia_lcd@delay+1),(c:?_tempo_us+1)
  2885  0018F4  EC7D  F00B         	call	_tempo_us	;wreg free
  2886                           opt subtitle "HI-TECH Software Omniscient Code Generator (Lite mode) build 49521"
  2887                           
  2888  0018F8                     l100:
  2889  0018F8  0012               	return
  2890                           opt subtitle "HI-TECH Software Omniscient Code Generator (Lite mode) build 49521"
  2891                           
  2892  0018FA                     	__end_of_envia_lcd:
  2893                           opt subtitle "HI-TECH Software Omniscient Code Generator (Lite mode) build 49521"
  2894                           
  2895                           opt pagewidth 120
  2896                           
  2897                           	opt lm
  2898                           
  2899                           	processor	18F8622
  2900                           porta	equ	0F80h
  2901                           portb	equ	0F81h
  2902                           portc	equ	0F82h
  2903                           portd	equ	0F83h
  2904                           porte	equ	0F84h
  2905                           lata	equ	0F89h
  2906                           latb	equ	0F8Ah
  2907                           latc	equ	0F8Bh
  2908                           latd	equ	0F8Ch
  2909                           late	equ	0F8Dh
  2910                           trisa	equ	0F92h
  2911                           trisb	equ	0F93h
  2912                           trisc	equ	0F94h
  2913                           trisd	equ	0F95h
  2914                           trise	equ	0F96h
  2915                           pie1	equ	0F9Dh
  2916                           pir1	equ	0F9Eh
  2917                           ipr1	equ	0F9Fh
  2918                           pie2	equ	0FA0h
  2919                           pir2	equ	0FA1h
  2920                           ipr2	equ	0FA2h
  2921                           t3con	equ	0FB1h
  2922                           tmr3l	equ	0FB2h
  2923                           tmr3h	equ	0FB3h
  2924                           ccp1con	equ	0FBDh
  2925                           ccpr1l	equ	0FBEh
  2926                           ccpr1h	equ	0FBFh
  2927                           adcon1	equ	0FC1h
  2928  0016FA                     __ptext8:
  2929                           opt subtitle "HI-TECH Software Omniscient Code Generator (Lite mode) build 49521"
  2930                           
  2931                           opt pagewidth 120
  2932                           
  2933  0000                     	__size_of_tempo_us	equ	__end_of_tempo_us-_tempo_us
  2934                           opt subtitle "HI-TECH Software Omniscient Code Generator (Lite mode) build 49521"
  2935  0016FA                     _tempo_us:
  2936                           opt subtitle "HI-TECH Software Omniscient Code Generator (Lite mode) build 49521"
  2937                           
  2938                           opt pagewidth 120
  2939  0016FA                     l1296:
  2940                           opt subtitle "HI-TECH Software Omniscient Code Generator (Lite mode) build 49521"
  2941  0016FA  D074               	goto	l1334
  2942                           opt subtitle "HI-TECH Software Omniscient Code Generator (Lite mode) build 49521"
  2943                           
  2944  0016FC                     l1298:
  2945                           opt subtitle "HI-TECH Software Omniscient Code Generator (Lite mode) build 49521"
  2946                           
  2947  0016FC  D009               	goto	l74
  2948                           opt subtitle "HI-TECH Software Omniscient Code Generator (Lite mode) build 49521"
  2949  0016FE                     l75:
  2950                           opt subtitle "HI-TECH Software Omniscient Code Generator (Lite mode) build 49521"
  2951                           
  2952  0016FE                     l1300:
  2953                           opt subtitle "HI-TECH Software Omniscient Code Generator (Lite mode) build 49521"
  2954                           
  2955  0016FE  0E03               	movlw	3
  2956  001700                     u1117:
  2957  001700  2EE8               decfsz	wreg,f
  2958  001702  D7FE               	goto	u1117
  2959  001704  F000               	nop
  2960                           opt subtitle "HI-TECH Software Omniscient Code Generator (Lite mode) build 49521"
  2961                           
  2962                           opt pagewidth 120
  2963  001706                     l1302:
  2964                           opt subtitle "HI-TECH Software Omniscient Code Generator (Lite mode) build 49521"
  2965  001706  F000               	nop
  2966                           opt subtitle "HI-TECH Software Omniscient Code Generator (Lite mode) build 49521"
  2967                           
  2968  001708                     l1304:
  2969                           opt subtitle "HI-TECH Software Omniscient Code Generator (Lite mode) build 49521"
  2970  001708  F000               	nop
  2971                           opt subtitle "HI-TECH Software Omniscient Code Generator (Lite mode) build 49521"
  2972                           
  2973  00170A                     l1306:
  2974                           opt subtitle "HI-TECH Software Omniscient Code Generator (Lite mode) build 49521"
  2975  00170A  0612               	decf	((c:tempo_us@tempo)),c
  2976  00170C  A0D8               	btfss	status,0
  2977  00170E  0613               	decf	((c:tempo_us@tempo+1)),c
  2978                           opt subtitle "HI-TECH Software Omniscient Code Generator (Lite mode) build 49521"
  2979                           
  2980  001710                     l74:
  2981                           opt subtitle "HI-TECH Software Omniscient Code Generator (Lite mode) build 49521"
  2982  001710  5013               	movf	((c:tempo_us@tempo+1)),c,w
  2983  001712  0A80               	xorlw	80h
  2984  001714  0F80               	addlw	-((0)^80h)
  2985  001716  0E01               	movlw	01h
  2986  001718  B4D8               	btfsc	status,2
  2987  00171A  5C12               	subwf	((c:tempo_us@tempo)),c,w
  2988  00171C  B0D8               	btfsc	status,0
  2989  00171E  D001               	goto	u461
  2990  001720  D001               	goto	u460
  2991  001722                     u461:
  2992  001722  D7ED               	goto	l1300
  2993  001724                     u460:
  2994  001724  D05F               	goto	l1334
  2995                           opt subtitle "HI-TECH Software Omniscient Code Generator (Lite mode) build 49521"
  2996  001726                     l76:
  2997  001726  D05E               	goto	l1334
  2998                           opt subtitle "HI-TECH Software Omniscient Code Generator (Lite mode) build 49521"
  2999                           
  3000  001728                     l73:
  3001                           opt subtitle "HI-TECH Software Omniscient Code Generator (Lite mode) build 49521"
  3002                           
  3003                           opt pagewidth 120
  3004                           
  3005  001728  D05D               	goto	l1334
  3006                           opt subtitle "HI-TECH Software Omniscient Code Generator (Lite mode) build 49521"
  3007                           
  3008  00172A                     l1308:
  3009                           opt subtitle "HI-TECH Software Omniscient Code Generator (Lite mode) build 49521"
  3010                           
  3011  00172A  D007               	goto	l78
  3012                           opt subtitle "HI-TECH Software Omniscient Code Generator (Lite mode) build 49521"
  3013  00172C                     l79:
  3014                           opt subtitle "HI-TECH Software Omniscient Code Generator (Lite mode) build 49521"
  3015                           
  3016  00172C                     l1310:
  3017                           opt subtitle "HI-TECH Software Omniscient Code Generator (Lite mode) build 49521"
  3018                           
  3019  00172C  0E03               	movlw	3
  3020  00172E                     u1127:
  3021  00172E  2EE8               decfsz	wreg,f
  3022  001730  D7FE               	goto	u1127
  3023  001732  F000               	nop
  3024                           opt subtitle "HI-TECH Software Omniscient Code Generator (Lite mode) build 49521"
  3025                           
  3026                           opt pagewidth 120
  3027  001734                     l1312:
  3028                           opt subtitle "HI-TECH Software Omniscient Code Generator (Lite mode) build 49521"
  3029  001734  0612               	decf	((c:tempo_us@tempo)),c
  3030  001736  A0D8               	btfss	status,0
  3031  001738  0613               	decf	((c:tempo_us@tempo+1)),c
  3032                           opt subtitle "HI-TECH Software Omniscient Code Generator (Lite mode) build 49521"
  3033                           
  3034  00173A                     l78:
  3035                           opt subtitle "HI-TECH Software Omniscient Code Generator (Lite mode) build 49521"
  3036  00173A  5013               	movf	((c:tempo_us@tempo+1)),c,w
  3037  00173C  0A80               	xorlw	80h
  3038  00173E  0F80               	addlw	-((0)^80h)
  3039  001740  0E01               	movlw	01h
  3040  001742  B4D8               	btfsc	status,2
  3041  001744  5C12               	subwf	((c:tempo_us@tempo)),c,w
  3042  001746  B0D8               	btfsc	status,0
  3043  001748  D001               	goto	u471
  3044  00174A  D001               	goto	u470
  3045  00174C                     u471:
  3046  00174C  D7EF               	goto	l1310
  3047  00174E                     u470:
  3048  00174E  D04A               	goto	l1334
  3049                           opt subtitle "HI-TECH Software Omniscient Code Generator (Lite mode) build 49521"
  3050  001750                     l80:
  3051  001750  D049               	goto	l1334
  3052                           opt subtitle "HI-TECH Software Omniscient Code Generator (Lite mode) build 49521"
  3053                           
  3054  001752                     l77:
  3055                           opt subtitle "HI-TECH Software Omniscient Code Generator (Lite mode) build 49521"
  3056                           
  3057                           opt pagewidth 120
  3058                           
  3059  001752  D048               	goto	l1334
  3060                           opt subtitle "HI-TECH Software Omniscient Code Generator (Lite mode) build 49521"
  3061                           
  3062  001754                     l1314:
  3063                           opt subtitle "HI-TECH Software Omniscient Code Generator (Lite mode) build 49521"
  3064                           
  3065  001754  D009               	goto	l1318
  3066                           opt subtitle "HI-TECH Software Omniscient Code Generator (Lite mode) build 49521"
  3067  001756                     l83:
  3068                           opt subtitle "HI-TECH Software Omniscient Code Generator (Lite mode) build 49521"
  3069                           
  3070                           opt pagewidth 120
  3071  001756  F000               	nop
  3072                           opt subtitle "HI-TECH Software Omniscient Code Generator (Lite mode) build 49521"
  3073                           
  3074  001758  F000               	nop
  3075                           opt subtitle "HI-TECH Software Omniscient Code Generator (Lite mode) build 49521"
  3076                           
  3077  00175A  F000               	nop
  3078                           opt subtitle "HI-TECH Software Omniscient Code Generator (Lite mode) build 49521"
  3079                           
  3080  00175C  F000               	nop
  3081                           opt subtitle "HI-TECH Software Omniscient Code Generator (Lite mode) build 49521"
  3082                           
  3083  00175E  F000               	nop
  3084                           opt subtitle "HI-TECH Software Omniscient Code Generator (Lite mode) build 49521"
  3085                           
  3086  001760                     l1316:
  3087                           opt subtitle "HI-TECH Software Omniscient Code Generator (Lite mode) build 49521"
  3088  001760  0612               	decf	((c:tempo_us@tempo)),c
  3089  001762  A0D8               	btfss	status,0
  3090  001764  0613               	decf	((c:tempo_us@tempo+1)),c
  3091  001766  D000               	goto	l1318
  3092                           opt subtitle "HI-TECH Software Omniscient Code Generator (Lite mode) build 49521"
  3093                           
  3094  001768                     l82:
  3095                           opt subtitle "HI-TECH Software Omniscient Code Generator (Lite mode) build 49521"
  3096                           
  3097  001768                     l1318:
  3098  001768  5013               	movf	((c:tempo_us@tempo+1)),c,w
  3099  00176A  0A80               	xorlw	80h
  3100  00176C  0F80               	addlw	-((0)^80h)
  3101  00176E  0E01               	movlw	01h
  3102  001770  B4D8               	btfsc	status,2
  3103  001772  5C12               	subwf	((c:tempo_us@tempo)),c,w
  3104  001774  B0D8               	btfsc	status,0
  3105  001776  D001               	goto	u481
  3106  001778  D001               	goto	u480
  3107  00177A                     u481:
  3108  00177A  D7ED               	goto	l83
  3109  00177C                     u480:
  3110  00177C  D033               	goto	l1334
  3111                           opt subtitle "HI-TECH Software Omniscient Code Generator (Lite mode) build 49521"
  3112  00177E                     l84:
  3113  00177E  D032               	goto	l1334
  3114                           opt subtitle "HI-TECH Software Omniscient Code Generator (Lite mode) build 49521"
  3115                           
  3116  001780                     l81:
  3117                           opt subtitle "HI-TECH Software Omniscient Code Generator (Lite mode) build 49521"
  3118                           
  3119                           opt pagewidth 120
  3120                           
  3121  001780  D031               	goto	l1334
  3122                           opt subtitle "HI-TECH Software Omniscient Code Generator (Lite mode) build 49521"
  3123                           
  3124  001782                     l1320:
  3125                           opt subtitle "HI-TECH Software Omniscient Code Generator (Lite mode) build 49521"
  3126                           
  3127  001782  D008               	goto	l1324
  3128                           opt subtitle "HI-TECH Software Omniscient Code Generator (Lite mode) build 49521"
  3129  001784                     l87:
  3130                           opt subtitle "HI-TECH Software Omniscient Code Generator (Lite mode) build 49521"
  3131                           
  3132                           opt pagewidth 120
  3133  001784  F000               	nop
  3134                           opt subtitle "HI-TECH Software Omniscient Code Generator (Lite mode) build 49521"
  3135                           
  3136  001786  F000               	nop
  3137                           opt subtitle "HI-TECH Software Omniscient Code Generator (Lite mode) build 49521"
  3138                           
  3139  001788  F000               	nop
  3140                           opt subtitle "HI-TECH Software Omniscient Code Generator (Lite mode) build 49521"
  3141                           
  3142  00178A  F000               	nop
  3143                           opt subtitle "HI-TECH Software Omniscient Code Generator (Lite mode) build 49521"
  3144                           
  3145  00178C                     l1322:
  3146                           opt subtitle "HI-TECH Software Omniscient Code Generator (Lite mode) build 49521"
  3147  00178C  0612               	decf	((c:tempo_us@tempo)),c
  3148  00178E  A0D8               	btfss	status,0
  3149  001790  0613               	decf	((c:tempo_us@tempo+1)),c
  3150  001792  D000               	goto	l1324
  3151                           opt subtitle "HI-TECH Software Omniscient Code Generator (Lite mode) build 49521"
  3152                           
  3153  001794                     l86:
  3154                           opt subtitle "HI-TECH Software Omniscient Code Generator (Lite mode) build 49521"
  3155                           
  3156  001794                     l1324:
  3157  001794  5013               	movf	((c:tempo_us@tempo+1)),c,w
  3158  001796  0A80               	xorlw	80h
  3159  001798  0F80               	addlw	-((0)^80h)
  3160  00179A  0E01               	movlw	01h
  3161  00179C  B4D8               	btfsc	status,2
  3162  00179E  5C12               	subwf	((c:tempo_us@tempo)),c,w
  3163  0017A0  B0D8               	btfsc	status,0
  3164  0017A2  D001               	goto	u491
  3165  0017A4  D001               	goto	u490
  3166  0017A6                     u491:
  3167  0017A6  D7EE               	goto	l87
  3168  0017A8                     u490:
  3169  0017A8  D01D               	goto	l1334
  3170                           opt subtitle "HI-TECH Software Omniscient Code Generator (Lite mode) build 49521"
  3171  0017AA                     l88:
  3172  0017AA  D01C               	goto	l1334
  3173                           opt subtitle "HI-TECH Software Omniscient Code Generator (Lite mode) build 49521"
  3174                           
  3175  0017AC                     l85:
  3176                           opt subtitle "HI-TECH Software Omniscient Code Generator (Lite mode) build 49521"
  3177                           
  3178                           opt pagewidth 120
  3179                           
  3180  0017AC  D01B               	goto	l1334
  3181                           opt subtitle "HI-TECH Software Omniscient Code Generator (Lite mode) build 49521"
  3182                           
  3183  0017AE                     l1326:
  3184                           opt subtitle "HI-TECH Software Omniscient Code Generator (Lite mode) build 49521"
  3185                           
  3186  0017AE  D007               	goto	l1330
  3187                           opt subtitle "HI-TECH Software Omniscient Code Generator (Lite mode) build 49521"
  3188  0017B0                     l91:
  3189                           opt subtitle "HI-TECH Software Omniscient Code Generator (Lite mode) build 49521"
  3190                           
  3191                           opt pagewidth 120
  3192  0017B0  F000               	nop
  3193                           opt subtitle "HI-TECH Software Omniscient Code Generator (Lite mode) build 49521"
  3194                           
  3195  0017B2  F000               	nop
  3196                           opt subtitle "HI-TECH Software Omniscient Code Generator (Lite mode) build 49521"
  3197                           
  3198  0017B4  F000               	nop
  3199                           opt subtitle "HI-TECH Software Omniscient Code Generator (Lite mode) build 49521"
  3200                           
  3201  0017B6                     l1328:
  3202                           opt subtitle "HI-TECH Software Omniscient Code Generator (Lite mode) build 49521"
  3203  0017B6  0612               	decf	((c:tempo_us@tempo)),c
  3204  0017B8  A0D8               	btfss	status,0
  3205  0017BA  0613               	decf	((c:tempo_us@tempo+1)),c
  3206  0017BC  D000               	goto	l1330
  3207                           opt subtitle "HI-TECH Software Omniscient Code Generator (Lite mode) build 49521"
  3208                           
  3209  0017BE                     l90:
  3210                           opt subtitle "HI-TECH Software Omniscient Code Generator (Lite mode) build 49521"
  3211                           
  3212  0017BE                     l1330:
  3213  0017BE  5013               	movf	((c:tempo_us@tempo+1)),c,w
  3214  0017C0  0A80               	xorlw	80h
  3215  0017C2  0F80               	addlw	-((0)^80h)
  3216  0017C4  0E01               	movlw	01h
  3217  0017C6  B4D8               	btfsc	status,2
  3218  0017C8  5C12               	subwf	((c:tempo_us@tempo)),c,w
  3219  0017CA  B0D8               	btfsc	status,0
  3220  0017CC  D001               	goto	u501
  3221  0017CE  D001               	goto	u500
  3222  0017D0                     u501:
  3223  0017D0  D7EF               	goto	l91
  3224  0017D2                     u500:
  3225  0017D2  D008               	goto	l1334
  3226                           opt subtitle "HI-TECH Software Omniscient Code Generator (Lite mode) build 49521"
  3227  0017D4                     l92:
  3228  0017D4  D007               	goto	l1334
  3229                           opt subtitle "HI-TECH Software Omniscient Code Generator (Lite mode) build 49521"
  3230                           
  3231                           opt pagewidth 120
  3232                           
  3233                           	opt lm
  3234  0017D6                     l89:
  3235                           opt subtitle "HI-TECH Software Omniscient Code Generator (Lite mode) build 49521"
  3236                           
  3237                           opt pagewidth 120
  3238  0017D6  D006               	goto	l1334
  3239                           opt subtitle "HI-TECH Software Omniscient Code Generator (Lite mode) build 49521"
  3240  0017D8                     l95:
  3241                           opt subtitle "HI-TECH Software Omniscient Code Generator (Lite mode) build 49521"
  3242                           
  3243                           opt pagewidth 120
  3244  0017D8  F000               	nop
  3245                           opt subtitle "HI-TECH Software Omniscient Code Generator (Lite mode) build 49521"
  3246                           
  3247  0017DA  F000               	nop
  3248                           opt subtitle "HI-TECH Software Omniscient Code Generator (Lite mode) build 49521"
  3249                           
  3250  0017DC                     l1332:
  3251                           opt subtitle "HI-TECH Software Omniscient Code Generator (Lite mode) build 49521"
  3252  0017DC  0612               	decf	((c:tempo_us@tempo)),c
  3253  0017DE  A0D8               	btfss	status,0
  3254  0017E0  0613               	decf	((c:tempo_us@tempo+1)),c
  3255  0017E2  D000               	goto	l1334
  3256                           opt subtitle "HI-TECH Software Omniscient Code Generator (Lite mode) build 49521"
  3257                           
  3258  0017E4                     l94:
  3259                           opt subtitle "HI-TECH Software Omniscient Code Generator (Lite mode) build 49521"
  3260                           
  3261  0017E4                     l1334:
  3262  0017E4  5013               	movf	((c:tempo_us@tempo+1)),c,w
  3263  0017E6  0A80               	xorlw	80h
  3264  0017E8  0F80               	addlw	-((0)^80h)
  3265  0017EA  0E01               	movlw	01h
  3266  0017EC  B4D8               	btfsc	status,2
  3267  0017EE  5C12               	subwf	((c:tempo_us@tempo)),c,w
  3268  0017F0  B0D8               	btfsc	status,0
  3269  0017F2  D001               	goto	u511
  3270  0017F4  D001               	goto	u510
  3271  0017F6                     u511:
  3272  0017F6  D7F0               	goto	l95
  3273  0017F8                     u510:
  3274  0017F8  D001               	goto	l97
  3275                           opt subtitle "HI-TECH Software Omniscient Code Generator (Lite mode) build 49521"
  3276  0017FA                     l96:
  3277  0017FA  D000               	goto	l97
  3278                           opt subtitle "HI-TECH Software Omniscient Code Generator (Lite mode) build 49521"
  3279                           
  3280  0017FC                     l93:
  3281                           opt subtitle "HI-TECH Software Omniscient Code Generator (Lite mode) build 49521"
  3282                           
  3283  0017FC                     l97:
  3284  0017FC  0012               	return
  3285                           opt subtitle "HI-TECH Software Omniscient Code Generator (Lite mode) build 49521"
  3286                           
  3287  0017FE                     	__end_of_tempo_us:
  3288                           opt subtitle "HI-TECH Software Omniscient Code Generator (Lite mode) build 49521"
  3289                           
  3290                           opt pagewidth 120
  3291                           
  3292                           	opt lm
  3293                           
  3294                           	processor	18F8622
  3295                           porta	equ	0F80h
  3296                           portb	equ	0F81h
  3297                           portc	equ	0F82h
  3298                           portd	equ	0F83h
  3299                           porte	equ	0F84h
  3300                           lata	equ	0F89h
  3301                           latb	equ	0F8Ah
  3302                           latc	equ	0F8Bh
  3303                           latd	equ	0F8Ch
  3304                           late	equ	0F8Dh
  3305                           trisa	equ	0F92h
  3306                           trisb	equ	0F93h
  3307                           trisc	equ	0F94h
  3308                           trisd	equ	0F95h
  3309                           trise	equ	0F96h
  3310                           pie1	equ	0F9Dh
  3311                           pir1	equ	0F9Eh
  3312                           ipr1	equ	0F9Fh
  3313                           pie2	equ	0FA0h
  3314                           pir2	equ	0FA1h
  3315                           ipr2	equ	0FA2h
  3316                           t3con	equ	0FB1h
  3317                           tmr3l	equ	0FB2h
  3318                           tmr3h	equ	0FB3h
  3319                           ccp1con	equ	0FBDh
  3320                           ccpr1l	equ	0FBEh
  3321                           ccpr1h	equ	0FBFh
  3322                           adcon1	equ	0FC1h
  3323                           adcon0	equ	0FC2h
  3324  001A06                     __ptext9:
  3325                           opt subtitle "HI-TECH Software Omniscient Code Generator (Lite mode) build 49521"
  3326                           
  3327                           opt pagewidth 120
  3328                           
  3329  0000                     	__size_of_OpenSPI1	equ	__end_of_OpenSPI1-_OpenSPI1
  3330                           opt subtitle "HI-TECH Software Omniscient Code Generator (Lite mode) build 49521"
  3331  001A06                     _OpenSPI1:
  3332                           opt subtitle "HI-TECH Software Omniscient Code Generator (Lite mode) build 49521"
  3333                           
  3334                           opt pagewidth 120
  3335  001A06                     l1524:
  3336  001A06  0E3F               	movlw	(03Fh)&0ffh
  3337  001A08  16C7               	andwf	((c:4039)),c	;volatile
  3338                           opt subtitle "HI-TECH Software Omniscient Code Generator (Lite mode) build 49521"
  3339                           
  3340  001A0A                     l1526:
  3341  001A0A  0E00               	movlw	low(0)
  3342  001A0C  6EC6               	movwf	((c:4038)),c	;volatile
  3343                           opt subtitle "HI-TECH Software Omniscient Code Generator (Lite mode) build 49521"
  3344                           
  3345  001A0E                     l1528:
  3346  001A0E  5012               	movf	((c:OpenSPI1@sync_mode)),c,w
  3347  001A10  12C6               	iorwf	((c:4038)),c	;volatile
  3348                           opt subtitle "HI-TECH Software Omniscient Code Generator (Lite mode) build 49521"
  3349                           
  3350  001A12                     l1530:
  3351  001A12  5014               	movf	((c:OpenSPI1@smp_phase)),c,w
  3352  001A14  12C7               	iorwf	((c:4039)),c	;volatile
  3353                           opt subtitle "HI-TECH Software Omniscient Code Generator (Lite mode) build 49521"
  3354  001A16  D009               	goto	l1534
  3355                           opt subtitle "HI-TECH Software Omniscient Code Generator (Lite mode) build 49521"
  3356                           
  3357  001A18                     l249:
  3358                           opt subtitle "HI-TECH Software Omniscient Code Generator (Lite mode) build 49521"
  3359  001A18  8CC7               	bsf	((c:4039)),c,6	;volatile
  3360                           opt subtitle "HI-TECH Software Omniscient Code Generator (Lite mode) build 49521"
  3361  001A1A  D01B               	goto	l1538
  3362                           opt subtitle "HI-TECH Software Omniscient Code Generator (Lite mode) build 49521"
  3363                           
  3364  001A1C                     l251:
  3365                           opt subtitle "HI-TECH Software Omniscient Code Generator (Lite mode) build 49521"
  3366  001A1C  8CC7               	bsf	((c:4039)),c,6	;volatile
  3367                           opt subtitle "HI-TECH Software Omniscient Code Generator (Lite mode) build 49521"
  3368  001A1E  88C6               	bsf	((c:4038)),c,4	;volatile
  3369                           opt subtitle "HI-TECH Software Omniscient Code Generator (Lite mode) build 49521"
  3370  001A20  D018               	goto	l1538
  3371                           opt subtitle "HI-TECH Software Omniscient Code Generator (Lite mode) build 49521"
  3372                           
  3373  001A22                     l252:
  3374                           opt subtitle "HI-TECH Software Omniscient Code Generator (Lite mode) build 49521"
  3375  001A22  88C6               	bsf	((c:4038)),c,4	;volatile
  3376                           opt subtitle "HI-TECH Software Omniscient Code Generator (Lite mode) build 49521"
  3377  001A24  D016               	goto	l1538
  3378                           opt subtitle "HI-TECH Software Omniscient Code Generator (Lite mode) build 49521"
  3379                           
  3380  001A26                     l253:
  3381                           opt subtitle "HI-TECH Software Omniscient Code Generator (Lite mode) build 49521"
  3382  001A26  D015               	goto	l1538
  3383                           opt subtitle "HI-TECH Software Omniscient Code Generator (Lite mode) build 49521"
  3384                           
  3385  001A28                     l1532:
  3386  001A28  D014               	goto	l1538
  3387                           opt subtitle "HI-TECH Software Omniscient Code Generator (Lite mode) build 49521"
  3388                           
  3389  001A2A                     l248:
  3390                           opt subtitle "HI-TECH Software Omniscient Code Generator (Lite mode) build 49521"
  3391  001A2A                     l1534:
  3392  001A2A  5013               	movf	((c:OpenSPI1@bus_mode)),c,w
  3393                           opt subtitle "HI-TECH Software Omniscient Code Generator (Lite mode) build 49521"
  3394                           
  3395                           opt pagewidth 120
  3396                           
  3397                           	opt lm
  3398                           
  3399                           	processor	18F8622
  3400  001A2C  0A00               	xorlw	0^0	; case 0
  3401  001A2E  B4D8               	skipnz
  3402  001A30  D7F3               	goto	l249
  3403  001A32  0A02               	xorlw	2^0	; case 2
  3404  001A34  B4D8               	skipnz
  3405  001A36  D7F2               	goto	l251
  3406  001A38  0A01               	xorlw	3^2	; case 3
  3407  001A3A  B4D8               	skipnz
  3408  001A3C  D7F2               	goto	l252
  3409  001A3E  D009               	goto	l1538
  3410                           opt subtitle "HI-TECH Software Omniscient Code Generator (Lite mode) build 49521"
  3411                           
  3412                           opt pagewidth 120
  3413  001A40                     l250:
  3414                           opt subtitle "HI-TECH Software Omniscient Code Generator (Lite mode) build 49521"
  3415  001A40  D008               	goto	l1538
  3416                           opt subtitle "HI-TECH Software Omniscient Code Generator (Lite mode) build 49521"
  3417                           
  3418  001A42                     l255:
  3419                           opt subtitle "HI-TECH Software Omniscient Code Generator (Lite mode) build 49521"
  3420  001A42  8E97               	bsf	((c:3991)),c,7	;volatile
  3421                           opt subtitle "HI-TECH Software Omniscient Code Generator (Lite mode) build 49521"
  3422  001A44  8694               	bsf	((c:3988)),c,3	;volatile
  3423                           opt subtitle "HI-TECH Software Omniscient Code Generator (Lite mode) build 49521"
  3424  001A46  D00D               	goto	l256
  3425                           opt subtitle "HI-TECH Software Omniscient Code Generator (Lite mode) build 49521"
  3426                           
  3427  001A48                     l257:
  3428                           opt subtitle "HI-TECH Software Omniscient Code Generator (Lite mode) build 49521"
  3429  001A48  8694               	bsf	((c:3988)),c,3	;volatile
  3430                           opt subtitle "HI-TECH Software Omniscient Code Generator (Lite mode) build 49521"
  3431  001A4A  D00B               	goto	l256
  3432                           opt subtitle "HI-TECH Software Omniscient Code Generator (Lite mode) build 49521"
  3433                           
  3434  001A4C                     l258:
  3435                           opt subtitle "HI-TECH Software Omniscient Code Generator (Lite mode) build 49521"
  3436  001A4C  9694               	bcf	((c:3988)),c,3	;volatile
  3437                           opt subtitle "HI-TECH Software Omniscient Code Generator (Lite mode) build 49521"
  3438  001A4E  D009               	goto	l256
  3439                           opt subtitle "HI-TECH Software Omniscient Code Generator (Lite mode) build 49521"
  3440                           
  3441  001A50                     l1536:
  3442  001A50  D008               	goto	l256
  3443                           opt subtitle "HI-TECH Software Omniscient Code Generator (Lite mode) build 49521"
  3444                           
  3445  001A52                     l254:
  3446                           opt subtitle "HI-TECH Software Omniscient Code Generator (Lite mode) build 49521"
  3447  001A52                     l1538:
  3448  001A52  5012               	movf	((c:OpenSPI1@sync_mode)),c,w
  3449                           opt subtitle "HI-TECH Software Omniscient Code Generator (Lite mode) build 49521"
  3450                           
  3451                           opt pagewidth 120
  3452                           
  3453                           	opt lm
  3454                           
  3455                           	processor	18F8622
  3456  001A54  0A04               	xorlw	4^0	; case 4
  3457  001A56  B4D8               	skipnz
  3458  001A58  D7F4               	goto	l255
  3459  001A5A  0A01               	xorlw	5^4	; case 5
  3460  001A5C  B4D8               	skipnz
  3461  001A5E  D7F4               	goto	l257
  3462  001A60  D7F5               	goto	l258
  3463                           opt subtitle "HI-TECH Software Omniscient Code Generator (Lite mode) build 49521"
  3464                           
  3465                           opt pagewidth 120
  3466  001A62                     l256:
  3467                           opt subtitle "HI-TECH Software Omniscient Code Generator (Lite mode) build 49521"
  3468  001A62  8894               	bsf	((c:3988)),c,4	;volatile
  3469                           opt subtitle "HI-TECH Software Omniscient Code Generator (Lite mode) build 49521"
  3470  001A64  9A94               	bcf	((c:3988)),c,5	;volatile
  3471                           opt subtitle "HI-TECH Software Omniscient Code Generator (Lite mode) build 49521"
  3472                           
  3473  001A66                     l1540:
  3474  001A66  8AC6               	bsf	(0+(5/8)+(c:4038)),c,(5)&7	;volatile
  3475                           opt subtitle "HI-TECH Software Omniscient Code Generator (Lite mode) build 49521"
  3476                           
  3477  001A68                     l259:
  3478  001A68  0012               	return
  3479                           opt subtitle "HI-TECH Software Omniscient Code Generator (Lite mode) build 49521"
  3480                           
  3481  001A6A                     	__end_of_OpenSPI1:
  3482                           opt subtitle "HI-TECH Software Omniscient Code Generator (Lite mode) build 49521"
  3483                           
  3484                           opt pagewidth 120
  3485                           
  3486                           	opt lm
  3487                           
  3488                           	processor	18F8622
  3489                           porta	equ	0F80h
  3490                           portb	equ	0F81h
  3491                           portc	equ	0F82h
  3492                           portd	equ	0F83h
  3493                           porte	equ	0F84h
  3494                           lata	equ	0F89h
  3495                           latb	equ	0F8Ah
  3496                           latc	equ	0F8Bh
  3497                           latd	equ	0F8Ch
  3498                           late	equ	0F8Dh
  3499                           trisa	equ	0F92h
  3500                           trisb	equ	0F93h
  3501                           trisc	equ	0F94h
  3502                           trisd	equ	0F95h
  3503                           trise	equ	0F96h
  3504                           pie1	equ	0F9Dh
  3505                           pir1	equ	0F9Eh
  3506                           ipr1	equ	0F9Fh
  3507                           pie2	equ	0FA0h
  3508                           pir2	equ	0FA1h
  3509                           ipr2	equ	0FA2h
  3510                           t3con	equ	0FB1h
  3511                           tmr3l	equ	0FB2h
  3512                           tmr3h	equ	0FB3h
  3513                           ccp1con	equ	0FBDh
  3514                           ccpr1l	equ	0FBEh
  3515                           ccpr1h	equ	0FBFh
  3516                           adcon1	equ	0FC1h
  3517                           adcon0	equ	0FC2h
  3518                           adresl	equ	0FC3h
  3519                           adresh	equ	0FC4h
  3520                           sspcon2	equ	0FC5h
  3521                           sspcon1	equ	0FC6h
  3522                           sspstat	equ	0FC7h
  3523                           sspadd	equ	0FC8h
  3524                           sspbuf	equ	0FC9h
  3525                           t2con	equ	0FCAh
  3526  00104E                     __ptext10:
  3527                           opt subtitle "HI-TECH Software Omniscient Code Generator (Lite mode) build 49521"
  3528                           
  3529                           opt pagewidth 120
  3530                           
  3531  0000                     	__size_of_sprintf	equ	__end_of_sprintf-_sprintf
  3532                           opt subtitle "HI-TECH Software Omniscient Code Generator (Lite mode) build 49521"
  3533  00104E                     _sprintf:
  3534                           opt subtitle "HI-TECH Software Omniscient Code Generator (Lite mode) build 49521"
  3535                           
  3536                           opt pagewidth 120
  3537  00104E                     l1716:
  3538                           opt subtitle "HI-TECH Software Omniscient Code Generator (Lite mode) build 49521"
  3539                           
  3540                           opt pagewidth 120
  3541                           
  3542                           	opt lm
  3543                           
  3544                           	processor	18F8622
  3545                           porta	equ	0F80h
  3546                           portb	equ	0F81h
  3547                           portc	equ	0F82h
  3548                           portd	equ	0F83h
  3549                           porte	equ	0F84h
  3550  00104E  0E00               	movlw	high((c:?_sprintf)+04h)
  3551  001050  0100               	movlb	0	; () banked
  3552  001052  0100               	movlb	0	; () banked
  3553  001054  6FC8               	movwf	((sprintf@ap+1))&0ffh
  3554  001056  0E24               	movlw	low((c:?_sprintf)+04h)
  3555  001058  0100               	movlb	0	; () banked
  3556  00105A  6FC7               	movwf	((sprintf@ap))&0ffh
  3557                           opt subtitle "HI-TECH Software Omniscient Code Generator (Lite mode) build 49521"
  3558                           
  3559  00105C  D199               	goto	l1802
  3560                           opt subtitle "HI-TECH Software Omniscient Code Generator (Lite mode) build 49521"
  3561  00105E                     l200:; BSR set to: 0
  3562                           opt subtitle "HI-TECH Software Omniscient Code Generator (Lite mode) build 49521"
  3563                           
  3564                           opt pagewidth 120
  3565  00105E                     l1718:; BSR set to: 0
  3566                           opt subtitle "HI-TECH Software Omniscient Code Generator (Lite mode) build 49521"
  3567                           
  3568  00105E  0100               	movlb	0	; () banked
  3569  001060  0100               	movlb	0	; () banked
  3570  001062  51D0               	movf	((sprintf@c))&0ffh,w
  3571  001064  0A25               	xorlw	37
  3572                           opt subtitle "HI-TECH Software Omniscient Code Generator (Lite mode) build 49521"
  3573  001066  B4D8               	btfsc	status,2
  3574  001068  D001               	goto	u931
  3575  00106A  D001               	goto	u930
  3576  00106C                     u931:
  3577  00106C  D00A               	goto	l1724
  3578  00106E                     u930:
  3579                           opt subtitle "HI-TECH Software Omniscient Code Generator (Lite mode) build 49521"
  3580                           
  3581  00106E                     l1720:; BSR set to: 0
  3582                           opt subtitle "HI-TECH Software Omniscient Code Generator (Lite mode) build 49521"
  3583                           
  3584                           opt pagewidth 120
  3585  00106E  C020  FFD9         	movff	(c:sprintf@sp),fsr2l
  3586  001072  C021  FFDA         	movff	(c:sprintf@sp+1),fsr2h
  3587  001076  0100               	movlb	0	; () banked
  3588  001078  C0D0  FFDF         	movff	(sprintf@c),indf2
  3589                           opt subtitle "HI-TECH Software Omniscient Code Generator (Lite mode) build 49521"
  3590                           
  3591  00107C                     l1722:; BSR set to: 0
  3592                           opt subtitle "HI-TECH Software Omniscient Code Generator (Lite mode) build 49521"
  3593  00107C  4A20               	infsnz	((c:sprintf@sp)),c
  3594  00107E  2A21               	incf	((c:sprintf@sp+1)),c
  3595                           opt subtitle "HI-TECH Software Omniscient Code Generator (Lite mode) build 49521"
  3596                           
  3597  001080  D187               	goto	l1802
  3598                           opt subtitle "HI-TECH Software Omniscient Code Generator (Lite mode) build 49521"
  3599                           
  3600  001082                     l201:; BSR set to: 0
  3601                           opt subtitle "HI-TECH Software Omniscient Code Generator (Lite mode) build 49521"
  3602                           
  3603                           opt pagewidth 120
  3604  001082                     l1724:; BSR set to: 0
  3605                           opt subtitle "HI-TECH Software Omniscient Code Generator (Lite mode) build 49521"
  3606                           
  3607                           opt pagewidth 120
  3608  001082  6E2E               	movwf	(??_sprintf+0+0)&0ffh,c
  3609  001084  0E00               	movlw	low(0)
  3610  001086  0100               	movlb	0	; () banked
  3611  001088  0100               	movlb	0	; () banked
  3612  00108A  6FCA               	movwf	((sprintf@flag))&0ffh
  3613  00108C  502E               	movf	(??_sprintf+0+0)&0ffh,c,w
  3614                           opt subtitle "HI-TECH Software Omniscient Code Generator (Lite mode) build 49521"
  3615                           
  3616  00108E  D00A               	goto	l1730
  3617                           opt subtitle "HI-TECH Software Omniscient Code Generator (Lite mode) build 49521"
  3618                           
  3619                           opt pagewidth 120
  3620  001090                     l203:; BSR set to: 0
  3621                           opt subtitle "HI-TECH Software Omniscient Code Generator (Lite mode) build 49521"
  3622                           
  3623                           opt pagewidth 120
  3624  001090  D196               	goto	l1804
  3625                           opt subtitle "HI-TECH Software Omniscient Code Generator (Lite mode) build 49521"
  3626                           
  3627                           opt pagewidth 120
  3628  001092                     l205:; BSR set to: 0
  3629                           opt subtitle "HI-TECH Software Omniscient Code Generator (Lite mode) build 49521"
  3630  001092  D02A               	goto	l207
  3631                           opt subtitle "HI-TECH Software Omniscient Code Generator (Lite mode) build 49521"
  3632                           
  3633  001094                     l206:; BSR set to: 0
  3634                           opt subtitle "HI-TECH Software Omniscient Code Generator (Lite mode) build 49521"
  3635                           
  3636                           opt pagewidth 120
  3637                           
  3638  001094  D029               	goto	l207
  3639                           opt subtitle "HI-TECH Software Omniscient Code Generator (Lite mode) build 49521"
  3640                           
  3641                           opt pagewidth 120
  3642  001096                     l208:; BSR set to: 0
  3643                           opt subtitle "HI-TECH Software Omniscient Code Generator (Lite mode) build 49521"
  3644  001096  D000               	goto	l1726
  3645                           opt subtitle "HI-TECH Software Omniscient Code Generator (Lite mode) build 49521"
  3646                           
  3647  001098                     l209:; BSR set to: 0
  3648                           opt subtitle "HI-TECH Software Omniscient Code Generator (Lite mode) build 49521"
  3649                           
  3650                           opt pagewidth 120
  3651  001098                     l1726:; BSR set to: 0
  3652                           opt subtitle "HI-TECH Software Omniscient Code Generator (Lite mode) build 49521"
  3653                           
  3654                           opt pagewidth 120
  3655  001098  0100               	movlb	0	; () banked
  3656  00109A  0100               	movlb	0	; () banked
  3657  00109C  8FCA               	bsf	(0+(7/8)+(sprintf@flag))&0ffh,(7)&7
  3658                           opt subtitle "HI-TECH Software Omniscient Code Generator (Lite mode) build 49521"
  3659                           
  3660  00109E  D024               	goto	l207
  3661                           opt subtitle "HI-TECH Software Omniscient Code Generator (Lite mode) build 49521"
  3662                           
  3663                           opt pagewidth 120
  3664  0010A0                     l210:; BSR set to: 0
  3665                           opt subtitle "HI-TECH Software Omniscient Code Generator (Lite mode) build 49521"
  3666                           
  3667                           opt pagewidth 120
  3668  0010A0  D177               	goto	l1802
  3669                           opt subtitle "HI-TECH Software Omniscient Code Generator (Lite mode) build 49521"
  3670                           
  3671  0010A2                     l1728:; BSR set to: 0
  3672                           opt subtitle "HI-TECH Software Omniscient Code Generator (Lite mode) build 49521"
  3673                           
  3674  0010A2  D022               	goto	l207
  3675                           opt subtitle "HI-TECH Software Omniscient Code Generator (Lite mode) build 49521"
  3676                           
  3677  0010A4                     l202:; BSR set to: 0
  3678                           opt subtitle "HI-TECH Software Omniscient Code Generator (Lite mode) build 49521"
  3679                           
  3680  0010A4                     l1730:; BSR set to: 0
  3681                           opt subtitle "HI-TECH Software Omniscient Code Generator (Lite mode) build 49521"
  3682  0010A4  5022               	movf	((c:sprintf@f)),c,w
  3683  0010A6  6E2E               	movwf	(??_sprintf+0+0)&0ffh,c
  3684  0010A8  5023               	movf	((c:sprintf@f+1)),c,w
  3685  0010AA  6E2F               	movwf	1+(??_sprintf+0+0)&0ffh,c
  3686  0010AC  4A22               	infsnz	((c:sprintf@f)),c
  3687  0010AE  2A23               	incf	((c:sprintf@f+1)),c
  3688  0010B0  C02E  FFF6         	movff	??_sprintf+0+0,tblptrl
  3689  0010B4  C02F  FFF7         	movff	??_sprintf+0+1,tblptrh
  3690  0010B8  0E00               	movlw	low highword(__mediumconst)
  3691  0010BA  6EF8               	movwf	tblptru
  3692  0010BC  0008               	tblrd	*
  3693                           opt subtitle "HI-TECH Software Omniscient Code Generator (Lite mode) build 49521"
  3694  0010BE  0100               	movlb	0	; () banked
  3695  0010C0  CFF5 F0D0          	movff	tablat,(sprintf@c)
  3696  0010C4  0100               	movlb	0	; () banked
  3697  0010C6  51D0               	movf	((sprintf@c))&0ffh,w
  3698                           opt subtitle "HI-TECH Software Omniscient Code Generator (Lite mode) build 49521"
  3699                           
  3700                           opt pagewidth 120
  3701                           
  3702                           	opt lm
  3703                           
  3704                           	processor	18F8622
  3705  0010C8  0A00               	xorlw	0^0	; case 0
  3706  0010CA  B4D8               	skipnz
  3707  0010CC  D178               	goto	l1804
  3708  0010CE  0A58               	xorlw	88^0	; case 88
  3709  0010D0  B4D8               	skipnz
  3710  0010D2  D7E2               	goto	l1726
  3711  0010D4  0A3C               	xorlw	100^88	; case 100
  3712  0010D6  B4D8               	skipnz
  3713  0010D8  D007               	goto	l207
  3714  0010DA  0A0D               	xorlw	105^100	; case 105
  3715  0010DC  B4D8               	skipnz
  3716  0010DE  D004               	goto	l207
  3717  0010E0  0A11               	xorlw	120^105	; case 120
  3718  0010E2  B4D8               	skipnz
  3719  0010E4  D7D9               	goto	l1726
  3720  0010E6  D154               	goto	l1802
  3721                           opt subtitle "HI-TECH Software Omniscient Code Generator (Lite mode) build 49521"
  3722                           
  3723                           opt pagewidth 120
  3724  0010E8                     l207:; BSR set to: 0
  3725                           opt subtitle "HI-TECH Software Omniscient Code Generator (Lite mode) build 49521"
  3726                           
  3727                           opt pagewidth 120
  3728  0010E8  0100               	movlb	0	; () banked
  3729                           opt subtitle "HI-TECH Software Omniscient Code Generator (Lite mode) build 49521"
  3730  0010EA  0100               	movlb	0	; () banked
  3731  0010EC  BFCA               	btfsc	((sprintf@flag))&0ffh,(7)&7
  3732  0010EE  D001               	goto	u941
  3733  0010F0  D001               	goto	u940
  3734  0010F2                     u941:
  3735  0010F2  D024               	goto	l1742
  3736  0010F4                     u940:
  3737                           opt subtitle "HI-TECH Software Omniscient Code Generator (Lite mode) build 49521"
  3738                           
  3739  0010F4                     l1732:; BSR set to: 0
  3740                           opt subtitle "HI-TECH Software Omniscient Code Generator (Lite mode) build 49521"
  3741                           
  3742                           opt pagewidth 120
  3743  0010F4  C0C7  FFD9         	movff	(sprintf@ap),fsr2l
  3744  0010F8  C0C8  FFDA         	movff	(sprintf@ap+1),fsr2h
  3745  0010FC  0100               	movlb	0	; () banked
  3746  0010FE  CFDE F0CB          	movff	postinc2,(sprintf@_val)
  3747  001102  0100               	movlb	0	; () banked
  3748  001104  CFDD F0CC          	movff	postdec2,(sprintf@_val+1)
  3749                           opt subtitle "HI-TECH Software Omniscient Code Generator (Lite mode) build 49521"
  3750  001108                     l1734:; BSR set to: 0
  3751                           opt subtitle "HI-TECH Software Omniscient Code Generator (Lite mode) build 49521"
  3752  001108  0E02               	movlw	02h
  3753  00110A  0100               	movlb	0	; () banked
  3754  00110C  0100               	movlb	0	; () banked
  3755  00110E  27C7               	addwf	((sprintf@ap))&0ffh
  3756  001110  0E00               	movlw	0
  3757  001112  0100               	movlb	0	; () banked
  3758  001114  23C8               	addwfc	((sprintf@ap+1))&0ffh
  3759                           opt subtitle "HI-TECH Software Omniscient Code Generator (Lite mode) build 49521"
  3760                           
  3761  001116                     l1736:; BSR set to: 0
  3762                           opt subtitle "HI-TECH Software Omniscient Code Generator (Lite mode) build 49521"
  3763                           
  3764  001116  0100               	movlb	0	; () banked
  3765  001118  0100               	movlb	0	; () banked
  3766  00111A  AFCC               	btfss	((sprintf@_val+1))&0ffh,7
  3767  00111C  D001               	goto	u951
  3768  00111E  D001               	goto	u950
  3769  001120                     u951:
  3770  001120  D09D               	goto	l1776
  3771  001122                     u950:
  3772                           opt subtitle "HI-TECH Software Omniscient Code Generator (Lite mode) build 49521"
  3773                           
  3774  001122                     l1738:; BSR set to: 0
  3775                           opt subtitle "HI-TECH Software Omniscient Code Generator (Lite mode) build 49521"
  3776                           
  3777  001122  0E03               	movlw	(03h)&0ffh
  3778  001124  0100               	movlb	0	; () banked
  3779  001126  0100               	movlb	0	; () banked
  3780  001128  13CA               	iorwf	((sprintf@flag))&0ffh
  3781                           opt subtitle "HI-TECH Software Omniscient Code Generator (Lite mode) build 49521"
  3782                           
  3783  00112A                     l1740:; BSR set to: 0
  3784                           opt subtitle "HI-TECH Software Omniscient Code Generator (Lite mode) build 49521"
  3785                           
  3786  00112A  0100               	movlb	0	; () banked
  3787  00112C  0100               	movlb	0	; () banked
  3788  00112E  6DCB               	negf	((sprintf@_val))&0ffh
  3789  001130  0100               	movlb	0	; () banked
  3790  001132  1FCC               	comf	((sprintf@_val+1))&0ffh
  3791  001134  B0D8               	btfsc	status,0
  3792  001136  2BCC               	incf	((sprintf@_val+1))&0ffh
  3793  001138  D091               	goto	l1776
  3794                           opt subtitle "HI-TECH Software Omniscient Code Generator (Lite mode) build 49521"
  3795                           
  3796  00113A                     l212:; BSR set to: 0
  3797                           opt subtitle "HI-TECH Software Omniscient Code Generator (Lite mode) build 49521"
  3798                           
  3799                           opt pagewidth 120
  3800                           
  3801  00113A  D090               	goto	l1776
  3802                           opt subtitle "HI-TECH Software Omniscient Code Generator (Lite mode) build 49521"
  3803                           
  3804  00113C                     l211:; BSR set to: 0
  3805                           opt subtitle "HI-TECH Software Omniscient Code Generator (Lite mode) build 49521"
  3806                           
  3807                           opt pagewidth 120
  3808  00113C                     l1742:; BSR set to: 0
  3809                           opt subtitle "HI-TECH Software Omniscient Code Generator (Lite mode) build 49521"
  3810                           
  3811                           opt pagewidth 120
  3812                           
  3813  00113C  C0C7  FFD9         	movff	(sprintf@ap),fsr2l
  3814  001140  C0C8  FFDA         	movff	(sprintf@ap+1),fsr2h
  3815  001144  0100               	movlb	0	; () banked
  3816  001146  CFDE F0CB          	movff	postinc2,(sprintf@_val)
  3817  00114A  0100               	movlb	0	; () banked
  3818  00114C  CFDD F0CC          	movff	postdec2,(sprintf@_val+1)
  3819                           opt subtitle "HI-TECH Software Omniscient Code Generator (Lite mode) build 49521"
  3820  001150                     l1744:; BSR set to: 0
  3821                           opt subtitle "HI-TECH Software Omniscient Code Generator (Lite mode) build 49521"
  3822  001150  0E02               	movlw	02h
  3823  001152  0100               	movlb	0	; () banked
  3824  001154  0100               	movlb	0	; () banked
  3825  001156  27C7               	addwf	((sprintf@ap))&0ffh
  3826  001158  0E00               	movlw	0
  3827  00115A  0100               	movlb	0	; () banked
  3828  00115C  23C8               	addwfc	((sprintf@ap+1))&0ffh
  3829  00115E  D07E               	goto	l1776
  3830                           opt subtitle "HI-TECH Software Omniscient Code Generator (Lite mode) build 49521"
  3831                           
  3832  001160                     l213:; BSR set to: 0
  3833                           opt subtitle "HI-TECH Software Omniscient Code Generator (Lite mode) build 49521"
  3834                           
  3835                           opt pagewidth 120
  3836                           
  3837  001160  D07D               	goto	l1776
  3838                           opt subtitle "HI-TECH Software Omniscient Code Generator (Lite mode) build 49521"
  3839                           
  3840                           opt pagewidth 120
  3841  001162                     l215:; BSR set to: 0
  3842                           opt subtitle "HI-TECH Software Omniscient Code Generator (Lite mode) build 49521"
  3843                           
  3844                           opt pagewidth 120
  3845  001162                     l1746:; BSR set to: 0
  3846                           opt subtitle "HI-TECH Software Omniscient Code Generator (Lite mode) build 49521"
  3847                           
  3848  001162  6E2E               	movwf	(??_sprintf+0+0)&0ffh,c
  3849  001164  0E01               	movlw	low(01h)
  3850  001166  0100               	movlb	0	; () banked
  3851  001168  0100               	movlb	0	; () banked
  3852  00116A  6FD0               	movwf	((sprintf@c))&0ffh
  3853  00116C  502E               	movf	(??_sprintf+0+0)&0ffh,c,w
  3854                           opt subtitle "HI-TECH Software Omniscient Code Generator (Lite mode) build 49521"
  3855  00116E                     l1748:; BSR set to: 0
  3856                           opt subtitle "HI-TECH Software Omniscient Code Generator (Lite mode) build 49521"
  3857  00116E  0100               	movlb	0	; () banked
  3858  001170  0100               	movlb	0	; () banked
  3859  001172  51D0               	movf	((sprintf@c))&0ffh,w
  3860  001174  0A05               	xorlw	5
  3861                           opt subtitle "HI-TECH Software Omniscient Code Generator (Lite mode) build 49521"
  3862  001176  A4D8               	btfss	status,2
  3863  001178  D001               	goto	u961
  3864  00117A  D001               	goto	u960
  3865  00117C                     u961:
  3866  00117C  D002               	goto	l1752
  3867  00117E                     u960:
  3868  00117E  D079               	goto	l1778
  3869                           opt subtitle "HI-TECH Software Omniscient Code Generator (Lite mode) build 49521"
  3870  001180                     l1750:; BSR set to: 0
  3871                           opt subtitle "HI-TECH Software Omniscient Code Generator (Lite mode) build 49521"
  3872  001180  D078               	goto	l1778
  3873                           opt subtitle "HI-TECH Software Omniscient Code Generator (Lite mode) build 49521"
  3874                           
  3875  001182                     l216:; BSR set to: 0
  3876                           opt subtitle "HI-TECH Software Omniscient Code Generator (Lite mode) build 49521"
  3877                           
  3878  001182                     l1752:; BSR set to: 0
  3879                           opt subtitle "HI-TECH Software Omniscient Code Generator (Lite mode) build 49521"
  3880                           
  3881  001182  0100               	movlb	0	; () banked
  3882  001184  0100               	movlb	0	; () banked
  3883  001186  51D0               	movf	((sprintf@c))&0ffh,w
  3884  001188  0D02               	mullw	02h
  3885  00118A  0E00               	movlw	low((_dpowers))
  3886  00118C  24F3               	addwf	(prodl),c,w
  3887  00118E  6EF6               	movwf	tblptrl
  3888  001190  0E10               	movlw	high((_dpowers))
  3889  001192  20F4               	addwfc	(prodh),c,w
  3890  001194  6EF7               	movwf	tblptrh
  3891  001196  6AF8               	clrf	tblptru
  3892  001198  0E00               	movlw	low highword(__mediumconst)
  3893  00119A  22F8               	addwfc	tblptru
  3894  00119C  0009               	tblrd	*+
  3895                           opt subtitle "HI-TECH Software Omniscient Code Generator (Lite mode) build 49521"
  3896  00119E  CFF5 F02E          	movff	tablat,??_sprintf+0+0
  3897  0011A2  0009               	tblrd	*+
  3898                           opt subtitle "HI-TECH Software Omniscient Code Generator (Lite mode) build 49521"
  3899  0011A4  CFF5 F02F          	movff	tablat,??_sprintf+0+0+1
  3900  0011A8  502E               	movf	(??_sprintf+0+0),c,w
  3901  0011AA  0100               	movlb	0	; () banked
  3902  0011AC  0100               	movlb	0	; () banked
  3903  0011AE  5DCB               	subwf	((sprintf@_val))&0ffh,w
  3904  0011B0  502F               	movf	(??_sprintf+0+1),c,w
  3905  0011B2  0100               	movlb	0	; () banked
  3906  0011B4  0100               	movlb	0	; () banked
  3907  0011B6  59CC               	subwfb	((sprintf@_val+1))&0ffh,w
  3908  0011B8  B0D8               	btfsc	status,0
  3909  0011BA  D001               	goto	u971
  3910  0011BC  D001               	goto	u970
  3911  0011BE                     u971:
  3912  0011BE  D002               	goto	l1756
  3913  0011C0                     u970:
  3914  0011C0  D058               	goto	l1778
  3915                           opt subtitle "HI-TECH Software Omniscient Code Generator (Lite mode) build 49521"
  3916                           
  3917  0011C2                     l1754:; BSR set to: 0
  3918                           opt subtitle "HI-TECH Software Omniscient Code Generator (Lite mode) build 49521"
  3919                           
  3920  0011C2  D057               	goto	l1778
  3921                           opt subtitle "HI-TECH Software Omniscient Code Generator (Lite mode) build 49521"
  3922  0011C4                     l218:; BSR set to: 0
  3923                           opt subtitle "HI-TECH Software Omniscient Code Generator (Lite mode) build 49521"
  3924                           
  3925                           opt pagewidth 120
  3926  0011C4                     l1756:; BSR set to: 0
  3927                           opt subtitle "HI-TECH Software Omniscient Code Generator (Lite mode) build 49521"
  3928  0011C4  0100               	movlb	0	; () banked
  3929  0011C6  0100               	movlb	0	; () banked
  3930  0011C8  2BD0               	incf	((sprintf@c))&0ffh
  3931                           opt subtitle "HI-TECH Software Omniscient Code Generator (Lite mode) build 49521"
  3932  0011CA                     l1758:; BSR set to: 0
  3933                           opt subtitle "HI-TECH Software Omniscient Code Generator (Lite mode) build 49521"
  3934  0011CA  0100               	movlb	0	; () banked
  3935  0011CC  0100               	movlb	0	; () banked
  3936  0011CE  51D0               	movf	((sprintf@c))&0ffh,w
  3937  0011D0  0A05               	xorlw	5
  3938                           opt subtitle "HI-TECH Software Omniscient Code Generator (Lite mode) build 49521"
  3939  0011D2  A4D8               	btfss	status,2
  3940  0011D4  D001               	goto	u981
  3941  0011D6  D001               	goto	u980
  3942  0011D8                     u981:
  3943  0011D8  D7D4               	goto	l1752
  3944  0011DA                     u980:
  3945  0011DA  D04B               	goto	l1778
  3946                           opt subtitle "HI-TECH Software Omniscient Code Generator (Lite mode) build 49521"
  3947  0011DC                     l217:; BSR set to: 0
  3948                           opt subtitle "HI-TECH Software Omniscient Code Generator (Lite mode) build 49521"
  3949                           
  3950                           opt pagewidth 120
  3951  0011DC  D04A               	goto	l1778
  3952                           opt subtitle "HI-TECH Software Omniscient Code Generator (Lite mode) build 49521"
  3953                           
  3954                           opt pagewidth 120
  3955  0011DE                     l220:; BSR set to: 0
  3956                           opt subtitle "HI-TECH Software Omniscient Code Generator (Lite mode) build 49521"
  3957                           
  3958                           opt pagewidth 120
  3959  0011DE                     l1760:; BSR set to: 0
  3960                           opt subtitle "HI-TECH Software Omniscient Code Generator (Lite mode) build 49521"
  3961                           
  3962  0011DE  6E2E               	movwf	(??_sprintf+0+0)&0ffh,c
  3963  0011E0  0E01               	movlw	low(01h)
  3964  0011E2  0100               	movlb	0	; () banked
  3965  0011E4  0100               	movlb	0	; () banked
  3966  0011E6  6FD0               	movwf	((sprintf@c))&0ffh
  3967  0011E8  502E               	movf	(??_sprintf+0+0)&0ffh,c,w
  3968                           opt subtitle "HI-TECH Software Omniscient Code Generator (Lite mode) build 49521"
  3969  0011EA                     l1762:; BSR set to: 0
  3970                           opt subtitle "HI-TECH Software Omniscient Code Generator (Lite mode) build 49521"
  3971  0011EA  0100               	movlb	0	; () banked
  3972  0011EC  0100               	movlb	0	; () banked
  3973  0011EE  51D0               	movf	((sprintf@c))&0ffh,w
  3974  0011F0  0A04               	xorlw	4
  3975                           opt subtitle "HI-TECH Software Omniscient Code Generator (Lite mode) build 49521"
  3976  0011F2  A4D8               	btfss	status,2
  3977  0011F4  D001               	goto	u991
  3978  0011F6  D001               	goto	u990
  3979  0011F8                     u991:
  3980  0011F8  D002               	goto	l1766
  3981  0011FA                     u990:
  3982  0011FA  D03B               	goto	l1778
  3983                           opt subtitle "HI-TECH Software Omniscient Code Generator (Lite mode) build 49521"
  3984  0011FC                     l1764:; BSR set to: 0
  3985                           opt subtitle "HI-TECH Software Omniscient Code Generator (Lite mode) build 49521"
  3986  0011FC  D03A               	goto	l1778
  3987                           opt subtitle "HI-TECH Software Omniscient Code Generator (Lite mode) build 49521"
  3988                           
  3989  0011FE                     l221:; BSR set to: 0
  3990                           opt subtitle "HI-TECH Software Omniscient Code Generator (Lite mode) build 49521"
  3991                           
  3992  0011FE                     l1766:; BSR set to: 0
  3993                           opt subtitle "HI-TECH Software Omniscient Code Generator (Lite mode) build 49521"
  3994                           
  3995  0011FE  0100               	movlb	0	; () banked
  3996  001200  0100               	movlb	0	; () banked
  3997  001202  51D0               	movf	((sprintf@c))&0ffh,w
  3998  001204  0D02               	mullw	02h
  3999  001206  0E0A               	movlw	low((_hexpowers))
  4000  001208  24F3               	addwf	(prodl),c,w
  4001  00120A  6EF6               	movwf	tblptrl
  4002  00120C  0E10               	movlw	high((_hexpowers))
  4003  00120E  20F4               	addwfc	(prodh),c,w
  4004  001210  6EF7               	movwf	tblptrh
  4005  001212  6AF8               	clrf	tblptru
  4006  001214  0E00               	movlw	low highword(__mediumconst)
  4007  001216  22F8               	addwfc	tblptru
  4008  001218  0009               	tblrd	*+
  4009                           opt subtitle "HI-TECH Software Omniscient Code Generator (Lite mode) build 49521"
  4010  00121A  CFF5 F02E          	movff	tablat,??_sprintf+0+0
  4011  00121E  0009               	tblrd	*+
  4012                           opt subtitle "HI-TECH Software Omniscient Code Generator (Lite mode) build 49521"
  4013  001220  CFF5 F02F          	movff	tablat,??_sprintf+0+0+1
  4014  001224  502E               	movf	(??_sprintf+0+0),c,w
  4015  001226  0100               	movlb	0	; () banked
  4016  001228  0100               	movlb	0	; () banked
  4017  00122A  5DCB               	subwf	((sprintf@_val))&0ffh,w
  4018  00122C  502F               	movf	(??_sprintf+0+1),c,w
  4019  00122E  0100               	movlb	0	; () banked
  4020  001230  0100               	movlb	0	; () banked
  4021  001232  59CC               	subwfb	((sprintf@_val+1))&0ffh,w
  4022  001234  B0D8               	btfsc	status,0
  4023  001236  D001               	goto	u1001
  4024  001238  D001               	goto	u1000
  4025  00123A                     u1001:
  4026  00123A  D002               	goto	l1770
  4027  00123C                     u1000:
  4028  00123C  D01A               	goto	l1778
  4029                           opt subtitle "HI-TECH Software Omniscient Code Generator (Lite mode) build 49521"
  4030                           
  4031  00123E                     l1768:; BSR set to: 0
  4032                           opt subtitle "HI-TECH Software Omniscient Code Generator (Lite mode) build 49521"
  4033                           
  4034  00123E  D019               	goto	l1778
  4035                           opt subtitle "HI-TECH Software Omniscient Code Generator (Lite mode) build 49521"
  4036  001240                     l223:; BSR set to: 0
  4037                           opt subtitle "HI-TECH Software Omniscient Code Generator (Lite mode) build 49521"
  4038                           
  4039                           opt pagewidth 120
  4040  001240                     l1770:; BSR set to: 0
  4041                           opt subtitle "HI-TECH Software Omniscient Code Generator (Lite mode) build 49521"
  4042  001240  0100               	movlb	0	; () banked
  4043  001242  0100               	movlb	0	; () banked
  4044  001244  2BD0               	incf	((sprintf@c))&0ffh
  4045                           opt subtitle "HI-TECH Software Omniscient Code Generator (Lite mode) build 49521"
  4046  001246                     l1772:; BSR set to: 0
  4047                           opt subtitle "HI-TECH Software Omniscient Code Generator (Lite mode) build 49521"
  4048  001246  0100               	movlb	0	; () banked
  4049  001248  0100               	movlb	0	; () banked
  4050  00124A  51D0               	movf	((sprintf@c))&0ffh,w
  4051  00124C  0A04               	xorlw	4
  4052                           opt subtitle "HI-TECH Software Omniscient Code Generator (Lite mode) build 49521"
  4053  00124E  A4D8               	btfss	status,2
  4054  001250  D001               	goto	u1011
  4055  001252  D001               	goto	u1010
  4056  001254                     u1011:
  4057  001254  D7D4               	goto	l1766
  4058  001256                     u1010:
  4059  001256  D00D               	goto	l1778
  4060                           opt subtitle "HI-TECH Software Omniscient Code Generator (Lite mode) build 49521"
  4061  001258                     l222:; BSR set to: 0
  4062                           opt subtitle "HI-TECH Software Omniscient Code Generator (Lite mode) build 49521"
  4063                           
  4064                           opt pagewidth 120
  4065  001258  D00C               	goto	l1778
  4066                           opt subtitle "HI-TECH Software Omniscient Code Generator (Lite mode) build 49521"
  4067                           
  4068  00125A                     l1774:; BSR set to: 0
  4069                           opt subtitle "HI-TECH Software Omniscient Code Generator (Lite mode) build 49521"
  4070                           
  4071  00125A  D00B               	goto	l1778
  4072                           opt subtitle "HI-TECH Software Omniscient Code Generator (Lite mode) build 49521"
  4073                           
  4074  00125C                     l214:; BSR set to: 0
  4075                           opt subtitle "HI-TECH Software Omniscient Code Generator (Lite mode) build 49521"
  4076                           
  4077  00125C                     l1776:; BSR set to: 0
  4078                           opt subtitle "HI-TECH Software Omniscient Code Generator (Lite mode) build 49521"
  4079  00125C  0100               	movlb	0	; () banked
  4080  00125E  0100               	movlb	0	; () banked
  4081  001260  51CA               	movf	((sprintf@flag))&0ffh,w
  4082  001262  0B80               	andlw	low(080h)
  4083                           opt subtitle "HI-TECH Software Omniscient Code Generator (Lite mode) build 49521"
  4084                           
  4085                           opt pagewidth 120
  4086                           
  4087                           	opt lm
  4088                           
  4089                           	processor	18F8622
  4090  001264  0A00               	xorlw	0^0	; case 0
  4091  001266  B4D8               	skipnz
  4092  001268  D77C               	goto	l1746
  4093  00126A  0A80               	xorlw	128^0	; case 128
  4094  00126C  B4D8               	skipnz
  4095  00126E  D7B7               	goto	l1760
  4096  001270  D000               	goto	l1778
  4097                           opt subtitle "HI-TECH Software Omniscient Code Generator (Lite mode) build 49521"
  4098                           
  4099                           opt pagewidth 120
  4100  001272                     l219:; BSR set to: 0
  4101                           opt subtitle "HI-TECH Software Omniscient Code Generator (Lite mode) build 49521"
  4102                           
  4103                           opt pagewidth 120
  4104  001272                     l1778:; BSR set to: 0
  4105                           opt subtitle "HI-TECH Software Omniscient Code Generator (Lite mode) build 49521"
  4106                           
  4107                           opt pagewidth 120
  4108  001272  0100               	movlb	0	; () banked
  4109  001274  0100               	movlb	0	; () banked
  4110  001276  51CA               	movf	((sprintf@flag))&0ffh,w
  4111  001278  0B03               	andlw	low(03h)
  4112  00127A  B4D8               	btfsc	status,2
  4113  00127C  D001               	goto	u1021
  4114  00127E  D001               	goto	u1020
  4115  001280                     u1021:
  4116  001280  D009               	goto	l1784
  4117  001282                     u1020:
  4118                           opt subtitle "HI-TECH Software Omniscient Code Generator (Lite mode) build 49521"
  4119                           
  4120  001282                     l1780:; BSR set to: 0
  4121                           opt subtitle "HI-TECH Software Omniscient Code Generator (Lite mode) build 49521"
  4122                           
  4123  001282  C020  FFD9         	movff	(c:sprintf@sp),fsr2l
  4124  001286  C021  FFDA         	movff	(c:sprintf@sp+1),fsr2h
  4125  00128A  0E2D               	movlw	low(02Dh)
  4126  00128C  6EDF               	movwf	indf2
  4127                           opt subtitle "HI-TECH Software Omniscient Code Generator (Lite mode) build 49521"
  4128  00128E                     l1782:; BSR set to: 0
  4129                           opt subtitle "HI-TECH Software Omniscient Code Generator (Lite mode) build 49521"
  4130  00128E  4A20               	infsnz	((c:sprintf@sp)),c
  4131  001290  2A21               	incf	((c:sprintf@sp+1)),c
  4132  001292  D000               	goto	l1784
  4133                           opt subtitle "HI-TECH Software Omniscient Code Generator (Lite mode) build 49521"
  4134  001294                     l224:; BSR set to: 0
  4135                           opt subtitle "HI-TECH Software Omniscient Code Generator (Lite mode) build 49521"
  4136                           
  4137                           opt pagewidth 120
  4138  001294                     l1784:; BSR set to: 0
  4139                           opt subtitle "HI-TECH Software Omniscient Code Generator (Lite mode) build 49521"
  4140                           
  4141                           opt pagewidth 120
  4142  001294  C0D0  F0C9         	movff	(sprintf@c),(sprintf@prec)
  4143                           opt subtitle "HI-TECH Software Omniscient Code Generator (Lite mode) build 49521"
  4144                           
  4145  001298  D070               	goto	l1800
  4146                           opt subtitle "HI-TECH Software Omniscient Code Generator (Lite mode) build 49521"
  4147  00129A                     l226:; BSR set to: 0
  4148                           opt subtitle "HI-TECH Software Omniscient Code Generator (Lite mode) build 49521"
  4149                           
  4150                           opt pagewidth 120
  4151  00129A  D05A               	goto	l1794
  4152                           opt subtitle "HI-TECH Software Omniscient Code Generator (Lite mode) build 49521"
  4153                           
  4154                           opt pagewidth 120
  4155                           
  4156  00129C                     l228:; BSR set to: 0
  4157                           opt subtitle "HI-TECH Software Omniscient Code Generator (Lite mode) build 49521"
  4158                           
  4159                           opt pagewidth 120
  4160  00129C                     l1786:; BSR set to: 0
  4161                           opt subtitle "HI-TECH Software Omniscient Code Generator (Lite mode) build 49521"
  4162                           
  4163  00129C  0100               	movlb	0	; () banked
  4164  00129E  0100               	movlb	0	; () banked
  4165  0012A0  51C9               	movf	((sprintf@prec))&0ffh,w
  4166  0012A2  0D02               	mullw	02h
  4167  0012A4  0E00               	movlw	low((_dpowers))
  4168  0012A6  24F3               	addwf	(prodl),c,w
  4169  0012A8  6EF6               	movwf	tblptrl
  4170  0012AA  0E10               	movlw	high((_dpowers))
  4171  0012AC  20F4               	addwfc	(prodh),c,w
  4172  0012AE  6EF7               	movwf	tblptrh
  4173  0012B0  6AF8               	clrf	tblptru
  4174  0012B2  0E00               	movlw	low highword(__mediumconst)
  4175  0012B4  22F8               	addwfc	tblptru
  4176  0012B6  0009               	tblrd*+
  4177                           opt subtitle "HI-TECH Software Omniscient Code Generator (Lite mode) build 49521"
  4178  0012B8  CFF5 F014          	movff	tablat,0+((c:?___lwdiv)+02h)
  4179  0012BC  000A               	tblrd*-
  4180                           opt subtitle "HI-TECH Software Omniscient Code Generator (Lite mode) build 49521"
  4181  0012BE  CFF5 F015          	movff	tablat,1+((c:?___lwdiv)+02h)
  4182                           opt subtitle "HI-TECH Software Omniscient Code Generator (Lite mode) build 49521"
  4183  0012C2  C0CB  F012         	movff	(sprintf@_val),(c:?___lwdiv)
  4184  0012C6  C0CC  F013         	movff	(sprintf@_val+1),(c:?___lwdiv+1)
  4185  0012CA  ECCD  F00C         	call	___lwdiv	;wreg free
  4186  0012CE  C012  F01A         	movff	0+?___lwdiv,(c:?___lwmod)
  4187  0012D2  C013  F01B         	movff	1+?___lwdiv,(c:?___lwmod+1)
  4188  0012D6  0E00               	movlw	high(0Ah)
  4189  0012D8  6E1D               	movwf	(1+((c:?___lwmod)+02h)),c
  4190  0012DA  0E0A               	movlw	low(0Ah)
  4191  0012DC  6E1C               	movwf	(0+((c:?___lwmod)+02h)),c
  4192  0012DE  EC35  F00D         	call	___lwmod	;wreg free
  4193  0012E2  501A               	movf	(0+?___lwmod),c,w
  4194  0012E4  0F30               	addlw	low(030h)
  4195  0012E6  0100               	movlb	0	; () banked
  4196  0012E8  0100               	movlb	0	; () banked
  4197  0012EA  6FD0               	movwf	((sprintf@c))&0ffh
  4198                           opt subtitle "HI-TECH Software Omniscient Code Generator (Lite mode) build 49521"
  4199                           
  4200  0012EC  D03C               	goto	l1796
  4201                           opt subtitle "HI-TECH Software Omniscient Code Generator (Lite mode) build 49521"
  4202                           
  4203                           opt pagewidth 120
  4204  0012EE                     l230:; BSR set to: 0
  4205                           opt subtitle "HI-TECH Software Omniscient Code Generator (Lite mode) build 49521"
  4206                           
  4207                           opt pagewidth 120
  4208  0012EE                     l1788:; BSR set to: 0
  4209                           opt subtitle "HI-TECH Software Omniscient Code Generator (Lite mode) build 49521"
  4210                           
  4211                           opt pagewidth 120
  4212  0012EE  C0CB  F012         	movff	(sprintf@_val),(c:?___lwdiv)
  4213  0012F2  C0CC  F013         	movff	(sprintf@_val+1),(c:?___lwdiv+1)
  4214  0012F6  0100               	movlb	0	; () banked
  4215  0012F8  0100               	movlb	0	; () banked
  4216  0012FA  51C9               	movf	((sprintf@prec))&0ffh,w
  4217  0012FC  0D02               	mullw	02h
  4218  0012FE  0E0A               	movlw	low((_hexpowers))
  4219  001300  24F3               	addwf	(prodl),c,w
  4220  001302  6EF6               	movwf	tblptrl
  4221  001304  0E10               	movlw	high((_hexpowers))
  4222  001306  20F4               	addwfc	(prodh),c,w
  4223  001308  6EF7               	movwf	tblptrh
  4224  00130A  6AF8               	clrf	tblptru
  4225  00130C  0E00               	movlw	low highword(__mediumconst)
  4226  00130E  22F8               	addwfc	tblptru
  4227  001310  0009               	tblrd*+
  4228                           opt subtitle "HI-TECH Software Omniscient Code Generator (Lite mode) build 49521"
  4229  001312  CFF5 F014          	movff	tablat,0+((c:?___lwdiv)+02h)
  4230  001316  000A               	tblrd*-
  4231                           opt subtitle "HI-TECH Software Omniscient Code Generator (Lite mode) build 49521"
  4232  001318  CFF5 F015          	movff	tablat,1+((c:?___lwdiv)+02h)
  4233                           opt subtitle "HI-TECH Software Omniscient Code Generator (Lite mode) build 49521"
  4234  00131C  ECCD  F00C         	call	___lwdiv	;wreg free
  4235  001320  5012               	movf	(0+?___lwdiv),c,w
  4236  001322  0B0F               	andlw	low(0Fh)
  4237  001324  0100               	movlb	0	; () banked
  4238  001326  0100               	movlb	0	; () banked
  4239  001328  6FC6               	movwf	((sprintf@idx))&0ffh
  4240                           opt subtitle "HI-TECH Software Omniscient Code Generator (Lite mode) build 49521"
  4241                           
  4242  00132A                     l1790:; BSR set to: 0
  4243                           opt subtitle "HI-TECH Software Omniscient Code Generator (Lite mode) build 49521"
  4244                           
  4245  00132A  0100               	movlb	0	; () banked
  4246  00132C  0100               	movlb	0	; () banked
  4247  00132E  51C6               	movf	((sprintf@idx))&0ffh,w
  4248  001330  0D01               	mullw	01h
  4249  001332  0E2A               	movlw	low((STR_3))
  4250  001334  24F3               	addwf	(prodl),c,w
  4251  001336  6EF6               	movwf	tblptrl
  4252  001338  0E10               	movlw	high((STR_3))
  4253  00133A  20F4               	addwfc	(prodh),c,w
  4254  00133C  6EF7               	movwf	tblptrh
  4255  00133E  6AF8               	clrf	tblptru
  4256  001340  0E00               	movlw	low highword(__mediumconst)
  4257  001342  22F8               	addwfc	tblptru
  4258  001344  0008               	tblrd	*
  4259                           opt subtitle "HI-TECH Software Omniscient Code Generator (Lite mode) build 49521"
  4260  001346  0100               	movlb	0	; () banked
  4261  001348  CFF5 F0D0          	movff	tablat,(sprintf@c)
  4262                           opt subtitle "HI-TECH Software Omniscient Code Generator (Lite mode) build 49521"
  4263                           
  4264                           opt pagewidth 120
  4265  00134C  D00C               	goto	l1796
  4266                           opt subtitle "HI-TECH Software Omniscient Code Generator (Lite mode) build 49521"
  4267                           
  4268  00134E                     l1792:; BSR set to: 0
  4269                           opt subtitle "HI-TECH Software Omniscient Code Generator (Lite mode) build 49521"
  4270                           
  4271  00134E  D00B               	goto	l1796
  4272                           opt subtitle "HI-TECH Software Omniscient Code Generator (Lite mode) build 49521"
  4273                           
  4274  001350                     l227:; BSR set to: 0
  4275                           opt subtitle "HI-TECH Software Omniscient Code Generator (Lite mode) build 49521"
  4276                           
  4277  001350                     l1794:; BSR set to: 0
  4278                           opt subtitle "HI-TECH Software Omniscient Code Generator (Lite mode) build 49521"
  4279  001350  0100               	movlb	0	; () banked
  4280  001352  0100               	movlb	0	; () banked
  4281  001354  51CA               	movf	((sprintf@flag))&0ffh,w
  4282  001356  0B80               	andlw	low(080h)
  4283                           opt subtitle "HI-TECH Software Omniscient Code Generator (Lite mode) build 49521"
  4284                           
  4285                           opt pagewidth 120
  4286                           
  4287                           	opt lm
  4288                           
  4289                           	processor	18F8622
  4290  001358  0A00               	xorlw	0^0	; case 0
  4291  00135A  B4D8               	skipnz
  4292  00135C  D79F               	goto	l1786
  4293  00135E  0A80               	xorlw	128^0	; case 128
  4294  001360  B4D8               	skipnz
  4295  001362  D7C5               	goto	l1788
  4296  001364  D000               	goto	l1796
  4297                           opt subtitle "HI-TECH Software Omniscient Code Generator (Lite mode) build 49521"
  4298                           
  4299                           opt pagewidth 120
  4300  001366                     l229:; BSR set to: 0
  4301                           opt subtitle "HI-TECH Software Omniscient Code Generator (Lite mode) build 49521"
  4302                           
  4303                           opt pagewidth 120
  4304  001366                     l1796:; BSR set to: 0
  4305                           opt subtitle "HI-TECH Software Omniscient Code Generator (Lite mode) build 49521"
  4306                           
  4307  001366  C020  FFD9         	movff	(c:sprintf@sp),fsr2l
  4308  00136A  C021  FFDA         	movff	(c:sprintf@sp+1),fsr2h
  4309  00136E  0100               	movlb	0	; () banked
  4310  001370  C0D0  FFDF         	movff	(sprintf@c),indf2
  4311                           opt subtitle "HI-TECH Software Omniscient Code Generator (Lite mode) build 49521"
  4312                           
  4313  001374                     l1798:; BSR set to: 0
  4314                           opt subtitle "HI-TECH Software Omniscient Code Generator (Lite mode) build 49521"
  4315  001374  4A20               	infsnz	((c:sprintf@sp)),c
  4316  001376  2A21               	incf	((c:sprintf@sp+1)),c
  4317  001378  D000               	goto	l1800
  4318                           opt subtitle "HI-TECH Software Omniscient Code Generator (Lite mode) build 49521"
  4319                           
  4320  00137A                     l225:; BSR set to: 0
  4321                           opt subtitle "HI-TECH Software Omniscient Code Generator (Lite mode) build 49521"
  4322                           
  4323                           opt pagewidth 120
  4324  00137A                     l1800:; BSR set to: 0
  4325                           opt subtitle "HI-TECH Software Omniscient Code Generator (Lite mode) build 49521"
  4326  00137A  0100               	movlb	0	; () banked
  4327  00137C  0100               	movlb	0	; () banked
  4328  00137E  07C9               	decf	((sprintf@prec))&0ffh
  4329  001380  0100               	movlb	0	; () banked
  4330  001382  29C9               	incf	((sprintf@prec))&0ffh,w
  4331                           opt subtitle "HI-TECH Software Omniscient Code Generator (Lite mode) build 49521"
  4332  001384  A4D8               	btfss	status,2
  4333  001386  D001               	goto	u1031
  4334  001388  D001               	goto	u1030
  4335  00138A                     u1031:
  4336  00138A  D7E2               	goto	l1794
  4337  00138C                     u1030:
  4338  00138C  D001               	goto	l1802
  4339                           opt subtitle "HI-TECH Software Omniscient Code Generator (Lite mode) build 49521"
  4340  00138E                     l231:; BSR set to: 0
  4341                           opt subtitle "HI-TECH Software Omniscient Code Generator (Lite mode) build 49521"
  4342  00138E  D000               	goto	l1802
  4343                           opt subtitle "HI-TECH Software Omniscient Code Generator (Lite mode) build 49521"
  4344                           
  4345  001390                     l199:; BSR set to: 0
  4346                           opt subtitle "HI-TECH Software Omniscient Code Generator (Lite mode) build 49521"
  4347                           
  4348                           opt pagewidth 120
  4349  001390                     l1802:; BSR set to: 0
  4350                           opt subtitle "HI-TECH Software Omniscient Code Generator (Lite mode) build 49521"
  4351  001390  5022               	movf	((c:sprintf@f)),c,w
  4352  001392  6E2E               	movwf	(??_sprintf+0+0)&0ffh,c
  4353  001394  5023               	movf	((c:sprintf@f+1)),c,w
  4354  001396  6E2F               	movwf	1+(??_sprintf+0+0)&0ffh,c
  4355  001398  4A22               	infsnz	((c:sprintf@f)),c
  4356  00139A  2A23               	incf	((c:sprintf@f+1)),c
  4357  00139C  C02E  FFF6         	movff	??_sprintf+0+0,tblptrl
  4358  0013A0  C02F  FFF7         	movff	??_sprintf+0+1,tblptrh
  4359  0013A4  0E00               	movlw	low highword(__mediumconst)
  4360  0013A6  6EF8               	movwf	tblptru
  4361  0013A8  0008               	tblrd	*
  4362                           opt subtitle "HI-TECH Software Omniscient Code Generator (Lite mode) build 49521"
  4363  0013AA  0100               	movlb	0	; () banked
  4364  0013AC  CFF5 F0D0          	movff	tablat,(sprintf@c)
  4365  0013B0  0100               	movlb	0	; () banked
  4366  0013B2  67D0               	tstfsz	((sprintf@c))&0ffh
  4367  0013B4  D001               	goto	u1041
  4368  0013B6  D001               	goto	u1040
  4369  0013B8                     u1041:
  4370  0013B8  D652               	goto	l1718
  4371  0013BA                     u1040:
  4372  0013BA  D001               	goto	l1804
  4373                           opt subtitle "HI-TECH Software Omniscient Code Generator (Lite mode) build 49521"
  4374  0013BC                     l232:; BSR set to: 0
  4375                           opt subtitle "HI-TECH Software Omniscient Code Generator (Lite mode) build 49521"
  4376  0013BC  D000               	goto	l1804
  4377                           opt subtitle "HI-TECH Software Omniscient Code Generator (Lite mode) build 49521"
  4378                           
  4379                           opt pagewidth 120
  4380                           
  4381                           	opt lm
  4382  0013BE                     l204:; BSR set to: 0
  4383                           opt subtitle "HI-TECH Software Omniscient Code Generator (Lite mode) build 49521"
  4384                           
  4385                           opt pagewidth 120
  4386  0013BE                     l1804:; BSR set to: 0
  4387                           opt subtitle "HI-TECH Software Omniscient Code Generator (Lite mode) build 49521"
  4388                           
  4389  0013BE  C020  FFD9         	movff	(c:sprintf@sp),fsr2l
  4390  0013C2  C021  FFDA         	movff	(c:sprintf@sp+1),fsr2h
  4391  0013C6  0E00               	movlw	low(0)
  4392  0013C8  6EDF               	movwf	indf2
  4393  0013CA  D000               	goto	l233
  4394                           opt subtitle "HI-TECH Software Omniscient Code Generator (Lite mode) build 49521"
  4395                           
  4396  0013CC                     l1806:; BSR set to: 0
  4397                           opt subtitle "HI-TECH Software Omniscient Code Generator (Lite mode) build 49521"
  4398                           
  4399                           opt pagewidth 120
  4400                           
  4401                           	opt lm
  4402  0013CC                     l233:; BSR set to: 0
  4403                           opt subtitle "HI-TECH Software Omniscient Code Generator (Lite mode) build 49521"
  4404  0013CC  0012               	return
  4405                           opt subtitle "HI-TECH Software Omniscient Code Generator (Lite mode) build 49521"
  4406                           
  4407  0013CE                     	__end_of_sprintf:
  4408                           opt subtitle "HI-TECH Software Omniscient Code Generator (Lite mode) build 49521"
  4409                           
  4410                           opt pagewidth 120
  4411                           
  4412                           	opt lm
  4413                           
  4414                           	processor	18F8622
  4415                           porta	equ	0F80h
  4416                           portb	equ	0F81h
  4417                           portc	equ	0F82h
  4418                           portd	equ	0F83h
  4419                           porte	equ	0F84h
  4420                           lata	equ	0F89h
  4421                           latb	equ	0F8Ah
  4422                           latc	equ	0F8Bh
  4423                           latd	equ	0F8Ch
  4424                           late	equ	0F8Dh
  4425                           trisa	equ	0F92h
  4426                           trisb	equ	0F93h
  4427                           trisc	equ	0F94h
  4428                           trisd	equ	0F95h
  4429                           trise	equ	0F96h
  4430                           pie1	equ	0F9Dh
  4431                           pir1	equ	0F9Eh
  4432                           ipr1	equ	0F9Fh
  4433                           pie2	equ	0FA0h
  4434                           pir2	equ	0FA1h
  4435                           ipr2	equ	0FA2h
  4436                           t3con	equ	0FB1h
  4437                           tmr3l	equ	0FB2h
  4438                           tmr3h	equ	0FB3h
  4439                           ccp1con	equ	0FBDh
  4440                           ccpr1l	equ	0FBEh
  4441                           ccpr1h	equ	0FBFh
  4442                           adcon1	equ	0FC1h
  4443                           adcon0	equ	0FC2h
  4444  00199A                     __ptext11:
  4445                           opt subtitle "HI-TECH Software Omniscient Code Generator (Lite mode) build 49521"
  4446                           
  4447                           opt pagewidth 120
  4448                           
  4449  0000                     	__size_of___lwdiv	equ	__end_of___lwdiv-___lwdiv
  4450                           opt subtitle "HI-TECH Software Omniscient Code Generator (Lite mode) build 49521"
  4451  00199A                     ___lwdiv:; BSR set to: 0
  4452                           opt subtitle "HI-TECH Software Omniscient Code Generator (Lite mode) build 49521"
  4453                           
  4454                           opt pagewidth 120
  4455                           
  4456  00199A                     l1808:
  4457  00199A  0E00               	movlw	high(0)
  4458  00199C  6E19               	movwf	((c:___lwdiv@quotient+1)),c
  4459  00199E  0E00               	movlw	low(0)
  4460  0019A0  6E18               	movwf	((c:___lwdiv@quotient)),c
  4461                           opt subtitle "HI-TECH Software Omniscient Code Generator (Lite mode) build 49521"
  4462                           
  4463  0019A2                     l1810:
  4464  0019A2  5015               	movf	((c:___lwdiv@divisor+1)),c,w
  4465  0019A4  1014               	iorwf ((c:___lwdiv@divisor)),c,w
  4466                           opt subtitle "HI-TECH Software Omniscient Code Generator (Lite mode) build 49521"
  4467  0019A6  B4D8               	btfsc	status,2
  4468  0019A8  D001               	goto	u1051
  4469  0019AA  D001               	goto	u1050
  4470  0019AC                     u1051:
  4471  0019AC  D027               	goto	l720
  4472  0019AE                     u1050:
  4473                           opt subtitle "HI-TECH Software Omniscient Code Generator (Lite mode) build 49521"
  4474                           
  4475  0019AE                     l1812:
  4476  0019AE  6E16               	movwf	(??___lwdiv+0+0)&0ffh,c
  4477  0019B0  0E01               	movlw	low(01h)
  4478  0019B2  6E17               	movwf	((c:___lwdiv@counter)),c
  4479  0019B4  5016               	movf	(??___lwdiv+0+0)&0ffh,c,w
  4480                           opt subtitle "HI-TECH Software Omniscient Code Generator (Lite mode) build 49521"
  4481  0019B6  D005               	goto	l1816
  4482                           opt subtitle "HI-TECH Software Omniscient Code Generator (Lite mode) build 49521"
  4483  0019B8                     l722:
  4484                           opt subtitle "HI-TECH Software Omniscient Code Generator (Lite mode) build 49521"
  4485                           
  4486  0019B8                     l1814:
  4487  0019B8  90D8               	bcf	status,0
  4488  0019BA  3614               	rlcf	((c:___lwdiv@divisor)),c
  4489  0019BC  3615               	rlcf	((c:___lwdiv@divisor+1)),c
  4490                           opt subtitle "HI-TECH Software Omniscient Code Generator (Lite mode) build 49521"
  4491  0019BE  2A17               	incf	((c:___lwdiv@counter)),c
  4492  0019C0  D000               	goto	l1816
  4493                           opt subtitle "HI-TECH Software Omniscient Code Generator (Lite mode) build 49521"
  4494                           
  4495  0019C2                     l721:
  4496                           opt subtitle "HI-TECH Software Omniscient Code Generator (Lite mode) build 49521"
  4497                           
  4498  0019C2                     l1816:
  4499                           opt subtitle "HI-TECH Software Omniscient Code Generator (Lite mode) build 49521"
  4500  0019C2  AE15               	btfss	((c:___lwdiv@divisor+1)),c,(15)&7
  4501  0019C4  D001               	goto	u1061
  4502  0019C6  D001               	goto	u1060
  4503  0019C8                     u1061:
  4504  0019C8  D7F7               	goto	l1814
  4505  0019CA                     u1060:
  4506  0019CA  D001               	goto	l1818
  4507                           opt subtitle "HI-TECH Software Omniscient Code Generator (Lite mode) build 49521"
  4508  0019CC                     l723:
  4509  0019CC  D000               	goto	l1818
  4510                           opt subtitle "HI-TECH Software Omniscient Code Generator (Lite mode) build 49521"
  4511                           
  4512  0019CE                     l724:
  4513                           opt subtitle "HI-TECH Software Omniscient Code Generator (Lite mode) build 49521"
  4514                           
  4515  0019CE                     l1818:
  4516  0019CE  90D8               	bcf	status,0
  4517  0019D0  3618               	rlcf	((c:___lwdiv@quotient)),c
  4518  0019D2  3619               	rlcf	((c:___lwdiv@quotient+1)),c
  4519                           opt subtitle "HI-TECH Software Omniscient Code Generator (Lite mode) build 49521"
  4520                           
  4521  0019D4                     l1820:
  4522  0019D4  5014               	movf	((c:___lwdiv@divisor)),c,w
  4523  0019D6  5C12               	subwf	((c:___lwdiv@dividend)),c,w
  4524  0019D8  5015               	movf	((c:___lwdiv@divisor+1)),c,w
  4525  0019DA  5813               	subwfb	((c:___lwdiv@dividend+1)),c,w
  4526  0019DC  A0D8               	btfss	status,0
  4527  0019DE  D001               	goto	u1071
  4528  0019E0  D001               	goto	u1070
  4529  0019E2                     u1071:
  4530  0019E2  D006               	goto	l1826
  4531  0019E4                     u1070:
  4532                           opt subtitle "HI-TECH Software Omniscient Code Generator (Lite mode) build 49521"
  4533                           
  4534  0019E4                     l1822:
  4535  0019E4  5014               	movf	((c:___lwdiv@divisor)),c,w
  4536  0019E6  5E12               	subwf	((c:___lwdiv@dividend)),c
  4537  0019E8  5015               	movf	((c:___lwdiv@divisor+1)),c,w
  4538  0019EA  5A13               	subwfb	((c:___lwdiv@dividend+1)),c
  4539                           opt subtitle "HI-TECH Software Omniscient Code Generator (Lite mode) build 49521"
  4540                           
  4541                           opt pagewidth 120
  4542  0019EC                     l1824:
  4543  0019EC  8018               	bsf	(0+(0/8)+(c:___lwdiv@quotient)),c,(0)&7
  4544  0019EE  D000               	goto	l1826
  4545                           opt subtitle "HI-TECH Software Omniscient Code Generator (Lite mode) build 49521"
  4546                           
  4547  0019F0                     l725:
  4548                           opt subtitle "HI-TECH Software Omniscient Code Generator (Lite mode) build 49521"
  4549                           
  4550  0019F0                     l1826:
  4551  0019F0  90D8               	bcf	status,0
  4552  0019F2  3215               	rrcf	((c:___lwdiv@divisor+1)),c
  4553  0019F4  3214               	rrcf	((c:___lwdiv@divisor)),c
  4554                           opt subtitle "HI-TECH Software Omniscient Code Generator (Lite mode) build 49521"
  4555                           
  4556  0019F6                     l1828:
  4557  0019F6  2E17               	decfsz	((c:___lwdiv@counter)),c
  4558                           opt subtitle "HI-TECH Software Omniscient Code Generator (Lite mode) build 49521"
  4559  0019F8  D7EA               	goto	l1818
  4560  0019FA  D000               	goto	l720
  4561                           opt subtitle "HI-TECH Software Omniscient Code Generator (Lite mode) build 49521"
  4562  0019FC                     l726:
  4563                           opt subtitle "HI-TECH Software Omniscient Code Generator (Lite mode) build 49521"
  4564                           
  4565  0019FC                     l720:
  4566                           opt subtitle "HI-TECH Software Omniscient Code Generator (Lite mode) build 49521"
  4567  0019FC  C018  F012         	movff	(c:___lwdiv@quotient),(c:?___lwdiv)
  4568  001A00  C019  F013         	movff	(c:___lwdiv@quotient+1),(c:?___lwdiv+1)
  4569                           opt subtitle "HI-TECH Software Omniscient Code Generator (Lite mode) build 49521"
  4570                           
  4571  001A04                     l727:
  4572  001A04  0012               	return
  4573                           opt subtitle "HI-TECH Software Omniscient Code Generator (Lite mode) build 49521"
  4574                           
  4575  001A06                     	__end_of___lwdiv:
  4576                           opt subtitle "HI-TECH Software Omniscient Code Generator (Lite mode) build 49521"
  4577                           
  4578                           opt pagewidth 120
  4579                           
  4580                           	opt lm
  4581                           
  4582                           	processor	18F8622
  4583                           porta	equ	0F80h
  4584                           portb	equ	0F81h
  4585                           portc	equ	0F82h
  4586                           portd	equ	0F83h
  4587                           porte	equ	0F84h
  4588                           lata	equ	0F89h
  4589                           latb	equ	0F8Ah
  4590                           latc	equ	0F8Bh
  4591                           latd	equ	0F8Ch
  4592                           late	equ	0F8Dh
  4593                           trisa	equ	0F92h
  4594                           trisb	equ	0F93h
  4595                           trisc	equ	0F94h
  4596                           trisd	equ	0F95h
  4597                           trise	equ	0F96h
  4598                           pie1	equ	0F9Dh
  4599                           pir1	equ	0F9Eh
  4600                           ipr1	equ	0F9Fh
  4601                           pie2	equ	0FA0h
  4602                           pir2	equ	0FA1h
  4603                           ipr2	equ	0FA2h
  4604                           t3con	equ	0FB1h
  4605                           tmr3l	equ	0FB2h
  4606                           tmr3h	equ	0FB3h
  4607                           ccp1con	equ	0FBDh
  4608                           ccpr1l	equ	0FBEh
  4609                           ccpr1h	equ	0FBFh
  4610                           adcon1	equ	0FC1h
  4611  001A6A                     __ptext12:
  4612                           opt subtitle "HI-TECH Software Omniscient Code Generator (Lite mode) build 49521"
  4613                           
  4614                           opt pagewidth 120
  4615                           
  4616  0000                     	__size_of___lwmod	equ	__end_of___lwmod-___lwmod
  4617                           opt subtitle "HI-TECH Software Omniscient Code Generator (Lite mode) build 49521"
  4618  001A6A                     ___lwmod:
  4619                           opt subtitle "HI-TECH Software Omniscient Code Generator (Lite mode) build 49521"
  4620                           
  4621                           opt pagewidth 120
  4622  001A6A                     l1830:
  4623  001A6A  501D               	movf	((c:___lwmod@divisor+1)),c,w
  4624  001A6C  101C               	iorwf ((c:___lwmod@divisor)),c,w
  4625                           opt subtitle "HI-TECH Software Omniscient Code Generator (Lite mode) build 49521"
  4626  001A6E  B4D8               	btfsc	status,2
  4627  001A70  D001               	goto	u1081
  4628  001A72  D001               	goto	u1080
  4629  001A74                     u1081:
  4630  001A74  D023               	goto	l730
  4631  001A76                     u1080:
  4632                           opt subtitle "HI-TECH Software Omniscient Code Generator (Lite mode) build 49521"
  4633                           
  4634  001A76                     l1832:
  4635  001A76  6E1E               	movwf	(??___lwmod+0+0)&0ffh,c
  4636  001A78  0E01               	movlw	low(01h)
  4637  001A7A  6E1F               	movwf	((c:___lwmod@counter)),c
  4638  001A7C  501E               	movf	(??___lwmod+0+0)&0ffh,c,w
  4639                           opt subtitle "HI-TECH Software Omniscient Code Generator (Lite mode) build 49521"
  4640  001A7E  D005               	goto	l1836
  4641                           opt subtitle "HI-TECH Software Omniscient Code Generator (Lite mode) build 49521"
  4642  001A80                     l732:
  4643                           opt subtitle "HI-TECH Software Omniscient Code Generator (Lite mode) build 49521"
  4644                           
  4645  001A80                     l1834:
  4646  001A80  90D8               	bcf	status,0
  4647  001A82  361C               	rlcf	((c:___lwmod@divisor)),c
  4648  001A84  361D               	rlcf	((c:___lwmod@divisor+1)),c
  4649                           opt subtitle "HI-TECH Software Omniscient Code Generator (Lite mode) build 49521"
  4650  001A86  2A1F               	incf	((c:___lwmod@counter)),c
  4651  001A88  D000               	goto	l1836
  4652                           opt subtitle "HI-TECH Software Omniscient Code Generator (Lite mode) build 49521"
  4653                           
  4654  001A8A                     l731:
  4655                           opt subtitle "HI-TECH Software Omniscient Code Generator (Lite mode) build 49521"
  4656                           
  4657  001A8A                     l1836:
  4658                           opt subtitle "HI-TECH Software Omniscient Code Generator (Lite mode) build 49521"
  4659  001A8A  AE1D               	btfss	((c:___lwmod@divisor+1)),c,(15)&7
  4660  001A8C  D001               	goto	u1091
  4661  001A8E  D001               	goto	u1090
  4662  001A90                     u1091:
  4663  001A90  D7F7               	goto	l1834
  4664  001A92                     u1090:
  4665  001A92  D001               	goto	l1838
  4666                           opt subtitle "HI-TECH Software Omniscient Code Generator (Lite mode) build 49521"
  4667  001A94                     l733:
  4668  001A94  D000               	goto	l1838
  4669                           opt subtitle "HI-TECH Software Omniscient Code Generator (Lite mode) build 49521"
  4670                           
  4671  001A96                     l734:
  4672                           opt subtitle "HI-TECH Software Omniscient Code Generator (Lite mode) build 49521"
  4673                           
  4674  001A96                     l1838:
  4675  001A96  501C               	movf	((c:___lwmod@divisor)),c,w
  4676  001A98  5C1A               	subwf	((c:___lwmod@dividend)),c,w
  4677  001A9A  501D               	movf	((c:___lwmod@divisor+1)),c,w
  4678  001A9C  581B               	subwfb	((c:___lwmod@dividend+1)),c,w
  4679  001A9E  A0D8               	btfss	status,0
  4680  001AA0  D001               	goto	u1101
  4681  001AA2  D001               	goto	u1100
  4682  001AA4                     u1101:
  4683  001AA4  D005               	goto	l1842
  4684  001AA6                     u1100:
  4685                           opt subtitle "HI-TECH Software Omniscient Code Generator (Lite mode) build 49521"
  4686                           
  4687  001AA6                     l1840:
  4688  001AA6  501C               	movf	((c:___lwmod@divisor)),c,w
  4689  001AA8  5E1A               	subwf	((c:___lwmod@dividend)),c
  4690  001AAA  501D               	movf	((c:___lwmod@divisor+1)),c,w
  4691  001AAC  5A1B               	subwfb	((c:___lwmod@dividend+1)),c
  4692                           opt subtitle "HI-TECH Software Omniscient Code Generator (Lite mode) build 49521"
  4693  001AAE  D000               	goto	l1842
  4694                           opt subtitle "HI-TECH Software Omniscient Code Generator (Lite mode) build 49521"
  4695  001AB0                     l735:
  4696                           opt subtitle "HI-TECH Software Omniscient Code Generator (Lite mode) build 49521"
  4697                           
  4698  001AB0                     l1842:
  4699  001AB0  90D8               	bcf	status,0
  4700  001AB2  321D               	rrcf	((c:___lwmod@divisor+1)),c
  4701  001AB4  321C               	rrcf	((c:___lwmod@divisor)),c
  4702                           opt subtitle "HI-TECH Software Omniscient Code Generator (Lite mode) build 49521"
  4703                           
  4704  001AB6                     l1844:
  4705  001AB6  2E1F               	decfsz	((c:___lwmod@counter)),c
  4706                           opt subtitle "HI-TECH Software Omniscient Code Generator (Lite mode) build 49521"
  4707  001AB8  D7EE               	goto	l1838
  4708  001ABA  D000               	goto	l730
  4709                           opt subtitle "HI-TECH Software Omniscient Code Generator (Lite mode) build 49521"
  4710  001ABC                     l736:
  4711                           opt subtitle "HI-TECH Software Omniscient Code Generator (Lite mode) build 49521"
  4712                           
  4713  001ABC                     l730:
  4714                           opt subtitle "HI-TECH Software Omniscient Code Generator (Lite mode) build 49521"
  4715  001ABC  C01A  F01A         	movff	(c:___lwmod@dividend),(c:?___lwmod)
  4716  001AC0  C01B  F01B         	movff	(c:___lwmod@dividend+1),(c:?___lwmod+1)
  4717                           opt subtitle "HI-TECH Software Omniscient Code Generator (Lite mode) build 49521"
  4718                           
  4719  001AC4                     l737:
  4720  001AC4  0012               	return
  4721                           opt subtitle "HI-TECH Software Omniscient Code Generator (Lite mode) build 49521"
  4722                           
  4723  001AC6                     	__end_of___lwmod:
  4724                           opt subtitle "HI-TECH Software Omniscient Code Generator (Lite mode) build 49521"
  4725                           
  4726                           opt pagewidth 120
  4727                           
  4728                           	opt lm
  4729                           
  4730                           	processor	18F8622
  4731                           porta	equ	0F80h
  4732                           portb	equ	0F81h
  4733                           portc	equ	0F82h
  4734                           portd	equ	0F83h
  4735                           porte	equ	0F84h
  4736                           lata	equ	0F89h
  4737                           latb	equ	0F8Ah
  4738                           latc	equ	0F8Bh
  4739                           latd	equ	0F8Ch
  4740                           late	equ	0F8Dh
  4741                           trisa	equ	0F92h
  4742                           trisb	equ	0F93h
  4743                           trisc	equ	0F94h
  4744                           trisd	equ	0F95h
  4745                           trise	equ	0F96h
  4746                           pie1	equ	0F9Dh
  4747                           pir1	equ	0F9Eh
  4748                           ipr1	equ	0F9Fh
  4749                           pie2	equ	0FA0h
  4750                           pir2	equ	0FA1h
  4751                           ipr2	equ	0FA2h
  4752                           t3con	equ	0FB1h
  4753                           tmr3l	equ	0FB2h
  4754                           tmr3h	equ	0FB3h
  4755                           ccp1con	equ	0FBDh
  4756                           ccpr1l	equ	0FBEh
  4757  000008                     __pintcode:
  4758                           opt subtitle "HI-TECH Software Omniscient Code Generator (Lite mode) build 49521"
  4759                           
  4760                           opt pagewidth 120
  4761                           
  4762  0000                     	__size_of_receiveData	equ	__end_of_receiveData-_receiveData
  4763                           opt subtitle "HI-TECH Software Omniscient Code Generator (Lite mode) build 49521"
  4764  000008                     _receiveData:
  4765                           opt subtitle "HI-TECH Software Omniscient Code Generator (Lite mode) build 49521"
  4766  000008  CFFA F004          	movff	pclat+0,??_receiveData+3
  4767  00000C  CFFB F005          	movff	pclat+1,??_receiveData+4
  4768  000010  CFE9 F006          	movff	fsr0l+0,??_receiveData+5
  4769  000014  CFEA F007          	movff	fsr0h+0,??_receiveData+6
  4770  000018  CFE1 F008          	movff	fsr1l+0,??_receiveData+7
  4771  00001C  CFE2 F009          	movff	fsr1h+0,??_receiveData+8
  4772  000020  CFD9 F00A          	movff	fsr2l+0,??_receiveData+9
  4773  000024  CFDA F00B          	movff	fsr2h+0,??_receiveData+10
  4774  000028  CFF3 F00C          	movff	prodl+0,??_receiveData+11
  4775  00002C  CFF4 F00D          	movff	prodh+0,??_receiveData+12
  4776  000030  CFF6 F00E          	movff	tblptrl+0,??_receiveData+13
  4777  000034  CFF7 F00F          	movff	tblptrh+0,??_receiveData+14
  4778  000038  CFF8 F010          	movff	tblptru+0,??_receiveData+15
  4779  00003C  CFF5 F011          	movff	tablat+0,??_receiveData+16
  4780                           opt subtitle "HI-TECH Software Omniscient Code Generator (Lite mode) build 49521"
  4781                           
  4782  000040                     i2l1460:
  4783                           opt subtitle "HI-TECH Software Omniscient Code Generator (Lite mode) build 49521"
  4784                           
  4785  000040  A69E               	btfss	((c:3998)),c,3	;volatile
  4786  000042  D001               	goto	i2u68_41
  4787  000044  D001               	goto	i2u68_40
  4788  000046                     i2u68_41:
  4789  000046  D038               	goto	i2l175
  4790  000048                     i2u68_40:
  4791                           opt subtitle "HI-TECH Software Omniscient Code Generator (Lite mode) build 49521"
  4792                           
  4793  000048                     i2l1462:
  4794                           opt subtitle "HI-TECH Software Omniscient Code Generator (Lite mode) build 49521"
  4795                           
  4796  000048  4A45               	infsnz	((c:_transmissoes)),c
  4797  00004A  2A46               	incf	((c:_transmissoes+1)),c
  4798                           opt subtitle "HI-TECH Software Omniscient Code Generator (Lite mode) build 49521"
  4799                           
  4800  00004C                     i2l1464:
  4801                           opt subtitle "HI-TECH Software Omniscient Code Generator (Lite mode) build 49521"
  4802  00004C  8281               	bsf	((c:3969)),c,1	;volatile
  4803                           opt subtitle "HI-TECH Software Omniscient Code Generator (Lite mode) build 49521"
  4804                           
  4805  00004E                     i2l1466:
  4806                           opt subtitle "HI-TECH Software Omniscient Code Generator (Lite mode) build 49521"
  4807  00004E  CFC9 F047          	movff	(c:4041),(c:_nBytes_SPI)	;volatile
  4808                           opt subtitle "HI-TECH Software Omniscient Code Generator (Lite mode) build 49521"
  4809                           
  4810  000052                     i2l1468:
  4811                           opt subtitle "HI-TECH Software Omniscient Code Generator (Lite mode) build 49521"
  4812  000052  0E00               	movlw	low(0)
  4813  000054  6EC9               	movwf	((c:4041)),c	;volatile
  4814                           opt subtitle "HI-TECH Software Omniscient Code Generator (Lite mode) build 49521"
  4815                           
  4816  000056  D015               	goto	i2l1476
  4817                           opt subtitle "HI-TECH Software Omniscient Code Generator (Lite mode) build 49521"
  4818  000058                     i2l170:
  4819                           opt subtitle "HI-TECH Software Omniscient Code Generator (Lite mode) build 49521"
  4820                           
  4821                           opt pagewidth 120
  4822  000058  D000               	goto	i2l171
  4823                           opt subtitle "HI-TECH Software Omniscient Code Generator (Lite mode) build 49521"
  4824  00005A                     i2l172:
  4825                           opt subtitle "HI-TECH Software Omniscient Code Generator (Lite mode) build 49521"
  4826  00005A                     i2l171:
  4827                           opt subtitle "HI-TECH Software Omniscient Code Generator (Lite mode) build 49521"
  4828  00005A  A0C7               	btfss	((c:4039)),c,0	;volatile
  4829  00005C  D001               	goto	i2u69_41
  4830  00005E  D001               	goto	i2u69_40
  4831  000060                     i2u69_41:
  4832  000060  D7FC               	goto	i2l171
  4833  000062                     i2u69_40:
  4834  000062  D000               	goto	i2l1470
  4835                           opt subtitle "HI-TECH Software Omniscient Code Generator (Lite mode) build 49521"
  4836  000064                     i2l173:
  4837                           opt subtitle "HI-TECH Software Omniscient Code Generator (Lite mode) build 49521"
  4838                           
  4839  000064                     i2l1470:
  4840                           opt subtitle "HI-TECH Software Omniscient Code Generator (Lite mode) build 49521"
  4841  000064  0100               	movlb	0	; () banked
  4842  000066  0E60               	movlw	low(_SPI_Data)
  4843  000068  2443               	addwf	((c:_i)),c,w
  4844  00006A  6ED9               	movwf	c:fsr2l
  4845  00006C  0100               	movlb	0	; () banked
  4846  00006E  0E00               	movlw	high(_SPI_Data)
  4847  000070  2044               	addwfc	((c:_i+1)),c,w
  4848  000072  6EDA               	movwf	1+c:fsr2l
  4849  000074  CFC9 FFDF          	movff	(c:4041),indf2	;volatile
  4850                           opt subtitle "HI-TECH Software Omniscient Code Generator (Lite mode) build 49521"
  4851                           
  4852                           opt pagewidth 120
  4853  000078                     i2l1472:; BSR set to: 0
  4854                           opt subtitle "HI-TECH Software Omniscient Code Generator (Lite mode) build 49521"
  4855                           
  4856  000078  0E00               	movlw	low(0)
  4857  00007A  6EC9               	movwf	((c:4041)),c	;volatile
  4858                           opt subtitle "HI-TECH Software Omniscient Code Generator (Lite mode) build 49521"
  4859                           
  4860  00007C                     i2l1474:; BSR set to: 0
  4861                           opt subtitle "HI-TECH Software Omniscient Code Generator (Lite mode) build 49521"
  4862                           
  4863  00007C  4A43               	infsnz	((c:_i)),c
  4864  00007E  2A44               	incf	((c:_i+1)),c
  4865  000080  D000               	goto	i2l1476
  4866                           opt subtitle "HI-TECH Software Omniscient Code Generator (Lite mode) build 49521"
  4867                           
  4868  000082                     i2l169:; BSR set to: 0
  4869                           opt subtitle "HI-TECH Software Omniscient Code Generator (Lite mode) build 49521"
  4870                           
  4871                           opt pagewidth 120
  4872  000082                     i2l1476:
  4873  000082  5047               	movf	((c:_nBytes_SPI)),c,w
  4874  000084  6E01               	movwf	(??_receiveData+0+0)&0ffh,c
  4875  000086  6A02               	clrf	(??_receiveData+0+0+1)&0ffh,c
  4876                           opt subtitle "HI-TECH Software Omniscient Code Generator (Lite mode) build 49521"
  4877  000088  5044               	movf	((c:_i+1)),c,w
  4878  00008A  0A80               	xorlw	80h
  4879  00008C  6E03               	movwf	(??_receiveData+2+0)&0ffh,c
  4880  00008E  5001               	movf	(??_receiveData+0+0),c,w
  4881  000090  5C43               	subwf	((c:_i)),c,w
  4882  000092  5002               	movf	(??_receiveData+0+1),c,w
  4883  000094  0A80               	xorlw	80h
  4884  000096  5803               	subwfb	(??_receiveData+2+0)&0ffh,c,w
  4885  000098  A0D8               	btfss	status,0
  4886  00009A  D001               	goto	i2u70_41
  4887  00009C  D001               	goto	i2u70_40
  4888  00009E                     i2u70_41:
  4889  00009E  D7DD               	goto	i2l171
  4890  0000A0                     i2u70_40:
  4891  0000A0  D000               	goto	i2l1478
  4892                           opt subtitle "HI-TECH Software Omniscient Code Generator (Lite mode) build 49521"
  4893  0000A2                     i2l174:
  4894                           opt subtitle "HI-TECH Software Omniscient Code Generator (Lite mode) build 49521"
  4895                           
  4896  0000A2                     i2l1478:
  4897                           opt subtitle "HI-TECH Software Omniscient Code Generator (Lite mode) build 49521"
  4898                           
  4899  0000A2  0E00               	movlw	high(0)
  4900  0000A4  6E44               	movwf	((c:_i+1)),c
  4901  0000A6  0E00               	movlw	low(0)
  4902  0000A8  6E43               	movwf	((c:_i)),c
  4903                           opt subtitle "HI-TECH Software Omniscient Code Generator (Lite mode) build 49521"
  4904                           
  4905  0000AA                     i2l1480:
  4906                           opt subtitle "HI-TECH Software Omniscient Code Generator (Lite mode) build 49521"
  4907  0000AA  6E01               	movwf	(??_receiveData+0+0)&0ffh,c
  4908  0000AC  0E01               	movlw	low(01h)
  4909  0000AE  6E42               	movwf	((c:_update_lcd)),c
  4910  0000B0  5001               	movf	(??_receiveData+0+0)&0ffh,c,w
  4911                           opt subtitle "HI-TECH Software Omniscient Code Generator (Lite mode) build 49521"
  4912                           
  4913  0000B2                     i2l1482:
  4914                           opt subtitle "HI-TECH Software Omniscient Code Generator (Lite mode) build 49521"
  4915  0000B2  9281               	bcf	((c:3969)),c,1	;volatile
  4916                           opt subtitle "HI-TECH Software Omniscient Code Generator (Lite mode) build 49521"
  4917                           
  4918  0000B4                     i2l1484:
  4919                           opt subtitle "HI-TECH Software Omniscient Code Generator (Lite mode) build 49521"
  4920  0000B4  969E               	bcf	((c:3998)),c,3	;volatile
  4921  0000B6  D000               	goto	i2l175
  4922                           opt subtitle "HI-TECH Software Omniscient Code Generator (Lite mode) build 49521"
  4923                           
  4924  0000B8                     i2l168:
  4925                           opt subtitle "HI-TECH Software Omniscient Code Generator (Lite mode) build 49521"
  4926                           
  4927  0000B8                     i2l175:
  4928  0000B8  C011  FFF5         	movff	??_receiveData+16,tablat+0
  4929  0000BC  C010  FFF8         	movff	??_receiveData+15,tblptru+0
  4930  0000C0  C00F  FFF7         	movff	??_receiveData+14,tblptrh+0
  4931  0000C4  C00E  FFF6         	movff	??_receiveData+13,tblptrl+0
  4932  0000C8  C00D  FFF4         	movff	??_receiveData+12,prodh+0
  4933  0000CC  C00C  FFF3         	movff	??_receiveData+11,prodl+0
  4934  0000D0  C00B  FFDA         	movff	??_receiveData+10,fsr2h+0
  4935  0000D4  C00A  FFD9         	movff	??_receiveData+9,fsr2l+0
  4936  0000D8  C009  FFE2         	movff	??_receiveData+8,fsr1h+0
  4937  0000DC  C008  FFE1         	movff	??_receiveData+7,fsr1l+0
  4938  0000E0  C007  FFEA         	movff	??_receiveData+6,fsr0h+0
  4939  0000E4  C006  FFE9         	movff	??_receiveData+5,fsr0l+0
  4940  0000E8  C005  FFFB         	movff	??_receiveData+4,pclat+1
  4941  0000EC  C004  FFFA         	movff	??_receiveData+3,pclat+0
  4942  0000F0  0011               	retfie f
  4943                           opt subtitle "HI-TECH Software Omniscient Code Generator (Lite mode) build 49521"
  4944                           
  4945  0000F2                     	__end_of_receiveData:
  4946                           opt subtitle "HI-TECH Software Omniscient Code Generator (Lite mode) build 49521"
  4947                           
  4948  00104C  00                 	db 0	; dummy byte at the end
  4949                           opt subtitle "HI-TECH Software Omniscient Code Generator (Lite mode) build 49521"
  4950                           
  4951                           opt pagewidth 120
  4952  0000                     __activetblptr	EQU	3
  4953                           opt subtitle "HI-TECH Software Omniscient Code Generator (Lite mode) build 49521"
  4954                           
  4955                           opt pagewidth 120
  4956                           
  4957                           	opt lm
  4958                           
  4959  0000                     __Lparam	EQU	__Lrparam
  4960  0000                     __Hparam	EQU	__Hrparam


Data Sizes:
    Strings     58
    Constant    18
    Data        16
    BSS         107
    Persistent  0
    Stack       0

Auto Spaces:
    Space          Size  Autos    Used
    COMRAM           95     50      71
    BANK0           160     11     113
    BANK1           256      0       0
    BANK2           256      0       0
    BANK3           256      0       0
    BANK4           256      0       0
    BANK5           256      0       0
    BANK6           256      0       0
    BANK7           256      0       0
    BANK8           256      0       0
    BANK9           256      0       0
    BANK10          256      0       0
    BANK11          256      0       0
    BANK12          256      0       0
    BANK13          256      0       0
    BANK14          256      0       0
    BANK15           96      0       0

Pointer List with Targets:

    ?___lwmod	unsigned int  size(2) Largest target is 0

    ?___lwdiv	unsigned int  size(2) Largest target is 0

    sprintf@f	PTR const unsigned char  size(2) Largest target is 24
		 -> STR_2(CODE[24]), STR_1(CODE[17]), 

    sprintf@sp	PTR unsigned char  size(2) Largest target is 17
		 -> mensagem_lcd(BANK0[17]), 

    ?_sprintf	int  size(2) Largest target is 0

    sprintf@ap	PTR void [1] size(2) Largest target is 2
		 -> ?_sprintf(COMRAM[2]), 

    S1002$_cp	PTR const unsigned char  size(2) Largest target is 0

    _val._str._cp	PTR const unsigned char  size(2) Largest target is 0

    mostra_lcd_buff@p_char	PTR unsigned char  size(2) Largest target is 17
		 -> mensagem_lcd(BANK0[17]), 


Critical Paths under _main in COMRAM

    _main->_sprintf
    _mostra_lcd_buff->_pos_lcd
    _pos_lcd->_envia_lcd
    _envia_dado->_envia_lcd
    _lcd_start->_ctrl_lcd_cursor
    _limpa_tela->_envia_lcd
    _ctrl_lcd_cursor->_envia_lcd
    _envia_lcd->_tempo_us
    _sprintf->___lwmod
    ___lwmod->___lwdiv

Critical Paths under _receiveData in COMRAM

    None.

Critical Paths under _main in BANK0

    _main->_sprintf

Critical Paths under _receiveData in BANK0

    None.

Critical Paths under _main in BANK1

    None.

Critical Paths under _receiveData in BANK1

    None.

Critical Paths under _main in BANK2

    None.

Critical Paths under _receiveData in BANK2

    None.

Critical Paths under _main in BANK3

    None.

Critical Paths under _receiveData in BANK3

    None.

Critical Paths under _main in BANK4

    None.

Critical Paths under _receiveData in BANK4

    None.

Critical Paths under _main in BANK5

    None.

Critical Paths under _receiveData in BANK5

    None.

Critical Paths under _main in BANK6

    None.

Critical Paths under _receiveData in BANK6

    None.

Critical Paths under _main in BANK7

    None.

Critical Paths under _receiveData in BANK7

    None.

Critical Paths under _main in BANK8

    None.

Critical Paths under _receiveData in BANK8

    None.

Critical Paths under _main in BANK9

    None.

Critical Paths under _receiveData in BANK9

    None.

Critical Paths under _main in BANK10

    None.

Critical Paths under _receiveData in BANK10

    None.

Critical Paths under _main in BANK11

    None.

Critical Paths under _receiveData in BANK11

    None.

Critical Paths under _main in BANK12

    None.

Critical Paths under _receiveData in BANK12

    None.

Critical Paths under _main in BANK13

    None.

Critical Paths under _receiveData in BANK13

    None.

Critical Paths under _main in BANK14

    None.

Critical Paths under _receiveData in BANK14

    None.

Critical Paths under _main in BANK15

    None.

Critical Paths under _receiveData in BANK15

    None.

Call Graph Tables:

 ---------------------------------------------------------------------------------
 (Depth) Function   	        Calls       Base Space   Used Autos Params    Refs
 ---------------------------------------------------------------------------------
 (0) _main                                                 3     3      0    4226
                                             47 COMRAM     3     3      0
                          _lcd_start
                           _OpenSPI1
                            _sprintf
                    _mostra_lcd_buff
 ---------------------------------------------------------------------------------
 (1) _mostra_lcd_buff                                      5     0      5    1003
                                             28 COMRAM     5     0      5
                            _pos_lcd
                         _envia_dado
 ---------------------------------------------------------------------------------
 (2) _pos_lcd                                              3     1      2     534
                                             25 COMRAM     3     1      2
                          _envia_lcd
 ---------------------------------------------------------------------------------
 (2) _envia_dado                                           2     1      1     380
                                             25 COMRAM     2     1      1
                          _envia_lcd
 ---------------------------------------------------------------------------------
 (1) _lcd_start                                            8     8      0    1604
                                             32 COMRAM     8     8      0
                           _tempo_us
                          _envia_lcd
                         _limpa_tela
                    _ctrl_lcd_cursor
 ---------------------------------------------------------------------------------
 (2) _limpa_tela                                           2     2      0     358
                                             25 COMRAM     2     2      0
                          _envia_lcd
 ---------------------------------------------------------------------------------
 (2) _ctrl_lcd_cursor                                      7     6      1     404
                                             25 COMRAM     7     6      1
                          _envia_lcd
 ---------------------------------------------------------------------------------
 (3) _envia_lcd                                            6     2      4     358
                                             19 COMRAM     6     2      4
                           _tempo_us
 ---------------------------------------------------------------------------------
 (4) _tempo_us                                             2     0      2     138
                                             17 COMRAM     2     0      2
 ---------------------------------------------------------------------------------
 (1) _OpenSPI1                                             3     0      3      88
                                             17 COMRAM     3     0      3
 ---------------------------------------------------------------------------------
 (1) _sprintf                                             27    13     14    1531
                                             31 COMRAM    16     2     14
                                              0 BANK0     11    11      0
                            ___lwdiv
                            ___lwmod
 ---------------------------------------------------------------------------------
 (2) ___lwdiv                                              8     4      4     241
                                             17 COMRAM     8     4      4
 ---------------------------------------------------------------------------------
 (2) ___lwmod                                              6     2      4     232
                                             25 COMRAM     6     2      4
                            ___lwdiv (ARG)
 ---------------------------------------------------------------------------------
 Estimated maximum stack depth 4
 ---------------------------------------------------------------------------------
 (Depth) Function   	        Calls       Base Space   Used Autos Params    Refs
 ---------------------------------------------------------------------------------
 (5) _receiveData                                         17    17      0       0
                                              0 COMRAM    17    17      0
 ---------------------------------------------------------------------------------
 Estimated maximum stack depth 5
 ---------------------------------------------------------------------------------

 Call Graph Graphs:

 _main (ROOT)
   _lcd_start
     _tempo_us
     _envia_lcd
       _tempo_us
     _limpa_tela
       _envia_lcd
         _tempo_us
     _ctrl_lcd_cursor
       _envia_lcd
         _tempo_us
   _OpenSPI1
   _sprintf
     ___lwdiv
     ___lwmod
       ___lwdiv (ARG)
   _mostra_lcd_buff
     _pos_lcd
       _envia_lcd
         _tempo_us
     _envia_dado
       _envia_lcd
         _tempo_us

 _receiveData (ROOT)

 Address spaces:
Name               Size   Autos  Total    Cost      Usage
BIGRAM             F5F      0       0      37        0.0%
EEDATA             400      0       0       0        0.0%
BITBANK14          100      0       0      33        0.0%
BANK14             100      0       0      34        0.0%
BITBANK13          100      0       0      30        0.0%
BANK13             100      0       0      31        0.0%
BITBANK12          100      0       0      28        0.0%
BANK12             100      0       0      29        0.0%
BITBANK11          100      0       0      26        0.0%
BANK11             100      0       0      27        0.0%
BITBANK10          100      0       0      24        0.0%
BANK10             100      0       0      25        0.0%
BITBANK9           100      0       0      22        0.0%
BANK9              100      0       0      23        0.0%
BITBANK8           100      0       0      20        0.0%
BANK8              100      0       0      21        0.0%
BITBANK7           100      0       0      18        0.0%
BANK7              100      0       0      19        0.0%
BITBANK6           100      0       0      16        0.0%
BANK6              100      0       0      17        0.0%
BITBANK5           100      0       0      14        0.0%
BANK5              100      0       0      15        0.0%
BITBANK4           100      0       0      12        0.0%
BANK4              100      0       0      13        0.0%
BITBANK3           100      0       0      10        0.0%
BANK3              100      0       0      11        0.0%
BITBANK2           100      0       0       8        0.0%
BANK2              100      0       0       9        0.0%
BITBANK1           100      0       0       6        0.0%
BANK1              100      0       0       7        0.0%
BITBANK0            A0      0       0       4        0.0%
BANK0               A0      B      71       5       70.6%
BITBANK15           60      0       0      35        0.0%
BANK15              60      0       0      36        0.0%
BITCOMRAM           5F      0       0       0        0.0%
COMRAM              5F     32      47       1       74.7%
BITSFR               0      0       0      40        0.0%
SFR                  0      0       0      40        0.0%
STACK                0      0       4       2        0.0%
NULL                 0      0       0       0        0.0%
ABS                  0      0      B8      32        0.0%
DATA                 0      0      BC       3        0.0%
CODE                 0      0       0       0        0.0%


Microchip Technology PIC18 Macro Assembler V1.12 build 49521 
Symbol Table                                                                                   Tue May  7 20:58:34 2013

                         _i 0043                          l80 1750                          l81 1780  
                        l73 1728                          l90 17BE                          l82 1768  
                        l74 1710                          l91 17B0                          l83 1756  
                        l75 16FE                          l92 17D4                          l84 177E  
                        l76 1726                          l93 17FC                          l85 17AC  
                        l77 1752                          l94 17E4                          l86 1794  
                        l78 173A                          l95 17D8                          l87 1784  
                        l79 172C                          l96 17FA                          l88 17AA  
                        l97 17FC                          l89 17D6                 __CFG_BORV$3 000000  
              __CFG_CP0$OFF 000000                __CFG_CP1$OFF 000000                __CFG_CP2$OFF 000000  
              __CFG_CP3$OFF 000000                         l100 18F8                         l200 105E  
                       l201 1082                         l121 1B3C                         l202 10A4  
                       l210 10A0                         l106 1B8E                         l211 113C  
                       l203 1090                         l131 1BA8                         l204 13BE  
                       l220 11DE                         l212 113A                         l124 1920  
                       l140 1B62                         l221 11FE                         l213 1160  
                       l205 1092                         l125 1948                         l141 1B4C  
                       l230 12EE                         l214 125C                         l222 1258  
                       l206 1094                         l150 1496                         l126 1970  
                       l142 1B70                         l231 138E                         l223 1240  
                       l215 1162                         l207 10E8                         l151 1564  
                       l127 1998                         l143 1B70                         l232 13BC  
                       l224 1294                         l216 1182                         l208 1096  
                       l128 1998                         l233 13CC                         l225 137A  
                       l217 11DC                         l209 1098                         l226 129A  
                       l218 11C4                         l250 1A40                         l227 1350  
                       l219 1272                         l251 1A1C                         l228 129C  
                       l252 1A22                         l148 148A                         l180 1620  
                       l229 1366                         l253 1A26                         l149 1412  
                       l181 1628                         l254 1A52                         l182 16F2  
                       l255 1A42                         l183 16F4                         l256 1A62  
                       l248 1A2A                         l184 16F6                         l257 1A48  
                       l249 1A18                         l185 16F6                         l258 1A4C  
                       l178 160A                         l259 1A68                         l179 15F0  
                       l199 1390                         l720 19FC                         l721 19C2  
                       l730 1ABC                         l722 19B8                         l731 1A8A  
                       l723 19CC                         l732 1A80                         l724 19CE  
                       l733 1A94                         l725 19F0                         l734 1A96  
                       l726 19FC                         l735 1AB0                         l727 1A04  
                       l736 1ABC                         l737 1AC4                __CFG_CPB$OFF 000000  
                       u500 17D2                         u501 17D0                         u510 17F8  
                       u511 17F6                         u600 1954                         u601 1952  
                       u610 197C                __CFG_CPD$OFF 000000                         u611 197A  
                       u460 1724                         u461 1722                         u525 1806  
                       u470 174E                         u526 1808                         u630 1B6E  
                       u471 174C                         u535 1810                         u631 1B6C  
                       u480 177C                         u481 177A                         u545 1826  
                       u641 13D8                         u490 17A8                         u491 17A6  
                       u555 1846                         u571 1B0C                         u660 1494  
                       u580 1904                         u565 18DA                         u661 1492  
                       u581 1902                         u566 18DC                         u590 192C  
                       u910 161E                         u655 146A                         u591 192A  
                       u911 161C                         u656 146C                         u920 1632  
                       u921 1630                         u930 106E                         u931 106C  
                       u675 14EE                         u940 10F4                         u676 14F0  
                       u941 10F2                         u950 1122                         u951 1120  
                       u960 117E                         u961 117C                         u970 11C0  
                       u971 11BE                         u980 11DA                         u981 11D8  
                       u990 11FA                         u991 11F8                         prod 000FF3  
                       wreg 000FE8  mostra_lcd_buff@buffer_size 0021                __CFG_MODE$MC 000000  
              __CFG_LVP$OFF 000000                __CFG_WDT$OFF 000000                        l1300 16FE  
                      l1310 172C                        l1302 1706                        l1320 1782  
                      l1312 1734                        l1304 1708                        l1400 1B3E  
                      l1330 17BE                        l1322 178C                        l1314 1754  
                      l1306 170A                        l1410 13E0                        l1402 1B4C  
                      l1332 17DC                        l1324 1794                        l1316 1760  
                      l1308 172A                        l1340 1872                        l1420 1402  
                      l1412 13E8                        l1404 1B5C                        l1326 17AE  
                      l1318 1768                        l1334 17E4                        l1350 18BC  
                      l1342 1874                        l1430 146E                        l1422 1404  
                      l1414 13F0                        l1406 1B62                        l1328 17B6  
                      l1352 18D2                        l1344 1880                        l1336 17FE  
                      l1360 1B72                        l1440 14E6                        l1432 147A  
                      l1424 1412                        l1416 13F8                        l1408 13CE  
                      l1530 1A12                        l1354 18DC                        l1346 1882  
                      l1338 1808                        l1370 1B02                        l1450 150C  
                      l1442 14F0                        l1434 147C                        l1426 1462  
                      l1418 1400                        l1540 1A66                        l1532 1A28  
                      l1524 1A06                        l1356 18EA                        l1348 18A0  
                      l1372 1B14                        l1452 1524                        l1444 14F2  
                      l1436 1488                        l1428 146C                        l1380 192C  
                      l1700 15F0                        l1534 1A2A                        l1526 1A0A  
                      l1454 153C                        l1446 14FE                        l1438 1496  
                      l1390 1B90                        l1382 1948                        l1374 18FA  
                      l1710 1658                        l1702 1604                        l1800 137A  
                      l1720 106E                        l1536 1A50                        l1528 1A0E  
                      l1296 16FA                        l1456 1554                        l1448 1500  
                      l1384 1954                        l1376 1904                        l1712 1680  
                      l1704 160A                        l1810 19A2                        l1730 10A4  
                      l1722 107C                        l1802 1390                        l1538 1A52  
                      l1298 16FC                        l1458 1558                        l1386 1970  
                      l1378 1920                        l1714 16E8                        l1706 1620  
                      l1820 19D4                        l1812 19AE                        l1740 112A  
                      l1732 10F4                        l1804 13BE                        l1724 1082  
                      l1716 104E                        l1388 197C                        l1708 1632  
                      l1830 1A6A                        l1822 19E4                        l1814 19B8  
                      l1806 13CC                        l1750 1180                        l1734 1108  
                      l1742 113C                        l1726 1098                        l1718 105E  
                      l1840 1AA6                        l1832 1A76                        l1824 19EC  
                      l1816 19C2                        l1808 199A                        l1760 11DE  
                      l1752 1182                        l1744 1150                        l1736 1116  
                      l1728 10A2                        l1680 157C                        l1842 1AB0  
                      l1834 1A80                        l1826 19F0                        l1818 19CE  
                      l1770 1240                        l1762 11EA                        l1754 11C2  
                      l1746 1162                        l1738 1122                        l1690 15CA  
                      l1682 15C0                        l1844 1AB6                        l1836 1A8A  
                      l1828 19F6                        l1780 1282                        l1772 1246  
                      l1764 11FC                        l1756 11C4                        l1748 116E  
                      l1692 15CC                        l1684 15C2                        l1838 1A96  
                      l1790 132A                        l1782 128E                        l1774 125A  
                      l1766 11FE                        l1758 11CA                        l1694 15E8  
                      l1686 15C4                        l1678 1566                        l1792 134E  
                      l1784 1294                        l1768 123E                        l1776 125C  
                      l1696 15EA                        l1688 15C6                        l1786 129C  
                      l1794 1350                        l1778 1272                        l1698 15EC  
                      l1788 12EE                        l1796 1366                        l1798 1374  
                      STR_1 103B                        STR_2 1012                        STR_3 102A  
                      u1000 123C                        u1001 123A                        u1010 1256  
                      u1011 1254                        u1100 1AA6                        u1020 1282  
                      u1101 1AA4                        u1021 1280                        u1030 138C  
                      u1031 138A                        u1040 13BA                        u1041 13B8  
                      u1050 19AE                        u1051 19AC                        u1060 19CA  
                      u1061 19C8                        u1117 1700                        u1070 19E4  
                      u1071 19E2                        u1127 172E                        u1080 1A76  
                      u1081 1A74                        u1090 1A92                        u1091 1A90  
              _transmissoes 0045                        _main 1566          move_mensagem@F7234 0040  
                      fsr0h 000FEA                        fsr1h 000FE2                        fsr0l 000FE9  
                      fsr2h 000FDA                        fsr1l 000FE1                        indf2 000FDF  
                      fsr2l 000FD9                        pclat 000FFA                        prodh 000FF4  
                      prodl 000FF3                        start 00F2               __CFG_IESO$OFF 000000  
             __CFG_MCLRE$ON 000000           ??_mostra_lcd_buff 0022              envia_dado@dado 001A  
             __CFG_WAIT$OFF 000000                       ?_main 0001             __end_of___lwdiv 1A06  
           __end_of___lwmod 1AC6                       i2l170 0058                       i2l171 005A  
                     i2l172 005A                       i2l173 0064                       i2l174 00A2  
                     i2l175 00B8                       i2l168 00B8                       i2l169 0082  
                     _PORTA 000F80                       _PORTB 000F81                       _PORTC 000F82  
                     _PORTD 000F83                       _PORTE 000F84                       _PORTF 000F85  
                     _PORTG 000F86                       _PORTH 000F87                       _PORTJ 000F88  
                     _TRISA 000F92                       _TRISB 000F93                       _TRISC 000F94  
                     _TRISD 000F95                       _TRISE 000F96                       _TRISF 000F97  
                     _TRISG 000F98                       _TRISH 000F99                       _TRISJ 000F9A  
             __CFG_PWRT$OFF 000000               __CFG_WRT0$OFF 000000               __CFG_WRT1$OFF 000000  
             __CFG_WRT2$OFF 000000               __CFG_WRT3$OFF 000000              __CFG_EBTR0$OFF 000000  
            __CFG_FCMEN$OFF 000000              __CFG_EBTR1$OFF 000000              __CFG_EBTR2$OFF 000000  
            __CFG_EBTR3$OFF 000000               __CFG_WRTB$OFF 000000               __CFG_WRTC$OFF 000000  
            envia_lcd@delay 0016               __CFG_WRTD$OFF 000000              __CFG_EBTRB$OFF 000000  
           __end_of_dpowers 100A              __CFG_BOREN$OFF 000000                       tablat 000FF5  
           __end_of_pos_lcd 199A                       status 000FD8             __end_of_sprintf 13CE  
              ?_receiveData 0001             __initialization 1AC6                __end_of_main 16FA  
          __end_of_OpenSPI1 1A6A                      ??_main 0030               __activetblptr 000003  
           __CFG_BBSIZ$BB2K 000000                      i2l1460 0040                      i2l1470 0064  
                    i2l1462 0048                      i2l1480 00AA                      i2l1472 0078  
                    i2l1464 004C                      i2l1482 00B2                      i2l1474 007C  
                    i2l1466 004E                      i2l1484 00B4                      i2l1476 0082  
                    i2l1468 0052                      i2l1478 00A2              __CFG_XINST$OFF 000000  
          OpenSPI1@bus_mode 0013              __CFG_STVREN$ON 000000                   ??___lwdiv 0016  
                 ??___lwmod 001E                      clear_0 1ACC                __pdataCOMRAM 0033  
          __end_of_tempo_us 17FE                __mediumconst 0000                      tblptrh 000FF7  
                    tblptrl 000FF6                      tblptru 000FF8                   ??_pos_lcd 001C  
                 ??_sprintf 002E                  __accesstop 0060     __end_of__initialization 1AFC  
            __pcstackCOMRAM 0001                  _nBytes_SPI 0047          __size_of_lcd_start 0198  
                __pbssBANK0 0060          __size_of_envia_lcd 00FC             _mostra_lcd_buff 1B3E  
                 ?_OpenSPI1 0012    __size_of_ctrl_lcd_cursor 003C        __size_of_receiveData 00EA  
                   i2u70_40 00A0                     i2u70_41 009E                     i2u68_40 0048  
                   i2u68_41 0046                     i2u69_40 0062                     i2u69_41 0060  
                   _SSP1BUF 000FC9                  ??_OpenSPI1 0015                  _envia_dado 1B90  
                   __Hparam 0000                     __Lparam 0000                   ?_tempo_us 0012  
         __end_of_lcd_start 1566                     ___lwdiv 199A                     ___lwmod 1A6A  
                 _CMCONbits 000FB4                __psmallconst 1000              lcd_start@F7252 0033  
                   __pcinit 1AC6                     __ramtop 1000           __end_of_envia_lcd 18FA  
                   __ptext0 1566                     __ptext1 1B3E                     __ptext2 18FA  
                   __ptext3 1B90                     __ptext4 13CE                     __ptext5 1B72  
                   __ptext6 1B02                     __ptext7 17FE                     __ptext8 16FA  
                   __ptext9 1A06                  _limpa_tela 1B72                   _T0CONbits 000FD5  
         __end_of_hexpowers 1012                     _dpowers 1000                     _pos_lcd 18FA  
   __end_of_mostra_lcd_buff 1B72                     _sprintf 104E        end_of_initialization 1AFC  
         OpenSPI1@smp_phase 0014                  ??_tempo_us 0014         mostra_lcd_buff@line 001D  
                   postdec1 000FE5                     postdec2 000FDD                     postinc0 000FEE  
                   postinc1 000FE6                     postinc2 000FDE           OpenSPI1@sync_mode 0012  
               pos_lcd@line 001A           ??_ctrl_lcd_cursor 001B      ctrl_lcd_cursor@comando 001C  
                 _PORTBbits 000F81                   _PORTDbits 000F83            move_cursor@F7230 003E  
         lcd_start@lcd_conf 0023           lcd_start@contagem 0022                   _TRISCbits 000F94  
                 _TRISFbits 000F97                  _update_lcd 0042                 ?_envia_dado 001A  
             __pidataCOMRAM 1BAA               envia_lcd@byte 0014                 ?_limpa_tela 0001  
       start_initialization 1AC6            ?_mostra_lcd_buff 001D            __CFG_OSC$INTIO67 000000  
         __size_of_OpenSPI1 0064            __CFG_LPT1OSC$OFF 000000                 __pbssCOMRAM 0043  
       __size_of_envia_dado 001A               __pcstackBANK0 00C6         __end_of__stringdata 104C  
               sprintf@_val 00CB                 sprintf@flag 00CA               ??_receiveData 0001  
               sprintf@prec 00C9         __size_of_limpa_tela 001E            ___lwdiv@dividend 0012  
         __CFG_CCP2MX$PORTC 000000                   __pintcode 0008                _mensagem_lcd 00B5  
                  ?___lwdiv 0012                    ?___lwmod 001A           __size_of_tempo_us 0104  
                 _lcd_start 13CE                 __smallconst 1000                   _envia_lcd 17FE  
                  ?_pos_lcd 001A                   _hexpowers 100A            ___lwdiv@quotient 0018  
                  ?_sprintf 0020             _ctrl_lcd_cursor 1B02                    _IPR1bits 000F9F  
                  _PIE1bits 000F9D                    _PIR1bits 000F9E       __CFG_DATABW$DATA16BIT 000000  
          __CFG_WDTPS$32768 000000         __end_of_receiveData 00F2                    _SSP1CON1 000FC6  
                  _SSP1STAT 000FC7                    _SPI_Data 0060                    _SPI_Recv 00A0  
         __CFG_ECCPMX$PORTE 000000                  ?_lcd_start 0001                  _ADCON0bits 000FC2  
                _ADCON1bits 000FC1                 __stringdata 1012                  ?_envia_lcd 0014  
                 copy_data0 1AF0                ??_envia_dado 001B                    _OpenSPI1 1A06  
                  __Hrparam 0000                    __Lrparam 0000           envia_lcd@cmd_data 0015  
          __size_of___lwdiv 006C            __size_of___lwmod 005C                ??_limpa_tela 001A  
                sprintf@idx 00C6          __end_of_envia_dado 1BAA             ___lwdiv@divisor 0014  
           ___lwdiv@counter 0017                    __ptext10 104E                    __ptext11 199A  
                  __ptext12 1A6A                _SSP1CON1bits 000FC6            __size_of_pos_lcd 00A0  
   __end_of_ctrl_lcd_cursor 1B3E            __size_of_sprintf 0380        ctrl_lcd_cursor@F7238 0039  
             __size_of_main 0194                 _receiveData 0008          __end_of_limpa_tela 1B90  
                  _tempo_us 16FA                _SSP1STATbits 000FC7       mostra_lcd_buff@column 001E  
     mostra_lcd_buff@p_char 001F                 ??_lcd_start 0021       __CFG_ADDRBW$ADDR20BIT 000000  
                _INTCONbits 000FF2                 ??_envia_lcd 0018               pos_lcd@column 001B  
                  intlevel2 0000                   sprintf@ap 00C7                   sprintf@sp 0020  
          ___lwmod@dividend 001A    __size_of_mostra_lcd_buff 0034                  _OSCCONbits 000FD3  
             tempo_us@tempo 0012                    sprintf@c 00D0                    sprintf@f 0022  
           ___lwmod@divisor 001C             ___lwmod@counter 001F            ?_ctrl_lcd_cursor 001A  
   ctrl_lcd_cursor@controle 001A  
