

Microchip Technology PIC18 LITE Macro Assembler V1.12 build 49521 
                                                                                               Tue May  7 18:54:19 2013

HI-TECH Software Omniscient Code Generator (Lite mode) build 49521
     1  0000                     opt subtitle "HI-TECH Software Omniscient Code Generator (Lite mode) build 49521"
     2                           opt subtitle "HI-TECH Software Omniscient Code Generator (Lite mode) build 49521"
     3                           
     4                           opt pagewidth 120
     5                           
     6                           	opt lm
     7                           
     8  0000                     porta	equ	0F80h
     9  0000                     portb	equ	0F81h
    10  0000                     portc	equ	0F82h
    11  0000                     portd	equ	0F83h
    12  0000                     porte	equ	0F84h
    13  0000                     lata	equ	0F89h
    14  0000                     latb	equ	0F8Ah
    15  0000                     latc	equ	0F8Bh
    16  0000                     latd	equ	0F8Ch
    17  0000                     late	equ	0F8Dh
    18  0000                     trisa	equ	0F92h
    19  0000                     trisb	equ	0F93h
    20  0000                     trisc	equ	0F94h
    21  0000                     trisd	equ	0F95h
    22  0000                     trise	equ	0F96h
    23  0000                     pie1	equ	0F9Dh
    24  0000                     pir1	equ	0F9Eh
    25  0000                     ipr1	equ	0F9Fh
    26  0000                     pie2	equ	0FA0h
    27  0000                     pir2	equ	0FA1h
    28  0000                     ipr2	equ	0FA2h
    29  0000                     t3con	equ	0FB1h
    30  0000                     tmr3l	equ	0FB2h
    31  0000                     tmr3h	equ	0FB3h
    32  0000                     ccp1con	equ	0FBDh
    33  0000                     ccpr1l	equ	0FBEh
    34  0000                     ccpr1h	equ	0FBFh
    35  0000                     adcon1	equ	0FC1h
    36  0000                     adcon0	equ	0FC2h
    37  0000                     adresl	equ	0FC3h
    38  0000                     adresh	equ	0FC4h
    39  0000                     sspcon2	equ	0FC5h
    40  0000                     sspcon1	equ	0FC6h
    41  0000                     sspstat	equ	0FC7h
    42  0000                     sspadd	equ	0FC8h
    43  0000                     sspbuf	equ	0FC9h
    44  0000                     t2con	equ	0FCAh
    45  0000                     pr2	equ	0FCBh
    46  0000                     tmr2	equ	0FCCh
    47  0000                     t1con	equ	0FCDh
    48  0000                     tmr1l	equ	0FCEh
    49  0000                     tmr1h	equ	0FCFh
    50  0000                     rcon	equ	0FD0h
    51  0000                     wdtcon	equ	0FD1h
    52  0000                     lvdcon	equ	0FD2h
    53  0000                     osccon	equ	0FD3h
    54  0000                     t0con	equ	0FD5h
    55  0000                     tmr0l	equ	0FD6h
    56  0000                     tmr0h	equ	0FD7h
    57  0000                     status	equ	0FD8h
    58  0000                     fsr2	equ	0FD9h
    59  0000                     fsr2l	equ	0FD9h
    60  0000                     fsr2h	equ	0FDAh
    61  0000                     plusw2	equ	0FDBh
    62  0000                     preinc2	equ	0FDCh
    63  0000                     postdec2	equ	0FDDh
    64  0000                     postinc2	equ	0FDEh
    65  0000                     indf2	equ	0FDFh
    66  0000                     bsr	equ	0FE0h
    67  0000                     fsr1	equ	0FE1h
    68  0000                     fsr1l	equ	0FE1h
    69  0000                     fsr1h	equ	0FE2h
    70  0000                     plusw1	equ	0FE3h
    71  0000                     preinc1	equ	0FE4h
    72  0000                     postdec1	equ	0FE5h
    73  0000                     postinc1	equ	0FE6h
    74  0000                     indf1	equ	0FE7h
    75  0000                     wreg	equ	0FE8h
    76  0000                     fsr0	equ	0FE9h
    77  0000                     fsr0l	equ	0FE9h
    78  0000                     fsr0h	equ	0FEAh
    79  0000                     plusw0	equ	0FEBh
    80  0000                     preinc0	equ	0FECh
    81  0000                     postdec0	equ	0FEDh
    82  0000                     postinc0	equ	0FEEh
    83  0000                     indf0	equ	0FEFh
    84  0000                     intcon3	equ	0FF0h
    85  0000                     intcon2	equ	0FF1h
    86  0000                     intcon	equ	0FF2h
    87  0000                     prod	equ	0FF3h
    88  0000                     prodl	equ	0FF3h
    89  0000                     prodh	equ	0FF4h
    90  0000                     tablat	equ	0FF5h
    91  0000                     tblptr	equ	0FF6h
    92  0000                     tblptrl	equ	0FF6h
    93  0000                     tblptrh	equ	0FF7h
    94  0000                     tblptru	equ	0FF8h
    95  0000                     pcl	equ	0FF9h
    96  0000                     pclat	equ	0FFAh
    97  0000                     pclath	equ	0FFAh
    98  0000                     pclatu	equ	0FFBh
    99  0000                     stkptr	equ	0FFCh
   100  0000                     tosl	equ	0FFDh
   101  0000                     tosh	equ	0FFEh
   102  0000                     tosu	equ	0FFFh
   103                           opt subtitle "HI-TECH Software Omniscient Code Generator (Lite mode) build 49521"
   104                           
   105  0000                     	endm
   106                           opt subtitle "HI-TECH Software Omniscient Code Generator (Lite mode) build 49521"
   107                           
   108                           opt pagewidth 120
   109  0000                     SPPDATA equ 0F62h ;# 
   110                           opt subtitle "HI-TECH Software Omniscient Code Generator (Lite mode) build 49521"
   111  0000                     SPPCFG equ 0F63h ;# 
   112                           opt subtitle "HI-TECH Software Omniscient Code Generator (Lite mode) build 49521"
   113  0000                     SPPEPS equ 0F64h ;# 
   114                           opt subtitle "HI-TECH Software Omniscient Code Generator (Lite mode) build 49521"
   115  0000                     SPPCON equ 0F65h ;# 
   116                           opt subtitle "HI-TECH Software Omniscient Code Generator (Lite mode) build 49521"
   117  0000                     UFRM equ 0F66h ;# 
   118                           opt subtitle "HI-TECH Software Omniscient Code Generator (Lite mode) build 49521"
   119  0000                     UFRML equ 0F66h ;# 
   120                           opt subtitle "HI-TECH Software Omniscient Code Generator (Lite mode) build 49521"
   121  0000                     UFRMH equ 0F67h ;# 
   122                           opt subtitle "HI-TECH Software Omniscient Code Generator (Lite mode) build 49521"
   123  0000                     UIR equ 0F68h ;# 
   124                           opt subtitle "HI-TECH Software Omniscient Code Generator (Lite mode) build 49521"
   125  0000                     UIE equ 0F69h ;# 
   126                           opt subtitle "HI-TECH Software Omniscient Code Generator (Lite mode) build 49521"
   127  0000                     UEIR equ 0F6Ah ;# 
   128                           opt subtitle "HI-TECH Software Omniscient Code Generator (Lite mode) build 49521"
   129  0000                     UEIE equ 0F6Bh ;# 
   130                           opt subtitle "HI-TECH Software Omniscient Code Generator (Lite mode) build 49521"
   131  0000                     USTAT equ 0F6Ch ;# 
   132                           opt subtitle "HI-TECH Software Omniscient Code Generator (Lite mode) build 49521"
   133  0000                     UCON equ 0F6Dh ;# 
   134                           opt subtitle "HI-TECH Software Omniscient Code Generator (Lite mode) build 49521"
   135  0000                     UADDR equ 0F6Eh ;# 
   136                           opt subtitle "HI-TECH Software Omniscient Code Generator (Lite mode) build 49521"
   137  0000                     UCFG equ 0F6Fh ;# 
   138                           opt subtitle "HI-TECH Software Omniscient Code Generator (Lite mode) build 49521"
   139  0000                     UEP0 equ 0F70h ;# 
   140                           opt subtitle "HI-TECH Software Omniscient Code Generator (Lite mode) build 49521"
   141  0000                     UEP1 equ 0F71h ;# 
   142                           opt subtitle "HI-TECH Software Omniscient Code Generator (Lite mode) build 49521"
   143  0000                     UEP2 equ 0F72h ;# 
   144                           opt subtitle "HI-TECH Software Omniscient Code Generator (Lite mode) build 49521"
   145  0000                     UEP3 equ 0F73h ;# 
   146                           opt subtitle "HI-TECH Software Omniscient Code Generator (Lite mode) build 49521"
   147  0000                     UEP4 equ 0F74h ;# 
   148                           opt subtitle "HI-TECH Software Omniscient Code Generator (Lite mode) build 49521"
   149  0000                     UEP5 equ 0F75h ;# 
   150                           opt subtitle "HI-TECH Software Omniscient Code Generator (Lite mode) build 49521"
   151  0000                     UEP6 equ 0F76h ;# 
   152                           opt subtitle "HI-TECH Software Omniscient Code Generator (Lite mode) build 49521"
   153  0000                     UEP7 equ 0F77h ;# 
   154                           opt subtitle "HI-TECH Software Omniscient Code Generator (Lite mode) build 49521"
   155  0000                     UEP8 equ 0F78h ;# 
   156                           opt subtitle "HI-TECH Software Omniscient Code Generator (Lite mode) build 49521"
   157  0000                     UEP9 equ 0F79h ;# 
   158                           opt subtitle "HI-TECH Software Omniscient Code Generator (Lite mode) build 49521"
   159  0000                     UEP10 equ 0F7Ah ;# 
   160                           opt subtitle "HI-TECH Software Omniscient Code Generator (Lite mode) build 49521"
   161  0000                     UEP11 equ 0F7Bh ;# 
   162                           opt subtitle "HI-TECH Software Omniscient Code Generator (Lite mode) build 49521"
   163  0000                     UEP12 equ 0F7Ch ;# 
   164                           opt subtitle "HI-TECH Software Omniscient Code Generator (Lite mode) build 49521"
   165  0000                     UEP13 equ 0F7Dh ;# 
   166                           opt subtitle "HI-TECH Software Omniscient Code Generator (Lite mode) build 49521"
   167  0000                     UEP14 equ 0F7Eh ;# 
   168                           opt subtitle "HI-TECH Software Omniscient Code Generator (Lite mode) build 49521"
   169  0000                     UEP15 equ 0F7Fh ;# 
   170                           opt subtitle "HI-TECH Software Omniscient Code Generator (Lite mode) build 49521"
   171  0000                     PORTA equ 0F80h ;# 
   172                           opt subtitle "HI-TECH Software Omniscient Code Generator (Lite mode) build 49521"
   173  0000                     PORTB equ 0F81h ;# 
   174                           opt subtitle "HI-TECH Software Omniscient Code Generator (Lite mode) build 49521"
   175  0000                     PORTC equ 0F82h ;# 
   176                           opt subtitle "HI-TECH Software Omniscient Code Generator (Lite mode) build 49521"
   177  0000                     PORTD equ 0F83h ;# 
   178                           opt subtitle "HI-TECH Software Omniscient Code Generator (Lite mode) build 49521"
   179  0000                     PORTE equ 0F84h ;# 
   180                           opt subtitle "HI-TECH Software Omniscient Code Generator (Lite mode) build 49521"
   181  0000                     LATA equ 0F89h ;# 
   182                           opt subtitle "HI-TECH Software Omniscient Code Generator (Lite mode) build 49521"
   183  0000                     LATB equ 0F8Ah ;# 
   184                           opt subtitle "HI-TECH Software Omniscient Code Generator (Lite mode) build 49521"
   185  0000                     LATC equ 0F8Bh ;# 
   186                           opt subtitle "HI-TECH Software Omniscient Code Generator (Lite mode) build 49521"
   187  0000                     LATD equ 0F8Ch ;# 
   188                           opt subtitle "HI-TECH Software Omniscient Code Generator (Lite mode) build 49521"
   189  0000                     LATE equ 0F8Dh ;# 
   190                           opt subtitle "HI-TECH Software Omniscient Code Generator (Lite mode) build 49521"
   191  0000                     TRISA equ 0F92h ;# 
   192                           opt subtitle "HI-TECH Software Omniscient Code Generator (Lite mode) build 49521"
   193  0000                     DDRA equ 0F92h ;# 
   194                           opt subtitle "HI-TECH Software Omniscient Code Generator (Lite mode) build 49521"
   195  0000                     TRISB equ 0F93h ;# 
   196                           opt subtitle "HI-TECH Software Omniscient Code Generator (Lite mode) build 49521"
   197  0000                     DDRB equ 0F93h ;# 
   198                           opt subtitle "HI-TECH Software Omniscient Code Generator (Lite mode) build 49521"
   199  0000                     TRISC equ 0F94h ;# 
   200                           opt subtitle "HI-TECH Software Omniscient Code Generator (Lite mode) build 49521"
   201  0000                     DDRC equ 0F94h ;# 
   202                           opt subtitle "HI-TECH Software Omniscient Code Generator (Lite mode) build 49521"
   203  0000                     TRISD equ 0F95h ;# 
   204                           opt subtitle "HI-TECH Software Omniscient Code Generator (Lite mode) build 49521"
   205  0000                     DDRD equ 0F95h ;# 
   206                           opt subtitle "HI-TECH Software Omniscient Code Generator (Lite mode) build 49521"
   207  0000                     TRISE equ 0F96h ;# 
   208                           opt subtitle "HI-TECH Software Omniscient Code Generator (Lite mode) build 49521"
   209  0000                     DDRE equ 0F96h ;# 
   210                           opt subtitle "HI-TECH Software Omniscient Code Generator (Lite mode) build 49521"
   211  0000                     OSCTUNE equ 0F9Bh ;# 
   212                           opt subtitle "HI-TECH Software Omniscient Code Generator (Lite mode) build 49521"
   213  0000                     PIE1 equ 0F9Dh ;# 
   214                           opt subtitle "HI-TECH Software Omniscient Code Generator (Lite mode) build 49521"
   215  0000                     PIR1 equ 0F9Eh ;# 
   216                           opt subtitle "HI-TECH Software Omniscient Code Generator (Lite mode) build 49521"
   217  0000                     IPR1 equ 0F9Fh ;# 
   218                           opt subtitle "HI-TECH Software Omniscient Code Generator (Lite mode) build 49521"
   219  0000                     PIE2 equ 0FA0h ;# 
   220                           opt subtitle "HI-TECH Software Omniscient Code Generator (Lite mode) build 49521"
   221  0000                     PIR2 equ 0FA1h ;# 
   222                           opt subtitle "HI-TECH Software Omniscient Code Generator (Lite mode) build 49521"
   223  0000                     IPR2 equ 0FA2h ;# 
   224                           opt subtitle "HI-TECH Software Omniscient Code Generator (Lite mode) build 49521"
   225  0000                     EECON1 equ 0FA6h ;# 
   226                           opt subtitle "HI-TECH Software Omniscient Code Generator (Lite mode) build 49521"
   227  0000                     EECON2 equ 0FA7h ;# 
   228                           opt subtitle "HI-TECH Software Omniscient Code Generator (Lite mode) build 49521"
   229  0000                     EEDATA equ 0FA8h ;# 
   230                           opt subtitle "HI-TECH Software Omniscient Code Generator (Lite mode) build 49521"
   231  0000                     EEADR equ 0FA9h ;# 
   232                           opt subtitle "HI-TECH Software Omniscient Code Generator (Lite mode) build 49521"
   233  0000                     RCSTA equ 0FABh ;# 
   234                           opt subtitle "HI-TECH Software Omniscient Code Generator (Lite mode) build 49521"
   235  0000                     RCSTA1 equ 0FABh ;# 
   236                           opt subtitle "HI-TECH Software Omniscient Code Generator (Lite mode) build 49521"
   237  0000                     TXSTA equ 0FACh ;# 
   238                           opt subtitle "HI-TECH Software Omniscient Code Generator (Lite mode) build 49521"
   239  0000                     TXSTA1 equ 0FACh ;# 
   240                           opt subtitle "HI-TECH Software Omniscient Code Generator (Lite mode) build 49521"
   241  0000                     TXREG equ 0FADh ;# 
   242                           opt subtitle "HI-TECH Software Omniscient Code Generator (Lite mode) build 49521"
   243  0000                     TXREG1 equ 0FADh ;# 
   244                           opt subtitle "HI-TECH Software Omniscient Code Generator (Lite mode) build 49521"
   245  0000                     RCREG equ 0FAEh ;# 
   246                           opt subtitle "HI-TECH Software Omniscient Code Generator (Lite mode) build 49521"
   247  0000                     RCREG1 equ 0FAEh ;# 
   248                           opt subtitle "HI-TECH Software Omniscient Code Generator (Lite mode) build 49521"
   249  0000                     SPBRG equ 0FAFh ;# 
   250                           opt subtitle "HI-TECH Software Omniscient Code Generator (Lite mode) build 49521"
   251  0000                     SPBRG1 equ 0FAFh ;# 
   252                           opt subtitle "HI-TECH Software Omniscient Code Generator (Lite mode) build 49521"
   253  0000                     SPBRGH equ 0FB0h ;# 
   254                           opt subtitle "HI-TECH Software Omniscient Code Generator (Lite mode) build 49521"
   255  0000                     T3CON equ 0FB1h ;# 
   256                           opt subtitle "HI-TECH Software Omniscient Code Generator (Lite mode) build 49521"
   257  0000                     TMR3 equ 0FB2h ;# 
   258                           opt subtitle "HI-TECH Software Omniscient Code Generator (Lite mode) build 49521"
   259  0000                     TMR3L equ 0FB2h ;# 
   260                           opt subtitle "HI-TECH Software Omniscient Code Generator (Lite mode) build 49521"
   261  0000                     TMR3H equ 0FB3h ;# 
   262                           opt subtitle "HI-TECH Software Omniscient Code Generator (Lite mode) build 49521"
   263  0000                     CMCON equ 0FB4h ;# 
   264                           opt subtitle "HI-TECH Software Omniscient Code Generator (Lite mode) build 49521"
   265  0000                     CVRCON equ 0FB5h ;# 
   266                           opt subtitle "HI-TECH Software Omniscient Code Generator (Lite mode) build 49521"
   267  0000                     ECCP1AS equ 0FB6h ;# 
   268                           opt subtitle "HI-TECH Software Omniscient Code Generator (Lite mode) build 49521"
   269  0000                     CCP1AS equ 0FB6h ;# 
   270                           opt subtitle "HI-TECH Software Omniscient Code Generator (Lite mode) build 49521"
   271  0000                     ECCP1DEL equ 0FB7h ;# 
   272                           opt subtitle "HI-TECH Software Omniscient Code Generator (Lite mode) build 49521"
   273  0000                     CCP1DEL equ 0FB7h ;# 
   274                           opt subtitle "HI-TECH Software Omniscient Code Generator (Lite mode) build 49521"
   275  0000                     BAUDCON equ 0FB8h ;# 
   276                           opt subtitle "HI-TECH Software Omniscient Code Generator (Lite mode) build 49521"
   277  0000                     BAUDCTL equ 0FB8h ;# 
   278                           opt subtitle "HI-TECH Software Omniscient Code Generator (Lite mode) build 49521"
   279  0000                     CCP2CON equ 0FBAh ;# 
   280                           opt subtitle "HI-TECH Software Omniscient Code Generator (Lite mode) build 49521"
   281  0000                     CCPR2 equ 0FBBh ;# 
   282                           opt subtitle "HI-TECH Software Omniscient Code Generator (Lite mode) build 49521"
   283  0000                     CCPR2L equ 0FBBh ;# 
   284                           opt subtitle "HI-TECH Software Omniscient Code Generator (Lite mode) build 49521"
   285  0000                     CCPR2H equ 0FBCh ;# 
   286                           opt subtitle "HI-TECH Software Omniscient Code Generator (Lite mode) build 49521"
   287  0000                     CCP1CON equ 0FBDh ;# 
   288                           opt subtitle "HI-TECH Software Omniscient Code Generator (Lite mode) build 49521"
   289  0000                     ECCP1CON equ 0FBDh ;# 
   290                           opt subtitle "HI-TECH Software Omniscient Code Generator (Lite mode) build 49521"
   291  0000                     CCPR1 equ 0FBEh ;# 
   292                           opt subtitle "HI-TECH Software Omniscient Code Generator (Lite mode) build 49521"
   293  0000                     CCPR1L equ 0FBEh ;# 
   294                           opt subtitle "HI-TECH Software Omniscient Code Generator (Lite mode) build 49521"
   295  0000                     CCPR1H equ 0FBFh ;# 
   296                           opt subtitle "HI-TECH Software Omniscient Code Generator (Lite mode) build 49521"
   297  0000                     ADCON2 equ 0FC0h ;# 
   298                           opt subtitle "HI-TECH Software Omniscient Code Generator (Lite mode) build 49521"
   299  0000                     ADCON1 equ 0FC1h ;# 
   300                           opt subtitle "HI-TECH Software Omniscient Code Generator (Lite mode) build 49521"
   301  0000                     ADCON0 equ 0FC2h ;# 
   302                           opt subtitle "HI-TECH Software Omniscient Code Generator (Lite mode) build 49521"
   303  0000                     ADRES equ 0FC3h ;# 
   304                           opt subtitle "HI-TECH Software Omniscient Code Generator (Lite mode) build 49521"
   305  0000                     ADRESL equ 0FC3h ;# 
   306                           opt subtitle "HI-TECH Software Omniscient Code Generator (Lite mode) build 49521"
   307  0000                     ADRESH equ 0FC4h ;# 
   308                           opt subtitle "HI-TECH Software Omniscient Code Generator (Lite mode) build 49521"
   309  0000                     SSPCON2 equ 0FC5h ;# 
   310                           opt subtitle "HI-TECH Software Omniscient Code Generator (Lite mode) build 49521"
   311  0000                     SSPCON1 equ 0FC6h ;# 
   312                           opt subtitle "HI-TECH Software Omniscient Code Generator (Lite mode) build 49521"
   313  0000                     SSPSTAT equ 0FC7h ;# 
   314                           opt subtitle "HI-TECH Software Omniscient Code Generator (Lite mode) build 49521"
   315  0000                     SSPADD equ 0FC8h ;# 
   316                           opt subtitle "HI-TECH Software Omniscient Code Generator (Lite mode) build 49521"
   317  0000                     SSPBUF equ 0FC9h ;# 
   318                           opt subtitle "HI-TECH Software Omniscient Code Generator (Lite mode) build 49521"
   319  0000                     T2CON equ 0FCAh ;# 
   320                           opt subtitle "HI-TECH Software Omniscient Code Generator (Lite mode) build 49521"
   321  0000                     PR2 equ 0FCBh ;# 
   322                           opt subtitle "HI-TECH Software Omniscient Code Generator (Lite mode) build 49521"
   323  0000                     MEMCON equ 0FCBh ;# 
   324                           opt subtitle "HI-TECH Software Omniscient Code Generator (Lite mode) build 49521"
   325  0000                     TMR2 equ 0FCCh ;# 
   326                           opt subtitle "HI-TECH Software Omniscient Code Generator (Lite mode) build 49521"
   327  0000                     T1CON equ 0FCDh ;# 
   328                           opt subtitle "HI-TECH Software Omniscient Code Generator (Lite mode) build 49521"
   329  0000                     TMR1 equ 0FCEh ;# 
   330                           opt subtitle "HI-TECH Software Omniscient Code Generator (Lite mode) build 49521"
   331  0000                     TMR1L equ 0FCEh ;# 
   332                           opt subtitle "HI-TECH Software Omniscient Code Generator (Lite mode) build 49521"
   333  0000                     TMR1H equ 0FCFh ;# 
   334                           opt subtitle "HI-TECH Software Omniscient Code Generator (Lite mode) build 49521"
   335  0000                     RCON equ 0FD0h ;# 
   336                           opt subtitle "HI-TECH Software Omniscient Code Generator (Lite mode) build 49521"
   337  0000                     WDTCON equ 0FD1h ;# 
   338                           opt subtitle "HI-TECH Software Omniscient Code Generator (Lite mode) build 49521"
   339  0000                     HLVDCON equ 0FD2h ;# 
   340                           opt subtitle "HI-TECH Software Omniscient Code Generator (Lite mode) build 49521"
   341  0000                     LVDCON equ 0FD2h ;# 
   342                           opt subtitle "HI-TECH Software Omniscient Code Generator (Lite mode) build 49521"
   343  0000                     OSCCON equ 0FD3h ;# 
   344                           opt subtitle "HI-TECH Software Omniscient Code Generator (Lite mode) build 49521"
   345  0000                     T0CON equ 0FD5h ;# 
   346                           opt subtitle "HI-TECH Software Omniscient Code Generator (Lite mode) build 49521"
   347  0000                     TMR0 equ 0FD6h ;# 
   348                           opt subtitle "HI-TECH Software Omniscient Code Generator (Lite mode) build 49521"
   349  0000                     TMR0L equ 0FD6h ;# 
   350                           opt subtitle "HI-TECH Software Omniscient Code Generator (Lite mode) build 49521"
   351  0000                     TMR0H equ 0FD7h ;# 
   352                           opt subtitle "HI-TECH Software Omniscient Code Generator (Lite mode) build 49521"
   353  0000                     STATUS equ 0FD8h ;# 
   354                           opt subtitle "HI-TECH Software Omniscient Code Generator (Lite mode) build 49521"
   355  0000                     FSR2 equ 0FD9h ;# 
   356                           opt subtitle "HI-TECH Software Omniscient Code Generator (Lite mode) build 49521"
   357  0000                     FSR2L equ 0FD9h ;# 
   358                           opt subtitle "HI-TECH Software Omniscient Code Generator (Lite mode) build 49521"
   359  0000                     FSR2H equ 0FDAh ;# 
   360                           opt subtitle "HI-TECH Software Omniscient Code Generator (Lite mode) build 49521"
   361  0000                     PLUSW2 equ 0FDBh ;# 
   362                           opt subtitle "HI-TECH Software Omniscient Code Generator (Lite mode) build 49521"
   363  0000                     PREINC2 equ 0FDCh ;# 
   364                           opt subtitle "HI-TECH Software Omniscient Code Generator (Lite mode) build 49521"
   365  0000                     POSTDEC2 equ 0FDDh ;# 
   366                           opt subtitle "HI-TECH Software Omniscient Code Generator (Lite mode) build 49521"
   367  0000                     POSTINC2 equ 0FDEh ;# 
   368                           opt subtitle "HI-TECH Software Omniscient Code Generator (Lite mode) build 49521"
   369  0000                     INDF2 equ 0FDFh ;# 
   370                           opt subtitle "HI-TECH Software Omniscient Code Generator (Lite mode) build 49521"
   371  0000                     BSR equ 0FE0h ;# 
   372                           opt subtitle "HI-TECH Software Omniscient Code Generator (Lite mode) build 49521"
   373  0000                     FSR1 equ 0FE1h ;# 
   374                           opt subtitle "HI-TECH Software Omniscient Code Generator (Lite mode) build 49521"
   375  0000                     FSR1L equ 0FE1h ;# 
   376                           opt subtitle "HI-TECH Software Omniscient Code Generator (Lite mode) build 49521"
   377  0000                     FSR1H equ 0FE2h ;# 
   378                           opt subtitle "HI-TECH Software Omniscient Code Generator (Lite mode) build 49521"
   379  0000                     PLUSW1 equ 0FE3h ;# 
   380                           opt subtitle "HI-TECH Software Omniscient Code Generator (Lite mode) build 49521"
   381  0000                     PREINC1 equ 0FE4h ;# 
   382                           opt subtitle "HI-TECH Software Omniscient Code Generator (Lite mode) build 49521"
   383  0000                     POSTDEC1 equ 0FE5h ;# 
   384                           opt subtitle "HI-TECH Software Omniscient Code Generator (Lite mode) build 49521"
   385  0000                     POSTINC1 equ 0FE6h ;# 
   386                           opt subtitle "HI-TECH Software Omniscient Code Generator (Lite mode) build 49521"
   387  0000                     INDF1 equ 0FE7h ;# 
   388                           opt subtitle "HI-TECH Software Omniscient Code Generator (Lite mode) build 49521"
   389  0000                     WREG equ 0FE8h ;# 
   390                           opt subtitle "HI-TECH Software Omniscient Code Generator (Lite mode) build 49521"
   391  0000                     FSR0 equ 0FE9h ;# 
   392                           opt subtitle "HI-TECH Software Omniscient Code Generator (Lite mode) build 49521"
   393  0000                     FSR0L equ 0FE9h ;# 
   394                           opt subtitle "HI-TECH Software Omniscient Code Generator (Lite mode) build 49521"
   395  0000                     FSR0H equ 0FEAh ;# 
   396                           opt subtitle "HI-TECH Software Omniscient Code Generator (Lite mode) build 49521"
   397  0000                     PLUSW0 equ 0FEBh ;# 
   398                           opt subtitle "HI-TECH Software Omniscient Code Generator (Lite mode) build 49521"
   399  0000                     PREINC0 equ 0FECh ;# 
   400                           opt subtitle "HI-TECH Software Omniscient Code Generator (Lite mode) build 49521"
   401  0000                     POSTDEC0 equ 0FEDh ;# 
   402                           opt subtitle "HI-TECH Software Omniscient Code Generator (Lite mode) build 49521"
   403  0000                     POSTINC0 equ 0FEEh ;# 
   404                           opt subtitle "HI-TECH Software Omniscient Code Generator (Lite mode) build 49521"
   405  0000                     INDF0 equ 0FEFh ;# 
   406                           opt subtitle "HI-TECH Software Omniscient Code Generator (Lite mode) build 49521"
   407  0000                     INTCON3 equ 0FF0h ;# 
   408                           opt subtitle "HI-TECH Software Omniscient Code Generator (Lite mode) build 49521"
   409  0000                     INTCON2 equ 0FF1h ;# 
   410                           opt subtitle "HI-TECH Software Omniscient Code Generator (Lite mode) build 49521"
   411  0000                     INTCON equ 0FF2h ;# 
   412                           opt subtitle "HI-TECH Software Omniscient Code Generator (Lite mode) build 49521"
   413  0000                     PROD equ 0FF3h ;# 
   414                           opt subtitle "HI-TECH Software Omniscient Code Generator (Lite mode) build 49521"
   415  0000                     PRODL equ 0FF3h ;# 
   416                           opt subtitle "HI-TECH Software Omniscient Code Generator (Lite mode) build 49521"
   417  0000                     PRODH equ 0FF4h ;# 
   418                           opt subtitle "HI-TECH Software Omniscient Code Generator (Lite mode) build 49521"
   419  0000                     TABLAT equ 0FF5h ;# 
   420                           opt subtitle "HI-TECH Software Omniscient Code Generator (Lite mode) build 49521"
   421  0000                     TBLPTR equ 0FF6h ;# 
   422                           opt subtitle "HI-TECH Software Omniscient Code Generator (Lite mode) build 49521"
   423  0000                     TBLPTRL equ 0FF6h ;# 
   424                           opt subtitle "HI-TECH Software Omniscient Code Generator (Lite mode) build 49521"
   425  0000                     TBLPTRH equ 0FF7h ;# 
   426                           opt subtitle "HI-TECH Software Omniscient Code Generator (Lite mode) build 49521"
   427  0000                     TBLPTRU equ 0FF8h ;# 
   428                           opt subtitle "HI-TECH Software Omniscient Code Generator (Lite mode) build 49521"
   429  0000                     PCLAT equ 0FF9h ;# 
   430                           opt subtitle "HI-TECH Software Omniscient Code Generator (Lite mode) build 49521"
   431  0000                     PC equ 0FF9h ;# 
   432                           opt subtitle "HI-TECH Software Omniscient Code Generator (Lite mode) build 49521"
   433  0000                     PCL equ 0FF9h ;# 
   434                           opt subtitle "HI-TECH Software Omniscient Code Generator (Lite mode) build 49521"
   435  0000                     PCLATH equ 0FFAh ;# 
   436                           opt subtitle "HI-TECH Software Omniscient Code Generator (Lite mode) build 49521"
   437  0000                     PCLATU equ 0FFBh ;# 
   438                           opt subtitle "HI-TECH Software Omniscient Code Generator (Lite mode) build 49521"
   439  0000                     STKPTR equ 0FFCh ;# 
   440                           opt subtitle "HI-TECH Software Omniscient Code Generator (Lite mode) build 49521"
   441  0000                     TOS equ 0FFDh ;# 
   442                           opt subtitle "HI-TECH Software Omniscient Code Generator (Lite mode) build 49521"
   443  0000                     TOSL equ 0FFDh ;# 
   444                           opt subtitle "HI-TECH Software Omniscient Code Generator (Lite mode) build 49521"
   445  0000                     TOSH equ 0FFEh ;# 
   446                           opt subtitle "HI-TECH Software Omniscient Code Generator (Lite mode) build 49521"
   447  0000                     TOSU equ 0FFFh ;# 
   448                           opt subtitle "HI-TECH Software Omniscient Code Generator (Lite mode) build 49521"
   449                           
   450                           opt pagewidth 120
   451                           
   452                           	opt lm
   453                           
   454                           	processor	18F4550
   455                           porta	equ	0F80h
   456                           portb	equ	0F81h
   457                           portc	equ	0F82h
   458                           portd	equ	0F83h
   459                           porte	equ	0F84h
   460                           lata	equ	0F89h
   461                           latb	equ	0F8Ah
   462                           latc	equ	0F8Bh
   463                           latd	equ	0F8Ch
   464                           late	equ	0F8Dh
   465                           trisa	equ	0F92h
   466                           trisb	equ	0F93h
   467                           trisc	equ	0F94h
   468                           trisd	equ	0F95h
   469                           trise	equ	0F96h
   470                           pie1	equ	0F9Dh
   471                           pir1	equ	0F9Eh
   472  000F68                     __pidataCOMRAM:
   473                           opt subtitle "HI-TECH Software Omniscient Code Generator (Lite mode) build 49521"
   474                           
   475                           opt pagewidth 120
   476                           
   477  000F68  03                 	db	low(03h)
   478  000F69  02                 	db	low(02h)
   479  000F6A  00                 	db	low(0)
   480  000F6B  00                 	db	low(0)
   481  000F6C  00                 	db	low(0)
   482  000F6D  00                 	db   0
   483                           opt subtitle "HI-TECH Software Omniscient Code Generator (Lite mode) build 49521"
   484                           
   485                           opt pagewidth 120
   486  000F6E  0C                 	db	low(0Ch)
   487  000F6F  08                 	db	low(08h)
   488  000F70  0F                 	db	low(0Fh)
   489  000F71  0E                 	db	low(0Eh)
   490  000F72  0D                 	db	low(0Dh)
   491                           opt subtitle "HI-TECH Software Omniscient Code Generator (Lite mode) build 49521"
   492                           
   493                           opt pagewidth 120
   494  000F73  14                 	db	low(014h)
   495  000F74  10                 	db	low(010h)
   496                           opt subtitle "HI-TECH Software Omniscient Code Generator (Lite mode) build 49521"
   497                           
   498                           opt pagewidth 120
   499  000F75  1C                 	db	low(01Ch)
   500  000F76  18                 	db	low(018h)
   501                           opt subtitle "HI-TECH Software Omniscient Code Generator (Lite mode) build 49521"
   502                           
   503  0000                     _ADCON1bits	set	0xFC1
   504                           opt subtitle "HI-TECH Software Omniscient Code Generator (Lite mode) build 49521"
   505  0000                     _CMCONbits	set	0xFB4
   506                           opt subtitle "HI-TECH Software Omniscient Code Generator (Lite mode) build 49521"
   507  0000                     _LATAbits	set	0xF89
   508                           opt subtitle "HI-TECH Software Omniscient Code Generator (Lite mode) build 49521"
   509  0000                     _OSCCONbits	set	0xFD3
   510                           opt subtitle "HI-TECH Software Omniscient Code Generator (Lite mode) build 49521"
   511  0000                     _PIR1bits	set	0xF9E
   512                           opt subtitle "HI-TECH Software Omniscient Code Generator (Lite mode) build 49521"
   513  0000                     _PORTA	set	0xF80
   514                           opt subtitle "HI-TECH Software Omniscient Code Generator (Lite mode) build 49521"
   515  0000                     _PORTB	set	0xF81
   516                           opt subtitle "HI-TECH Software Omniscient Code Generator (Lite mode) build 49521"
   517  0000                     _PORTC	set	0xF82
   518                           opt subtitle "HI-TECH Software Omniscient Code Generator (Lite mode) build 49521"
   519  0000                     _PORTD	set	0xF83
   520                           opt subtitle "HI-TECH Software Omniscient Code Generator (Lite mode) build 49521"
   521  0000                     _PORTDbits	set	0xF83
   522                           opt subtitle "HI-TECH Software Omniscient Code Generator (Lite mode) build 49521"
   523  0000                     _PORTE	set	0xF84
   524                           opt subtitle "HI-TECH Software Omniscient Code Generator (Lite mode) build 49521"
   525  0000                     _PORTEbits	set	0xF84
   526                           opt subtitle "HI-TECH Software Omniscient Code Generator (Lite mode) build 49521"
   527  0000                     _SSPBUF	set	0xFC9
   528                           opt subtitle "HI-TECH Software Omniscient Code Generator (Lite mode) build 49521"
   529  0000                     _SSPCON1	set	0xFC6
   530                           opt subtitle "HI-TECH Software Omniscient Code Generator (Lite mode) build 49521"
   531  0000                     _SSPCON1bits	set	0xFC6
   532                           opt subtitle "HI-TECH Software Omniscient Code Generator (Lite mode) build 49521"
   533  0000                     _SSPSTAT	set	0xFC7
   534                           opt subtitle "HI-TECH Software Omniscient Code Generator (Lite mode) build 49521"
   535  0000                     _SSPSTATbits	set	0xFC7
   536                           opt subtitle "HI-TECH Software Omniscient Code Generator (Lite mode) build 49521"
   537  0000                     _TRISA	set	0xF92
   538                           opt subtitle "HI-TECH Software Omniscient Code Generator (Lite mode) build 49521"
   539  0000                     _TRISAbits	set	0xF92
   540                           opt subtitle "HI-TECH Software Omniscient Code Generator (Lite mode) build 49521"
   541  0000                     _TRISB	set	0xF93
   542                           opt subtitle "HI-TECH Software Omniscient Code Generator (Lite mode) build 49521"
   543  0000                     _TRISBbits	set	0xF93
   544                           opt subtitle "HI-TECH Software Omniscient Code Generator (Lite mode) build 49521"
   545  0000                     _TRISC	set	0xF94
   546                           opt subtitle "HI-TECH Software Omniscient Code Generator (Lite mode) build 49521"
   547  0000                     _TRISCbits	set	0xF94
   548                           opt subtitle "HI-TECH Software Omniscient Code Generator (Lite mode) build 49521"
   549  0000                     _TRISD	set	0xF95
   550                           opt subtitle "HI-TECH Software Omniscient Code Generator (Lite mode) build 49521"
   551  0000                     _TRISE	set	0xF96
   552                           opt subtitle "HI-TECH Software Omniscient Code Generator (Lite mode) build 49521"
   553                           
   554  000800                     __psmallconst:
   555                           opt subtitle "HI-TECH Software Omniscient Code Generator (Lite mode) build 49521"
   556  000800                     __stringdata:
   557                           opt subtitle "HI-TECH Software Omniscient Code Generator (Lite mode) build 49521"
   558  000800                     STR_1:
   559  000800  20                 	db	32
   560  000801  20                 	db	32
   561  000802  20                 	db	32
   562  000803  20                 	db	32
   563  000804  42                 	db	66	;'B'
   564  000805  6F                 	db	111	;'o'
   565  000806  6D                 	db	109	;'m'
   566  000807  20                 	db	32
   567  000808  62                 	db	98	;'b'
   568  000809  6F                 	db	111	;'o'
   569  00080A  6D                 	db	109	;'m'
   570  00080B  21                 	db	33
   571  00080C  20                 	db	32
   572  00080D  36                 	db	54	;'6'
   573  00080E  20                 	db	32
   574  00080F  20                 	db	32
   575  000810  00                 	db	0
   576                           opt subtitle "HI-TECH Software Omniscient Code Generator (Lite mode) build 49521"
   577  000811                     __end_of__stringdata:
   578                           opt subtitle "HI-TECH Software Omniscient Code Generator (Lite mode) build 49521"
   579                           
   580  0000                     __CFG_CPUDIV$OSC1_PLL2 equ 0x0
   581                           opt subtitle "HI-TECH Software Omniscient Code Generator (Lite mode) build 49521"
   582  0000                     __CFG_PLLDIV$5 equ 0x0
   583                           opt subtitle "HI-TECH Software Omniscient Code Generator (Lite mode) build 49521"
   584  0000                     __CFG_USBDIV$2 equ 0x0
   585                           opt subtitle "HI-TECH Software Omniscient Code Generator (Lite mode) build 49521"
   586  0000                     __CFG_IESO$ON equ 0x0
   587                           opt subtitle "HI-TECH Software Omniscient Code Generator (Lite mode) build 49521"
   588  0000                     __CFG_FOSC$INTOSC_HS equ 0x0
   589                           opt subtitle "HI-TECH Software Omniscient Code Generator (Lite mode) build 49521"
   590  0000                     __CFG_FCMEN$OFF equ 0x0
   591                           opt subtitle "HI-TECH Software Omniscient Code Generator (Lite mode) build 49521"
   592  0000                     __CFG_VREGEN$ON equ 0x0
   593                           opt subtitle "HI-TECH Software Omniscient Code Generator (Lite mode) build 49521"
   594  0000                     __CFG_BOR$OFF equ 0x0
   595                           opt subtitle "HI-TECH Software Omniscient Code Generator (Lite mode) build 49521"
   596  0000                     __CFG_PWRT$ON equ 0x0
   597                           opt subtitle "HI-TECH Software Omniscient Code Generator (Lite mode) build 49521"
   598  0000                     __CFG_WDT$OFF equ 0x0
   599                           opt subtitle "HI-TECH Software Omniscient Code Generator (Lite mode) build 49521"
   600  0000                     __CFG_PBADEN$OFF equ 0x0
   601                           opt subtitle "HI-TECH Software Omniscient Code Generator (Lite mode) build 49521"
   602  0000                     __CFG_LPT1OSC$OFF equ 0x0
   603                           opt subtitle "HI-TECH Software Omniscient Code Generator (Lite mode) build 49521"
   604  0000                     __CFG_MCLRE$ON equ 0x0
   605                           opt subtitle "HI-TECH Software Omniscient Code Generator (Lite mode) build 49521"
   606  0000                     __CFG_LVP$OFF equ 0x0
   607                           opt subtitle "HI-TECH Software Omniscient Code Generator (Lite mode) build 49521"
   608                           
   609                           opt pagewidth 120
   610                           
   611  000E7A                     __pcinit:
   612                           opt subtitle "HI-TECH Software Omniscient Code Generator (Lite mode) build 49521"
   613  000E7A                     start_initialization:
   614                           opt subtitle "HI-TECH Software Omniscient Code Generator (Lite mode) build 49521"
   615                           
   616  000E7A                     __initialization:
   617                           opt subtitle "HI-TECH Software Omniscient Code Generator (Lite mode) build 49521"
   618                           
   619  00001B                     __pbssCOMRAM:
   620                           opt subtitle "HI-TECH Software Omniscient Code Generator (Lite mode) build 49521"
   621  00001B                     _mensagem_lcd:
   622  00001B                            ds      17
   623                           opt subtitle "HI-TECH Software Omniscient Code Generator (Lite mode) build 49521"
   624                           
   625  00002C                     __pdataCOMRAM:
   626                           opt subtitle "HI-TECH Software Omniscient Code Generator (Lite mode) build 49521"
   627                           
   628  00002C                     lcd_start@F5326:
   629  00002C                            ds      6
   630                           opt subtitle "HI-TECH Software Omniscient Code Generator (Lite mode) build 49521"
   631                           
   632                           opt pagewidth 120
   633  000032                     ctrl_lcd_cursor@F5309:
   634  000032                            ds      5
   635                           opt subtitle "HI-TECH Software Omniscient Code Generator (Lite mode) build 49521"
   636                           
   637                           opt pagewidth 120
   638  000037                     move_cursor@F5301:
   639  000037                            ds      2
   640                           opt subtitle "HI-TECH Software Omniscient Code Generator (Lite mode) build 49521"
   641                           
   642                           opt pagewidth 120
   643  000039                     move_mensagem@F5305:
   644  000039                            ds      2
   645                           opt subtitle "HI-TECH Software Omniscient Code Generator (Lite mode) build 49521"
   646                           
   647                           opt pagewidth 120
   648  000E7A  EE00  F01B         lfsr	0,__pbssCOMRAM
   649  000E7E  0E11               movlw	17
   650  000E80                     clear_0:
   651  000E80  6AEE               clrf	postinc0,c
   652  000E82  06E8               decf	wreg
   653  000E84  E1FD               bnz	clear_0
   654                           opt subtitle "HI-TECH Software Omniscient Code Generator (Lite mode) build 49521"
   655                           
   656                           opt pagewidth 120
   657  000E86  0E68               	movlw	low (__pidataCOMRAM)
   658  000E88  6EF6               	movwf	tblptrl
   659  000E8A  0E0F               	movlw	high(__pidataCOMRAM)
   660  000E8C  6EF7               	movwf	tblptrh
   661  000E8E  0E00               	movlw	low highword(__pidataCOMRAM)
   662  000E90  6EF8               	movwf	tblptru
   663  000E92  EE00  F02C         	lfsr	0,__pdataCOMRAM
   664  000E96  EE10 F00F          	lfsr	1,15
   665  000E9A                     	copy_data0:
   666  000E9A  0009               	tblrd	*+
   667  000E9C  CFF5 FFEE          	movff	tablat, postinc0
   668  000EA0  50E5               	movf	postdec1,w
   669  000EA2  50E1               	movf	fsr1l,w
   670  000EA4  E1FA               	bnz	copy_data0
   671                           opt subtitle "HI-TECH Software Omniscient Code Generator (Lite mode) build 49521"
   672                           
   673                           opt pagewidth 120
   674                           
   675                           	opt lm
   676  000EA6                     end_of_initialization:
   677  000EA6                     __end_of__initialization:	GLOBAL	__Lsmallconst
   678  000EA6  0E00               	movlw	low highword(__Lsmallconst)
   679  000EA8  6EF8               	movwf	tblptru
   680  000EAA  0E08               	movlw	high(__Lsmallconst)
   681  000EAC  6EF7               	movwf	tblptrh
   682  000EAE  0100               movlb 0
   683  000EB0  EFD5  F004         goto _main	;jump to C main() function
   684                           opt subtitle "HI-TECH Software Omniscient Code Generator (Lite mode) build 49521"
   685                           
   686  000001                     __pcstackCOMRAM:
   687                           opt subtitle "HI-TECH Software Omniscient Code Generator (Lite mode) build 49521"
   688  000001                     ?_OpenSPI:	; 0 bytes @ 0x0
   689                           opt subtitle "HI-TECH Software Omniscient Code Generator (Lite mode) build 49521"
   690  000001                     ?_Delay10KTCYx:	; 0 bytes @ 0x0
   691                           opt subtitle "HI-TECH Software Omniscient Code Generator (Lite mode) build 49521"
   692  000001                     ?_tempo_us:	; 0 bytes @ 0x0
   693  000001                     ?_limpa_tela:	; 0 bytes @ 0x0
   694  000001                     ?_lcd_start:	; 0 bytes @ 0x0
   695  000001                     ?_main:	; 0 bytes @ 0x0
   696                           opt subtitle "HI-TECH Software Omniscient Code Generator (Lite mode) build 49521"
   697  000001                     ?_WriteSPI:	; 1 bytes @ 0x0
   698                           opt subtitle "HI-TECH Software Omniscient Code Generator (Lite mode) build 49521"
   699  000001                     ?_sprintf:	; 2 bytes @ 0x0
   700                           opt subtitle "HI-TECH Software Omniscient Code Generator (Lite mode) build 49521"
   701  000001                     OpenSPI@sync_mode:	; 1 bytes @ 0x0
   702                           opt subtitle "HI-TECH Software Omniscient Code Generator (Lite mode) build 49521"
   703  000001                     WriteSPI@data_out:	; 1 bytes @ 0x0
   704                           opt subtitle "HI-TECH Software Omniscient Code Generator (Lite mode) build 49521"
   705  000001                     Delay10KTCYx@unit:	; 1 bytes @ 0x0
   706                           opt subtitle "HI-TECH Software Omniscient Code Generator (Lite mode) build 49521"
   707  000001                     tempo_us@tempo:	; 2 bytes @ 0x0
   708                           opt subtitle "HI-TECH Software Omniscient Code Generator (Lite mode) build 49521"
   709  000001                     sprintf@sp:	; 2 bytes @ 0x0
   710  000001                     	ds   1
   711  000002                     ??_WriteSPI:	; 0 bytes @ 0x1
   712  000002                     ??_Delay10KTCYx:	; 0 bytes @ 0x1
   713                           opt subtitle "HI-TECH Software Omniscient Code Generator (Lite mode) build 49521"
   714  000002                     OpenSPI@bus_mode:	; 1 bytes @ 0x1
   715                           opt subtitle "HI-TECH Software Omniscient Code Generator (Lite mode) build 49521"
   716  000002                     WriteSPI@TempVar:	; 1 bytes @ 0x1
   717  000002                     	ds   1
   718  000003                     ??_tempo_us:	; 0 bytes @ 0x2
   719                           opt subtitle "HI-TECH Software Omniscient Code Generator (Lite mode) build 49521"
   720  000003                     ?_envia_lcd:	; 0 bytes @ 0x2
   721                           opt subtitle "HI-TECH Software Omniscient Code Generator (Lite mode) build 49521"
   722  000003                     envia_lcd@byte:	; 1 bytes @ 0x2
   723                           opt subtitle "HI-TECH Software Omniscient Code Generator (Lite mode) build 49521"
   724  000003                     OpenSPI@smp_phase:	; 1 bytes @ 0x2
   725                           opt subtitle "HI-TECH Software Omniscient Code Generator (Lite mode) build 49521"
   726  000003                     sprintf@f:	; 2 bytes @ 0x2
   727  000003                     	ds   1
   728  000004                     ??_OpenSPI:	; 0 bytes @ 0x3
   729                           opt subtitle "HI-TECH Software Omniscient Code Generator (Lite mode) build 49521"
   730  000004                     envia_lcd@cmd_data:	; 1 bytes @ 0x3
   731  000004                     	ds   1
   732  000005                     ??_sprintf:	; 0 bytes @ 0x4
   733                           opt subtitle "HI-TECH Software Omniscient Code Generator (Lite mode) build 49521"
   734  000005                     envia_lcd@delay:	; 2 bytes @ 0x4
   735                           opt subtitle "HI-TECH Software Omniscient Code Generator (Lite mode) build 49521"
   736  000005                     sprintf@ap:	; 2 bytes @ 0x4
   737  000005                     	ds   2
   738  000007                     ??_envia_lcd:	; 0 bytes @ 0x6
   739                           opt subtitle "HI-TECH Software Omniscient Code Generator (Lite mode) build 49521"
   740  000007                     sprintf@c:	; 1 bytes @ 0x6
   741  000007                     	ds   2
   742  000009                     ??_limpa_tela:	; 0 bytes @ 0x8
   743                           opt subtitle "HI-TECH Software Omniscient Code Generator (Lite mode) build 49521"
   744  000009                     ?_ctrl_lcd_cursor:	; 0 bytes @ 0x8
   745                           opt subtitle "HI-TECH Software Omniscient Code Generator (Lite mode) build 49521"
   746  000009                     ?_pos_lcd:	; 0 bytes @ 0x8
   747                           opt subtitle "HI-TECH Software Omniscient Code Generator (Lite mode) build 49521"
   748  000009                     ?_envia_dado:	; 0 bytes @ 0x8
   749                           opt subtitle "HI-TECH Software Omniscient Code Generator (Lite mode) build 49521"
   750  000009                     ctrl_lcd_cursor@controle:	; 1 bytes @ 0x8
   751                           opt subtitle "HI-TECH Software Omniscient Code Generator (Lite mode) build 49521"
   752  000009                     pos_lcd@line:	; 1 bytes @ 0x8
   753                           opt subtitle "HI-TECH Software Omniscient Code Generator (Lite mode) build 49521"
   754  000009                     envia_dado@dado:	; 1 bytes @ 0x8
   755  000009                     	ds   1
   756  00000A                     ??_ctrl_lcd_cursor:	; 0 bytes @ 0x9
   757  00000A                     ??_envia_dado:	; 0 bytes @ 0x9
   758                           opt subtitle "HI-TECH Software Omniscient Code Generator (Lite mode) build 49521"
   759  00000A                     pos_lcd@column:	; 1 bytes @ 0x9
   760  00000A                     	ds   1
   761  00000B                     ??_pos_lcd:	; 0 bytes @ 0xA
   762                           opt subtitle "HI-TECH Software Omniscient Code Generator (Lite mode) build 49521"
   763  00000B                     ctrl_lcd_cursor@comando:	; 5 bytes @ 0xA
   764  00000B                     	ds   1
   765                           opt subtitle "HI-TECH Software Omniscient Code Generator (Lite mode) build 49521"
   766  00000C                     ?_mostra_lcd_buff:	; 0 bytes @ 0xB
   767                           opt subtitle "HI-TECH Software Omniscient Code Generator (Lite mode) build 49521"
   768  00000C                     mostra_lcd_buff@line:	; 1 bytes @ 0xB
   769  00000C                     	ds   1
   770                           opt subtitle "HI-TECH Software Omniscient Code Generator (Lite mode) build 49521"
   771  00000D                     mostra_lcd_buff@column:	; 1 bytes @ 0xC
   772  00000D                     	ds   1
   773                           opt subtitle "HI-TECH Software Omniscient Code Generator (Lite mode) build 49521"
   774  00000E                     mostra_lcd_buff@p_char:	; 2 bytes @ 0xD
   775  00000E                     	ds   2
   776  000010                     ??_lcd_start:	; 0 bytes @ 0xF
   777                           opt subtitle "HI-TECH Software Omniscient Code Generator (Lite mode) build 49521"
   778  000010                     mostra_lcd_buff@buffer_size:	; 1 bytes @ 0xF
   779  000010                     	ds   1
   780  000011                     ??_mostra_lcd_buff:	; 0 bytes @ 0x10
   781                           opt subtitle "HI-TECH Software Omniscient Code Generator (Lite mode) build 49521"
   782  000011                     lcd_start@contagem:	; 1 bytes @ 0x10
   783  000011                     	ds   1
   784                           opt subtitle "HI-TECH Software Omniscient Code Generator (Lite mode) build 49521"
   785  000012                     lcd_start@lcd_conf:	; 6 bytes @ 0x11
   786  000012                     	ds   6
   787  000018                     ??_main:	; 0 bytes @ 0x17
   788  000018                     	ds   3
   789                           opt subtitle "HI-TECH Software Omniscient Code Generator (Lite mode) build 49521"
   790                           
   791                           opt pagewidth 120
   792                           
   793                           	opt lm
   794                           
   795                           	processor	18F4550
   796                           porta	equ	0F80h
   797                           portb	equ	0F81h
   798                           portc	equ	0F82h
   799                           portd	equ	0F83h
   800                           porte	equ	0F84h
   801                           lata	equ	0F89h
   802                           latb	equ	0F8Ah
   803                           latc	equ	0F8Bh
   804                           latd	equ	0F8Ch
   805                           late	equ	0F8Dh
   806                           trisa	equ	0F92h
   807                           trisb	equ	0F93h
   808                           trisc	equ	0F94h
   809                           trisd	equ	0F95h
   810                           trise	equ	0F96h
   811                           pie1	equ	0F9Dh
   812                           pir1	equ	0F9Eh
   813                           ipr1	equ	0F9Fh
   814                           pie2	equ	0FA0h
   815                           pir2	equ	0FA1h
   816                           ipr2	equ	0FA2h
   817                           t3con	equ	0FB1h
   818                           tmr3l	equ	0FB2h
   819                           tmr3h	equ	0FB3h
   820                           ccp1con	equ	0FBDh
   821                           ccpr1l	equ	0FBEh
   822                           ccpr1h	equ	0FBFh
   823                           adcon1	equ	0FC1h
   824                           adcon0	equ	0FC2h
   825                           adresl	equ	0FC3h
   826                           adresh	equ	0FC4h
   827                           sspcon2	equ	0FC5h
   828                           sspcon1	equ	0FC6h
   829                           sspstat	equ	0FC7h
   830                           sspadd	equ	0FC8h
   831                           sspbuf	equ	0FC9h
   832                           t2con	equ	0FCAh
   833                           pr2	equ	0FCBh
   834                           tmr2	equ	0FCCh
   835                           t1con	equ	0FCDh
   836                           tmr1l	equ	0FCEh
   837                           tmr1h	equ	0FCFh
   838                           rcon	equ	0FD0h
   839                           wdtcon	equ	0FD1h
   840                           lvdcon	equ	0FD2h
   841                           osccon	equ	0FD3h
   842                           t0con	equ	0FD5h
   843                           tmr0l	equ	0FD6h
   844                           tmr0h	equ	0FD7h
   845                           status	equ	0FD8h
   846                           fsr2	equ	0FD9h
   847                           fsr2l	equ	0FD9h
   848                           fsr2h	equ	0FDAh
   849                           plusw2	equ	0FDBh
   850                           preinc2	equ	0FDCh
   851                           postdec2	equ	0FDDh
   852                           postinc2	equ	0FDEh
   853                           indf2	equ	0FDFh
   854                           bsr	equ	0FE0h
   855                           fsr1	equ	0FE1h
   856                           fsr1l	equ	0FE1h
   857                           fsr1h	equ	0FE2h
   858                           plusw1	equ	0FE3h
   859                           preinc1	equ	0FE4h
   860                           postdec1	equ	0FE5h
   861                           postinc1	equ	0FE6h
   862                           indf1	equ	0FE7h
   863                           wreg	equ	0FE8h
   864                           fsr0	equ	0FE9h
   865                           fsr0l	equ	0FE9h
   866                           fsr0h	equ	0FEAh
   867                           plusw0	equ	0FEBh
   868                           preinc0	equ	0FECh
   869                           postdec0	equ	0FEDh
   870                           postinc0	equ	0FEEh
   871                           indf0	equ	0FEFh
   872                           intcon3	equ	0FF0h
   873                           intcon2	equ	0FF1h
   874                           intcon	equ	0FF2h
   875                           prod	equ	0FF3h
   876                           prodl	equ	0FF3h
   877                           prodh	equ	0FF4h
   878                           tablat	equ	0FF5h
   879                           tblptr	equ	0FF6h
   880                           tblptrl	equ	0FF6h
   881                           tblptrh	equ	0FF7h
   882                           tblptru	equ	0FF8h
   883                           pcl	equ	0FF9h
   884                           pclat	equ	0FFAh
   885                           pclath	equ	0FFAh
   886                           pclatu	equ	0FFBh
   887                           stkptr	equ	0FFCh
   888                           tosl	equ	0FFDh
   889                           tosh	equ	0FFEh
   890                           tosu	equ	0FFFh
   891                           skipnz macro
   892                           	btfsc	status,2
   893                           	endm
   894                           	global	__ramtop
   895                           	global	__accesstop
   896                           # 46 "/Applications/microchip/xc8/v1.12/include/pic18f4550.h"
   897                           SPPDATA equ 0F62h ;# 
   898                           # 65 "/Applications/microchip/xc8/v1.12/include/pic18f4550.h"
   899                           SPPCFG equ 0F63h ;# 
   900                           # 141 "/Applications/microchip/xc8/v1.12/include/pic18f4550.h"
   901                           SPPEPS equ 0F64h ;# 
   902                           # 214 "/Applications/microchip/xc8/v1.12/include/pic18f4550.h"
   903                           SPPCON equ 0F65h ;# 
   904                           # 239 "/Applications/microchip/xc8/v1.12/include/pic18f4550.h"
   905                           UFRM equ 0F66h ;# 
   906                           # 245 "/Applications/microchip/xc8/v1.12/include/pic18f4550.h"
   907                           UFRML equ 0F66h ;# 
   908                           # 322 "/Applications/microchip/xc8/v1.12/include/pic18f4550.h"
   909                           UFRMH equ 0F67h ;# 
   910                           # 361 "/Applications/microchip/xc8/v1.12/include/pic18f4550.h"
   911                           UIR equ 0F68h ;# 
   912                           # 416 "/Applications/microchip/xc8/v1.12/include/pic18f4550.h"
   913                           UIE equ 0F69h ;# 
   914                           # 471 "/Applications/microchip/xc8/v1.12/include/pic18f4550.h"
   915                           UEIR equ 0F6Ah ;# 
   916                           # 521 "/Applications/microchip/xc8/v1.12/include/pic18f4550.h"
   917                           UEIE equ 0F6Bh ;# 
   918                           # 571 "/Applications/microchip/xc8/v1.12/include/pic18f4550.h"
   919                           USTAT equ 0F6Ch ;# 
   920                           # 630 "/Applications/microchip/xc8/v1.12/include/pic18f4550.h"
   921                           UCON equ 0F6Dh ;# 
   922                           # 680 "/Applications/microchip/xc8/v1.12/include/pic18f4550.h"
   923                           UADDR equ 0F6Eh ;# 
   924                           # 743 "/Applications/microchip/xc8/v1.12/include/pic18f4550.h"
   925                           UCFG equ 0F6Fh ;# 
   926                           # 824 "/Applications/microchip/xc8/v1.12/include/pic18f4550.h"
   927                           UEP0 equ 0F70h ;# 
   928                           # 955 "/Applications/microchip/xc8/v1.12/include/pic18f4550.h"
   929                           UEP1 equ 0F71h ;# 
   930                           # 1086 "/Applications/microchip/xc8/v1.12/include/pic18f4550.h"
   931                           UEP2 equ 0F72h ;# 
   932                           # 1217 "/Applications/microchip/xc8/v1.12/include/pic18f4550.h"
   933                           UEP3 equ 0F73h ;# 
   934                           # 1348 "/Applications/microchip/xc8/v1.12/include/pic18f4550.h"
   935                           UEP4 equ 0F74h ;# 
   936                           # 1479 "/Applications/microchip/xc8/v1.12/include/pic18f4550.h"
   937                           UEP5 equ 0F75h ;# 
   938                           # 1610 "/Applications/microchip/xc8/v1.12/include/pic18f4550.h"
   939                           UEP6 equ 0F76h ;# 
   940                           # 1741 "/Applications/microchip/xc8/v1.12/include/pic18f4550.h"
   941                           UEP7 equ 0F77h ;# 
   942                           # 1872 "/Applications/microchip/xc8/v1.12/include/pic18f4550.h"
   943                           UEP8 equ 0F78h ;# 
   944                           # 1959 "/Applications/microchip/xc8/v1.12/include/pic18f4550.h"
   945                           UEP9 equ 0F79h ;# 
   946                           # 2046 "/Applications/microchip/xc8/v1.12/include/pic18f4550.h"
   947                           UEP10 equ 0F7Ah ;# 
   948                           # 2133 "/Applications/microchip/xc8/v1.12/include/pic18f4550.h"
   949                           UEP11 equ 0F7Bh ;# 
   950                           # 2220 "/Applications/microchip/xc8/v1.12/include/pic18f4550.h"
   951                           UEP12 equ 0F7Ch ;# 
   952                           # 2307 "/Applications/microchip/xc8/v1.12/include/pic18f4550.h"
   953                           UEP13 equ 0F7Dh ;# 
   954                           # 2394 "/Applications/microchip/xc8/v1.12/include/pic18f4550.h"
   955                           UEP14 equ 0F7Eh ;# 
   956                           # 2481 "/Applications/microchip/xc8/v1.12/include/pic18f4550.h"
   957                           UEP15 equ 0F7Fh ;# 
   958                           # 2568 "/Applications/microchip/xc8/v1.12/include/pic18f4550.h"
   959                           PORTA equ 0F80h ;# 
   960                           # 2724 "/Applications/microchip/xc8/v1.12/include/pic18f4550.h"
   961                           PORTB equ 0F81h ;# 
   962                           # 2833 "/Applications/microchip/xc8/v1.12/include/pic18f4550.h"
   963                           PORTC equ 0F82h ;# 
   964                           # 2986 "/Applications/microchip/xc8/v1.12/include/pic18f4550.h"
   965                           PORTD equ 0F83h ;# 
   966                           # 3106 "/Applications/microchip/xc8/v1.12/include/pic18f4550.h"
   967                           PORTE equ 0F84h ;# 
   968                           # 3357 "/Applications/microchip/xc8/v1.12/include/pic18f4550.h"
   969                           LATA equ 0F89h ;# 
   970                           # 3492 "/Applications/microchip/xc8/v1.12/include/pic18f4550.h"
   971                           LATB equ 0F8Ah ;# 
   972                           # 3624 "/Applications/microchip/xc8/v1.12/include/pic18f4550.h"
   973                           LATC equ 0F8Bh ;# 
   974                           # 3739 "/Applications/microchip/xc8/v1.12/include/pic18f4550.h"
   975                           LATD equ 0F8Ch ;# 
   976                           # 3871 "/Applications/microchip/xc8/v1.12/include/pic18f4550.h"
   977                           LATE equ 0F8Dh ;# 
   978                           # 3973 "/Applications/microchip/xc8/v1.12/include/pic18f4550.h"
   979                           TRISA equ 0F92h ;# 
   980                           # 3978 "/Applications/microchip/xc8/v1.12/include/pic18f4550.h"
   981                           DDRA equ 0F92h ;# 
   982                           # 4170 "/Applications/microchip/xc8/v1.12/include/pic18f4550.h"
   983                           TRISB equ 0F93h ;# 
   984                           # 4175 "/Applications/microchip/xc8/v1.12/include/pic18f4550.h"
   985                           DDRB equ 0F93h ;# 
   986                           # 4391 "/Applications/microchip/xc8/v1.12/include/pic18f4550.h"
   987                           TRISC equ 0F94h ;# 
   988                           # 4396 "/Applications/microchip/xc8/v1.12/include/pic18f4550.h"
   989                           DDRC equ 0F94h ;# 
   990                           # 4562 "/Applications/microchip/xc8/v1.12/include/pic18f4550.h"
   991                           TRISD equ 0F95h ;# 
   992                           # 4567 "/Applications/microchip/xc8/v1.12/include/pic18f4550.h"
   993                           DDRD equ 0F95h ;# 
   994                           # 4783 "/Applications/microchip/xc8/v1.12/include/pic18f4550.h"
   995                           TRISE equ 0F96h ;# 
   996                           # 4788 "/Applications/microchip/xc8/v1.12/include/pic18f4550.h"
   997                           DDRE equ 0F96h ;# 
   998                           # 4884 "/Applications/microchip/xc8/v1.12/include/pic18f4550.h"
   999                           OSCTUNE equ 0F9Bh ;# 
  1000                           # 4942 "/Applications/microchip/xc8/v1.12/include/pic18f4550.h"
  1001                           PIE1 equ 0F9Dh ;# 
  1002                           # 5030 "/Applications/microchip/xc8/v1.12/include/pic18f4550.h"
  1003                           PIR1 equ 0F9Eh ;# 
  1004                           # 5118 "/Applications/microchip/xc8/v1.12/include/pic18f4550.h"
  1005                           IPR1 equ 0F9Fh ;# 
  1006                           # 5206 "/Applications/microchip/xc8/v1.12/include/pic18f4550.h"
  1007                           PIE2 equ 0FA0h ;# 
  1008                           # 5276 "/Applications/microchip/xc8/v1.12/include/pic18f4550.h"
  1009                           PIR2 equ 0FA1h ;# 
  1010                           # 5346 "/Applications/microchip/xc8/v1.12/include/pic18f4550.h"
  1011                           IPR2 equ 0FA2h ;# 
  1012                           # 5416 "/Applications/microchip/xc8/v1.12/include/pic18f4550.h"
  1013                           EECON1 equ 0FA6h ;# 
  1014                           # 5481 "/Applications/microchip/xc8/v1.12/include/pic18f4550.h"
  1015                           EECON2 equ 0FA7h ;# 
  1016                           # 5487 "/Applications/microchip/xc8/v1.12/include/pic18f4550.h"
  1017                           EEDATA equ 0FA8h ;# 
  1018                           # 5493 "/Applications/microchip/xc8/v1.12/include/pic18f4550.h"
  1019                           EEADR equ 0FA9h ;# 
  1020                           # 5499 "/Applications/microchip/xc8/v1.12/include/pic18f4550.h"
  1021                           RCSTA equ 0FABh ;# 
  1022                           # 5504 "/Applications/microchip/xc8/v1.12/include/pic18f4550.h"
  1023                           RCSTA1 equ 0FABh ;# 
  1024                           # 5656 "/Applications/microchip/xc8/v1.12/include/pic18f4550.h"
  1025                           TXSTA equ 0FACh ;# 
  1026                           # 5661 "/Applications/microchip/xc8/v1.12/include/pic18f4550.h"
  1027                           TXSTA1 equ 0FACh ;# 
  1028                           # 5919 "/Applications/microchip/xc8/v1.12/include/pic18f4550.h"
  1029                           TXREG equ 0FADh ;# 
  1030                           # 5924 "/Applications/microchip/xc8/v1.12/include/pic18f4550.h"
  1031                           TXREG1 equ 0FADh ;# 
  1032                           # 5930 "/Applications/microchip/xc8/v1.12/include/pic18f4550.h"
  1033                           RCREG equ 0FAEh ;# 
  1034                           # 5935 "/Applications/microchip/xc8/v1.12/include/pic18f4550.h"
  1035                           RCREG1 equ 0FAEh ;# 
  1036                           # 5941 "/Applications/microchip/xc8/v1.12/include/pic18f4550.h"
  1037                           SPBRG equ 0FAFh ;# 
  1038  0009AA                     __ptext0:
  1039                           opt subtitle "HI-TECH Software Omniscient Code Generator (Lite mode) build 49521"
  1040                           
  1041                           opt pagewidth 120
  1042                           
  1043  0000                     	__size_of_main	equ	__end_of_main-_main
  1044                           opt subtitle "HI-TECH Software Omniscient Code Generator (Lite mode) build 49521"
  1045  0009AA                     _main:
  1046                           opt subtitle "HI-TECH Software Omniscient Code Generator (Lite mode) build 49521"
  1047                           
  1048                           opt pagewidth 120
  1049  0009AA                     l1014:
  1050                           opt subtitle "HI-TECH Software Omniscient Code Generator (Lite mode) build 49521"
  1051  0009AA  88D3               		bsf	((c:4051)),c, 4+0	;volatile
  1052  0009AC  8AD3               	bsf	((c:4051)),c, 4+1	;volatile
  1053  0009AE  8CD3               	bsf	((c:4051)),c, 4+2	;volatile
  1054                           opt subtitle "HI-TECH Software Omniscient Code Generator (Lite mode) build 49521"
  1055                           
  1056                           opt pagewidth 120
  1057  0009B0  80C1               		bsf	((c:4033)),c, 0+0	;volatile
  1058  0009B2  82C1               	bsf	((c:4033)),c, 0+1	;volatile
  1059  0009B4  84C1               	bsf	((c:4033)),c, 0+2	;volatile
  1060  0009B6  86C1               	bsf	((c:4033)),c, 0+3	;volatile
  1061                           opt subtitle "HI-TECH Software Omniscient Code Generator (Lite mode) build 49521"
  1062                           
  1063                           opt pagewidth 120
  1064  0009B8  80B4               		bsf	((c:4020)),c, 0+0	;volatile
  1065  0009BA  82B4               	bsf	((c:4020)),c, 0+1	;volatile
  1066  0009BC  84B4               	bsf	((c:4020)),c, 0+2	;volatile
  1067                           opt subtitle "HI-TECH Software Omniscient Code Generator (Lite mode) build 49521"
  1068                           
  1069                           opt pagewidth 120
  1070  0009BE                     l1016:
  1071                           opt subtitle "HI-TECH Software Omniscient Code Generator (Lite mode) build 49521"
  1072  0009BE  0E00               	movlw	low(0)
  1073  0009C0  6E80               	movwf	((c:3968)),c	;volatile
  1074                           opt subtitle "HI-TECH Software Omniscient Code Generator (Lite mode) build 49521"
  1075                           
  1076  0009C2  0E00               	movlw	low(0)
  1077  0009C4  6E81               	movwf	((c:3969)),c	;volatile
  1078                           opt subtitle "HI-TECH Software Omniscient Code Generator (Lite mode) build 49521"
  1079                           
  1080  0009C6  0E00               	movlw	low(0)
  1081  0009C8  6E82               	movwf	((c:3970)),c	;volatile
  1082                           opt subtitle "HI-TECH Software Omniscient Code Generator (Lite mode) build 49521"
  1083                           
  1084  0009CA  0E00               	movlw	low(0)
  1085  0009CC  6E83               	movwf	((c:3971)),c	;volatile
  1086                           opt subtitle "HI-TECH Software Omniscient Code Generator (Lite mode) build 49521"
  1087                           
  1088  0009CE  0E00               	movlw	low(0)
  1089  0009D0  6E84               	movwf	((c:3972)),c	;volatile
  1090                           opt subtitle "HI-TECH Software Omniscient Code Generator (Lite mode) build 49521"
  1091                           
  1092  0009D2  0E00               	movlw	low(0)
  1093  0009D4  6E92               	movwf	((c:3986)),c	;volatile
  1094                           opt subtitle "HI-TECH Software Omniscient Code Generator (Lite mode) build 49521"
  1095                           
  1096  0009D6  0E01               	movlw	low(01h)
  1097  0009D8  6E93               	movwf	((c:3987)),c	;volatile
  1098                           opt subtitle "HI-TECH Software Omniscient Code Generator (Lite mode) build 49521"
  1099                           
  1100  0009DA  0E00               	movlw	low(0)
  1101  0009DC  6E94               	movwf	((c:3988)),c	;volatile
  1102                           opt subtitle "HI-TECH Software Omniscient Code Generator (Lite mode) build 49521"
  1103                           
  1104  0009DE  0E00               	movlw	low(0)
  1105  0009E0  6E95               	movwf	((c:3989)),c	;volatile
  1106                           opt subtitle "HI-TECH Software Omniscient Code Generator (Lite mode) build 49521"
  1107                           
  1108  0009E2  0E04               	movlw	low(04h)
  1109  0009E4  6E96               	movwf	((c:3990)),c	;volatile
  1110                           opt subtitle "HI-TECH Software Omniscient Code Generator (Lite mode) build 49521"
  1111                           
  1112  0009E6                     l1018:
  1113                           opt subtitle "HI-TECH Software Omniscient Code Generator (Lite mode) build 49521"
  1114  0009E6  EC09  F004         	call	_lcd_start	;wreg free
  1115                           opt subtitle "HI-TECH Software Omniscient Code Generator (Lite mode) build 49521"
  1116                           
  1117  0009EA                     l1020:
  1118                           opt subtitle "HI-TECH Software Omniscient Code Generator (Lite mode) build 49521"
  1119  0009EA  9AC6               	bcf	(0+(5/8)+(c:4038)),c,(5)&7	;volatile
  1120                           opt subtitle "HI-TECH Software Omniscient Code Generator (Lite mode) build 49521"
  1121                           
  1122  0009EC                     l1022:
  1123                           opt subtitle "HI-TECH Software Omniscient Code Generator (Lite mode) build 49521"
  1124  0009EC  6E18               	movwf	(??_main+0+0)&0ffh,c
  1125  0009EE  0E00               	movlw	low(0)
  1126  0009F0  6E01               	movwf	((c:?_OpenSPI)),c
  1127  0009F2  5018               	movf	(??_main+0+0)&0ffh,c,w
  1128  0009F4  6E19               	movwf	(??_main+1+0)&0ffh,c
  1129  0009F6  0E00               	movlw	low(0)
  1130  0009F8  6E02               	movwf	(0+((c:?_OpenSPI)+01h)),c
  1131  0009FA  5019               	movf	(??_main+1+0)&0ffh,c,w
  1132  0009FC  6E1A               	movwf	(??_main+2+0)&0ffh,c
  1133  0009FE  0E00               	movlw	low(0)
  1134  000A00  6E03               	movwf	(0+((c:?_OpenSPI)+02h)),c
  1135  000A02  501A               	movf	(??_main+2+0)&0ffh,c,w
  1136  000A04  ECC9  F006         	call	_OpenSPI	;wreg free
  1137                           opt subtitle "HI-TECH Software Omniscient Code Generator (Lite mode) build 49521"
  1138                           
  1139  000A08                     l1024:
  1140                           opt subtitle "HI-TECH Software Omniscient Code Generator (Lite mode) build 49521"
  1141  000A08  0E00               	movlw	high((c:_mensagem_lcd))
  1142  000A0A  6E02               	movwf	((c:?_sprintf+1)),c
  1143  000A0C  0E1B               	movlw	low((c:_mensagem_lcd))
  1144  000A0E  6E01               	movwf	((c:?_sprintf)),c
  1145  000A10  0E08               	movlw	high(STR_1)
  1146  000A12  6E04               	movwf	(1+((c:?_sprintf)+02h)),c
  1147  000A14  0E00               	movlw	low(STR_1)
  1148  000A16  6E03               	movwf	(0+((c:?_sprintf)+02h)),c
  1149  000A18  ECFB  F006         	call	_sprintf	;wreg free
  1150                           opt subtitle "HI-TECH Software Omniscient Code Generator (Lite mode) build 49521"
  1151                           
  1152  000A1C                     l1026:
  1153                           opt subtitle "HI-TECH Software Omniscient Code Generator (Lite mode) build 49521"
  1154  000A1C  6E18               	movwf	(??_main+0+0)&0ffh,c
  1155  000A1E  0E01               	movlw	low(01h)
  1156  000A20  6E0C               	movwf	((c:?_mostra_lcd_buff)),c
  1157  000A22  5018               	movf	(??_main+0+0)&0ffh,c,w
  1158  000A24  6E19               	movwf	(??_main+1+0)&0ffh,c
  1159  000A26  0E01               	movlw	low(01h)
  1160  000A28  6E0D               	movwf	(0+((c:?_mostra_lcd_buff)+01h)),c
  1161  000A2A  5019               	movf	(??_main+1+0)&0ffh,c,w
  1162  000A2C  0E00               	movlw	high((c:_mensagem_lcd))
  1163  000A2E  6E0F               	movwf	(1+((c:?_mostra_lcd_buff)+02h)),c
  1164  000A30  0E1B               	movlw	low((c:_mensagem_lcd))
  1165  000A32  6E0E               	movwf	(0+((c:?_mostra_lcd_buff)+02h)),c
  1166  000A34  6E1A               	movwf	(??_main+2+0)&0ffh,c
  1167  000A36  0E10               	movlw	low(010h)
  1168  000A38  6E10               	movwf	(0+((c:?_mostra_lcd_buff)+04h)),c
  1169  000A3A  501A               	movf	(??_main+2+0)&0ffh,c,w
  1170  000A3C  EC5A  F007         	call	_mostra_lcd_buff	;wreg free
  1171  000A40  D000               	goto	l1028
  1172                           opt subtitle "HI-TECH Software Omniscient Code Generator (Lite mode) build 49521"
  1173                           
  1174                           opt pagewidth 120
  1175  000A42                     l130:
  1176                           opt subtitle "HI-TECH Software Omniscient Code Generator (Lite mode) build 49521"
  1177                           
  1178  000A42                     l1028:
  1179                           opt subtitle "HI-TECH Software Omniscient Code Generator (Lite mode) build 49521"
  1180                           
  1181                           opt pagewidth 120
  1182  000A42  B484               	btfsc	((c:3972)),c,2	;volatile
  1183  000A44  D001               	goto	u261
  1184  000A46  D001               	goto	u260
  1185  000A48                     u261:
  1186  000A48  D048               	goto	l1042
  1187  000A4A                     u260:
  1188                           opt subtitle "HI-TECH Software Omniscient Code Generator (Lite mode) build 49521"
  1189                           
  1190  000A4A                     l1030:
  1191                           opt subtitle "HI-TECH Software Omniscient Code Generator (Lite mode) build 49521"
  1192                           
  1193  000A4A  8089               	bsf	((c:3977)),c,0	;volatile
  1194                           opt subtitle "HI-TECH Software Omniscient Code Generator (Lite mode) build 49521"
  1195                           
  1196  000A4C  D001               	goto	l1032
  1197                           opt subtitle "HI-TECH Software Omniscient Code Generator (Lite mode) build 49521"
  1198  000A4E                     l133:
  1199  000A4E  D000               	goto	l1032
  1200                           opt subtitle "HI-TECH Software Omniscient Code Generator (Lite mode) build 49521"
  1201  000A50                     l132:
  1202                           opt subtitle "HI-TECH Software Omniscient Code Generator (Lite mode) build 49521"
  1203  000A50                     l1032:
  1204  000A50  6E18               	movwf	(??_main+0+0)&0ffh,c
  1205  000A52  0E04               	movlw	low(04h)
  1206  000A54  6E01               	movwf	((c:?_WriteSPI)),c
  1207  000A56  5018               	movf	(??_main+0+0)&0ffh,c,w
  1208  000A58  EC74  F007         	call	_WriteSPI	;wreg free
  1209  000A5C  0900               	iorlw	0
  1210  000A5E  A4D8               	btfss	status,2
  1211  000A60  D001               	goto	u271
  1212  000A62  D001               	goto	u270
  1213  000A64                     u271:
  1214  000A64  D7F5               	goto	l1032
  1215  000A66                     u270:
  1216  000A66  D002               	goto	l1034
  1217                           opt subtitle "HI-TECH Software Omniscient Code Generator (Lite mode) build 49521"
  1218  000A68                     l134:
  1219                           opt subtitle "HI-TECH Software Omniscient Code Generator (Lite mode) build 49521"
  1220                           
  1221  000A68  D001               	goto	l1034
  1222                           opt subtitle "HI-TECH Software Omniscient Code Generator (Lite mode) build 49521"
  1223  000A6A                     l136:
  1224  000A6A  D000               	goto	l1034
  1225                           opt subtitle "HI-TECH Software Omniscient Code Generator (Lite mode) build 49521"
  1226  000A6C                     l135:
  1227                           opt subtitle "HI-TECH Software Omniscient Code Generator (Lite mode) build 49521"
  1228  000A6C                     l1034:
  1229  000A6C  6E18               	movwf	(??_main+0+0)&0ffh,c
  1230  000A6E  0EA8               	movlw	low(0A8h)
  1231  000A70  6E01               	movwf	((c:?_WriteSPI)),c
  1232  000A72  5018               	movf	(??_main+0+0)&0ffh,c,w
  1233  000A74  EC74  F007         	call	_WriteSPI	;wreg free
  1234  000A78  0900               	iorlw	0
  1235  000A7A  A4D8               	btfss	status,2
  1236  000A7C  D001               	goto	u281
  1237  000A7E  D001               	goto	u280
  1238  000A80                     u281:
  1239  000A80  D7F5               	goto	l1034
  1240  000A82                     u280:
  1241  000A82  D002               	goto	l1036
  1242                           opt subtitle "HI-TECH Software Omniscient Code Generator (Lite mode) build 49521"
  1243  000A84                     l137:
  1244                           opt subtitle "HI-TECH Software Omniscient Code Generator (Lite mode) build 49521"
  1245                           
  1246  000A84  D001               	goto	l1036
  1247                           opt subtitle "HI-TECH Software Omniscient Code Generator (Lite mode) build 49521"
  1248  000A86                     l139:
  1249  000A86  D000               	goto	l1036
  1250                           opt subtitle "HI-TECH Software Omniscient Code Generator (Lite mode) build 49521"
  1251  000A88                     l138:
  1252                           opt subtitle "HI-TECH Software Omniscient Code Generator (Lite mode) build 49521"
  1253  000A88                     l1036:
  1254  000A88  6E18               	movwf	(??_main+0+0)&0ffh,c
  1255  000A8A  0EF3               	movlw	low(0F3h)
  1256  000A8C  6E01               	movwf	((c:?_WriteSPI)),c
  1257  000A8E  5018               	movf	(??_main+0+0)&0ffh,c,w
  1258  000A90  EC74  F007         	call	_WriteSPI	;wreg free
  1259  000A94  0900               	iorlw	0
  1260  000A96  A4D8               	btfss	status,2
  1261  000A98  D001               	goto	u291
  1262  000A9A  D001               	goto	u290
  1263  000A9C                     u291:
  1264  000A9C  D7F5               	goto	l1036
  1265  000A9E                     u290:
  1266  000A9E  D002               	goto	l1038
  1267                           opt subtitle "HI-TECH Software Omniscient Code Generator (Lite mode) build 49521"
  1268  000AA0                     l140:
  1269                           opt subtitle "HI-TECH Software Omniscient Code Generator (Lite mode) build 49521"
  1270                           
  1271  000AA0  D001               	goto	l1038
  1272                           opt subtitle "HI-TECH Software Omniscient Code Generator (Lite mode) build 49521"
  1273  000AA2                     l142:
  1274  000AA2  D000               	goto	l1038
  1275                           opt subtitle "HI-TECH Software Omniscient Code Generator (Lite mode) build 49521"
  1276  000AA4                     l141:
  1277                           opt subtitle "HI-TECH Software Omniscient Code Generator (Lite mode) build 49521"
  1278  000AA4                     l1038:
  1279  000AA4  6E18               	movwf	(??_main+0+0)&0ffh,c
  1280  000AA6  0ED1               	movlw	low(0D1h)
  1281  000AA8  6E01               	movwf	((c:?_WriteSPI)),c
  1282  000AAA  5018               	movf	(??_main+0+0)&0ffh,c,w
  1283  000AAC  EC74  F007         	call	_WriteSPI	;wreg free
  1284  000AB0  0900               	iorlw	0
  1285  000AB2  A4D8               	btfss	status,2
  1286  000AB4  D001               	goto	u301
  1287  000AB6  D001               	goto	u300
  1288  000AB8                     u301:
  1289  000AB8  D7F5               	goto	l1038
  1290  000ABA                     u300:
  1291  000ABA  D002               	goto	l1040
  1292                           opt subtitle "HI-TECH Software Omniscient Code Generator (Lite mode) build 49521"
  1293  000ABC                     l143:
  1294                           opt subtitle "HI-TECH Software Omniscient Code Generator (Lite mode) build 49521"
  1295                           
  1296  000ABC  D001               	goto	l1040
  1297                           opt subtitle "HI-TECH Software Omniscient Code Generator (Lite mode) build 49521"
  1298  000ABE                     l145:
  1299  000ABE  D000               	goto	l1040
  1300                           opt subtitle "HI-TECH Software Omniscient Code Generator (Lite mode) build 49521"
  1301  000AC0                     l144:
  1302                           opt subtitle "HI-TECH Software Omniscient Code Generator (Lite mode) build 49521"
  1303  000AC0                     l1040:
  1304  000AC0  6E18               	movwf	(??_main+0+0)&0ffh,c
  1305  000AC2  0EE5               	movlw	low(0E5h)
  1306  000AC4  6E01               	movwf	((c:?_WriteSPI)),c
  1307  000AC6  5018               	movf	(??_main+0+0)&0ffh,c,w
  1308  000AC8  EC74  F007         	call	_WriteSPI	;wreg free
  1309  000ACC  0900               	iorlw	0
  1310  000ACE  A4D8               	btfss	status,2
  1311  000AD0  D001               	goto	u311
  1312  000AD2  D001               	goto	u310
  1313  000AD4                     u311:
  1314  000AD4  D7F5               	goto	l1040
  1315  000AD6                     u310:
  1316                           opt subtitle "HI-TECH Software Omniscient Code Generator (Lite mode) build 49521"
  1317  000AD6                     l146:
  1318                           opt subtitle "HI-TECH Software Omniscient Code Generator (Lite mode) build 49521"
  1319                           
  1320  000AD6  9089               	bcf	((c:3977)),c,0	;volatile
  1321                           opt subtitle "HI-TECH Software Omniscient Code Generator (Lite mode) build 49521"
  1322                           
  1323  000AD8  D7B4               	goto	l1028
  1324                           opt subtitle "HI-TECH Software Omniscient Code Generator (Lite mode) build 49521"
  1325                           
  1326  000ADA                     l131:
  1327                           opt subtitle "HI-TECH Software Omniscient Code Generator (Lite mode) build 49521"
  1328                           
  1329  000ADA                     l1042:
  1330                           opt subtitle "HI-TECH Software Omniscient Code Generator (Lite mode) build 49521"
  1331                           
  1332                           opt pagewidth 120
  1333  000ADA  6E18               	movwf	(??_main+0+0)&0ffh,c
  1334  000ADC  0E0A               	movlw	low(0Ah)
  1335  000ADE  6E01               	movwf	((c:?_Delay10KTCYx)),c
  1336  000AE0  5018               	movf	(??_main+0+0)&0ffh,c,w
  1337  000AE2  ECA8  F007         	call	_Delay10KTCYx	;wreg free
  1338                           opt subtitle "HI-TECH Software Omniscient Code Generator (Lite mode) build 49521"
  1339                           
  1340  000AE6                     l1044:
  1341                           opt subtitle "HI-TECH Software Omniscient Code Generator (Lite mode) build 49521"
  1342  000AE6  7083               	btg	((c:3971)),c,0	;volatile
  1343  000AE8  D7AC               	goto	l1028
  1344                           opt subtitle "HI-TECH Software Omniscient Code Generator (Lite mode) build 49521"
  1345                           
  1346  000AEA                     l147:
  1347  000AEA  D7AB               	goto	l1028
  1348                           opt subtitle "HI-TECH Software Omniscient Code Generator (Lite mode) build 49521"
  1349                           
  1350  000AEC                     l148:
  1351                           opt subtitle "HI-TECH Software Omniscient Code Generator (Lite mode) build 49521"
  1352  000AEC  D7AA               	goto	l1028
  1353                           opt subtitle "HI-TECH Software Omniscient Code Generator (Lite mode) build 49521"
  1354  000AEE                     l149:
  1355                           opt subtitle "HI-TECH Software Omniscient Code Generator (Lite mode) build 49521"
  1356                           
  1357  000AEE                     l150:
  1358                           opt subtitle "HI-TECH Software Omniscient Code Generator (Lite mode) build 49521"
  1359  000AEE  EF00  F000         	goto	start
  1360                           opt subtitle "HI-TECH Software Omniscient Code Generator (Lite mode) build 49521"
  1361                           
  1362  000AF2                     	__end_of_main:
  1363                           opt subtitle "HI-TECH Software Omniscient Code Generator (Lite mode) build 49521"
  1364                           
  1365                           opt pagewidth 120
  1366                           
  1367                           	opt lm
  1368                           
  1369                           	processor	18F4550
  1370                           porta	equ	0F80h
  1371                           portb	equ	0F81h
  1372                           portc	equ	0F82h
  1373                           portd	equ	0F83h
  1374                           porte	equ	0F84h
  1375                           lata	equ	0F89h
  1376                           latb	equ	0F8Ah
  1377                           latc	equ	0F8Bh
  1378                           latd	equ	0F8Ch
  1379                           late	equ	0F8Dh
  1380                           trisa	equ	0F92h
  1381                           trisb	equ	0F93h
  1382                           trisc	equ	0F94h
  1383                           trisd	equ	0F95h
  1384                           trise	equ	0F96h
  1385                           pie1	equ	0F9Dh
  1386                           pir1	equ	0F9Eh
  1387                           ipr1	equ	0F9Fh
  1388                           pie2	equ	0FA0h
  1389                           pir2	equ	0FA1h
  1390                           ipr2	equ	0FA2h
  1391                           t3con	equ	0FB1h
  1392                           tmr3l	equ	0FB2h
  1393                           tmr3h	equ	0FB3h
  1394                           ccp1con	equ	0FBDh
  1395                           ccpr1l	equ	0FBEh
  1396                           ccpr1h	equ	0FBFh
  1397                           adcon1	equ	0FC1h
  1398                           adcon0	equ	0FC2h
  1399                           adresl	equ	0FC3h
  1400                           adresh	equ	0FC4h
  1401  000812                     __ptext1:
  1402                           opt subtitle "HI-TECH Software Omniscient Code Generator (Lite mode) build 49521"
  1403                           
  1404                           opt pagewidth 120
  1405                           
  1406  0000                     	__size_of_lcd_start	equ	__end_of_lcd_start-_lcd_start
  1407                           opt subtitle "HI-TECH Software Omniscient Code Generator (Lite mode) build 49521"
  1408  000812                     _lcd_start:
  1409                           opt subtitle "HI-TECH Software Omniscient Code Generator (Lite mode) build 49521"
  1410                           
  1411                           opt pagewidth 120
  1412  000812                     l962:
  1413                           opt subtitle "HI-TECH Software Omniscient Code Generator (Lite mode) build 49521"
  1414  000812  EE20  F02C         	lfsr	2,(lcd_start@F5326)
  1415  000816  EE10  F012         	lfsr	1,(lcd_start@lcd_conf)
  1416  00081A  0E06               	movlw	6
  1417  00081C                     u221:
  1418  00081C  CFDE FFE6          	movff	postinc2,postinc1
  1419  000820  2EE8               	decfsz	wreg
  1420  000822  D7FC               	goto	u221
  1421                           opt subtitle "HI-TECH Software Omniscient Code Generator (Lite mode) build 49521"
  1422                           
  1423  000824                     l964:
  1424                           opt subtitle "HI-TECH Software Omniscient Code Generator (Lite mode) build 49521"
  1425  000824  6E10               	movwf	(??_lcd_start+0+0)&0ffh,c
  1426  000826  0E00               	movlw	low(0)
  1427  000828  6E11               	movwf	((c:lcd_start@contagem)),c
  1428  00082A  5010               	movf	(??_lcd_start+0+0)&0ffh,c,w
  1429                           opt subtitle "HI-TECH Software Omniscient Code Generator (Lite mode) build 49521"
  1430                           
  1431  00082C                     l966:
  1432                           opt subtitle "HI-TECH Software Omniscient Code Generator (Lite mode) build 49521"
  1433  00082C  6E10               	movwf	(??_lcd_start+0+0)&0ffh,c
  1434  00082E  0E28               	movlw	low(028h)
  1435  000830  6E14               	movwf	(0+((c:lcd_start@lcd_conf)+02h)),c
  1436  000832  5010               	movf	(??_lcd_start+0+0)&0ffh,c,w
  1437                           opt subtitle "HI-TECH Software Omniscient Code Generator (Lite mode) build 49521"
  1438                           
  1439  000834                     l968:
  1440                           opt subtitle "HI-TECH Software Omniscient Code Generator (Lite mode) build 49521"
  1441  000834  6E10               	movwf	(??_lcd_start+0+0)&0ffh,c
  1442  000836  0E0F               	movlw	low(0Fh)
  1443  000838  6E15               	movwf	(0+((c:lcd_start@lcd_conf)+03h)),c
  1444  00083A  5010               	movf	(??_lcd_start+0+0)&0ffh,c,w
  1445                           opt subtitle "HI-TECH Software Omniscient Code Generator (Lite mode) build 49521"
  1446                           
  1447  00083C                     l970:
  1448                           opt subtitle "HI-TECH Software Omniscient Code Generator (Lite mode) build 49521"
  1449  00083C  6E10               	movwf	(??_lcd_start+0+0)&0ffh,c
  1450  00083E  0E06               	movlw	low(06h)
  1451  000840  6E16               	movwf	(0+((c:lcd_start@lcd_conf)+04h)),c
  1452  000842  5010               	movf	(??_lcd_start+0+0)&0ffh,c,w
  1453                           opt subtitle "HI-TECH Software Omniscient Code Generator (Lite mode) build 49521"
  1454                           
  1455  000844                     l972:
  1456                           opt subtitle "HI-TECH Software Omniscient Code Generator (Lite mode) build 49521"
  1457  000844  9483               	bcf	((c:3971)),c,2	;volatile
  1458                           opt subtitle "HI-TECH Software Omniscient Code Generator (Lite mode) build 49521"
  1459                           
  1460  000846                     l974:
  1461                           opt subtitle "HI-TECH Software Omniscient Code Generator (Lite mode) build 49521"
  1462  000846  9683               	bcf	((c:3971)),c,3	;volatile
  1463                           opt subtitle "HI-TECH Software Omniscient Code Generator (Lite mode) build 49521"
  1464                           
  1465  000848                     l976:
  1466                           opt subtitle "HI-TECH Software Omniscient Code Generator (Lite mode) build 49521"
  1467  000848  0E4E               	movlw	high(04E20h)
  1468  00084A  6E02               	movwf	((c:?_tempo_us+1)),c
  1469  00084C  0E20               	movlw	low(04E20h)
  1470  00084E  6E01               	movwf	((c:?_tempo_us)),c
  1471  000850  EC79  F005         	call	_tempo_us	;wreg free
  1472                           opt subtitle "HI-TECH Software Omniscient Code Generator (Lite mode) build 49521"
  1473                           
  1474  000854  D03C               	goto	l122
  1475                           opt subtitle "HI-TECH Software Omniscient Code Generator (Lite mode) build 49521"
  1476  000856                     l123:
  1477                           opt subtitle "HI-TECH Software Omniscient Code Generator (Lite mode) build 49521"
  1478                           
  1479  000856                     l978:
  1480                           opt subtitle "HI-TECH Software Omniscient Code Generator (Lite mode) build 49521"
  1481                           
  1482  000856  C012  F010         	movff	(c:lcd_start@lcd_conf),??_lcd_start+0+0
  1483  00085A  90D8               	bcf	status,0
  1484  00085C  3210               	rrcf	(??_lcd_start+0+0),c
  1485  00085E  90D8               	bcf	status,0
  1486  000860  3210               	rrcf	(??_lcd_start+0+0),c
  1487  000862  90D8               	bcf	status,0
  1488  000864  3210               	rrcf	(??_lcd_start+0+0),c
  1489                           opt subtitle "HI-TECH Software Omniscient Code Generator (Lite mode) build 49521"
  1490  000866  3210               	rrcf	(??_lcd_start+0+0),c
  1491  000868  3210               	rrcf	(??_lcd_start+0+0),c
  1492  00086A  5083               	movf	((c:3971)),c,w	;volatile
  1493  00086C  1810               	xorwf	(??_lcd_start+0+0),c,w
  1494  00086E  0B7F               	andlw	not (((1<<1)-1)<<7)
  1495  000870  1810               	xorwf	(??_lcd_start+0+0),c,w
  1496  000872  6E83               	movwf	((c:3971)),c	;volatile
  1497                           opt subtitle "HI-TECH Software Omniscient Code Generator (Lite mode) build 49521"
  1498                           
  1499  000874  C012  F010         	movff	(c:lcd_start@lcd_conf),??_lcd_start+0+0
  1500  000878  90D8               	bcf	status,0
  1501  00087A  3210               	rrcf	(??_lcd_start+0+0),c
  1502  00087C  90D8               	bcf	status,0
  1503  00087E  3210               	rrcf	(??_lcd_start+0+0),c
  1504                           opt subtitle "HI-TECH Software Omniscient Code Generator (Lite mode) build 49521"
  1505  000880  3A10               	swapf	(??_lcd_start+0+0),c
  1506  000882  4610               	rlncf	(??_lcd_start+0+0),c
  1507  000884  4610               	rlncf	(??_lcd_start+0+0),c
  1508  000886  5083               	movf	((c:3971)),c,w	;volatile
  1509  000888  1810               	xorwf	(??_lcd_start+0+0),c,w
  1510  00088A  0BBF               	andlw	not (((1<<1)-1)<<6)
  1511  00088C  1810               	xorwf	(??_lcd_start+0+0),c,w
  1512  00088E  6E83               	movwf	((c:3971)),c	;volatile
  1513                           opt subtitle "HI-TECH Software Omniscient Code Generator (Lite mode) build 49521"
  1514                           
  1515  000890  C012  F010         	movff	(c:lcd_start@lcd_conf),??_lcd_start+0+0
  1516  000894  90D8               	bcf	status,0
  1517  000896  3210               	rrcf	(??_lcd_start+0+0),c
  1518                           opt subtitle "HI-TECH Software Omniscient Code Generator (Lite mode) build 49521"
  1519  000898  3A10               	swapf	(??_lcd_start+0+0),c
  1520  00089A  4610               	rlncf	(??_lcd_start+0+0),c
  1521  00089C  5083               	movf	((c:3971)),c,w	;volatile
  1522  00089E  1810               	xorwf	(??_lcd_start+0+0),c,w
  1523  0008A0  0BDF               	andlw	not (((1<<1)-1)<<5)
  1524  0008A2  1810               	xorwf	(??_lcd_start+0+0),c,w
  1525  0008A4  6E83               	movwf	((c:3971)),c	;volatile
  1526                           opt subtitle "HI-TECH Software Omniscient Code Generator (Lite mode) build 49521"
  1527                           
  1528  0008A6                     l980:
  1529                           opt subtitle "HI-TECH Software Omniscient Code Generator (Lite mode) build 49521"
  1530  0008A6  B012               	btfsc	(c:lcd_start@lcd_conf),c,0
  1531  0008A8  D002               	bra	u235
  1532  0008AA  9883               	bcf	((c:3971)),c,4	;volatile
  1533  0008AC  D001               	bra	u236
  1534  0008AE                     	u235:
  1535  0008AE  8883               	bsf	((c:3971)),c,4	;volatile
  1536  0008B0                     	u236:
  1537                           opt subtitle "HI-TECH Software Omniscient Code Generator (Lite mode) build 49521"
  1538                           
  1539                           opt pagewidth 120
  1540  0008B0                     l982:
  1541                           opt subtitle "HI-TECH Software Omniscient Code Generator (Lite mode) build 49521"
  1542  0008B0  8683               	bsf	((c:3971)),c,3	;volatile
  1543                           opt subtitle "HI-TECH Software Omniscient Code Generator (Lite mode) build 49521"
  1544  0008B2                     l984:
  1545  0008B2  0E00               	movlw	high(02h)
  1546  0008B4  6E02               	movwf	((c:?_tempo_us+1)),c
  1547  0008B6  0E02               	movlw	low(02h)
  1548  0008B8  6E01               	movwf	((c:?_tempo_us)),c
  1549  0008BA  EC79  F005         	call	_tempo_us	;wreg free
  1550                           opt subtitle "HI-TECH Software Omniscient Code Generator (Lite mode) build 49521"
  1551  0008BE                     l986:
  1552  0008BE  9683               	bcf	((c:3971)),c,3	;volatile
  1553                           opt subtitle "HI-TECH Software Omniscient Code Generator (Lite mode) build 49521"
  1554                           
  1555  0008C0                     l988:
  1556                           opt subtitle "HI-TECH Software Omniscient Code Generator (Lite mode) build 49521"
  1557  0008C0  0E13               	movlw	high(01388h)
  1558  0008C2  6E02               	movwf	((c:?_tempo_us+1)),c
  1559  0008C4  0E88               	movlw	low(01388h)
  1560  0008C6  6E01               	movwf	((c:?_tempo_us)),c
  1561  0008C8  EC79  F005         	call	_tempo_us	;wreg free
  1562                           opt subtitle "HI-TECH Software Omniscient Code Generator (Lite mode) build 49521"
  1563                           
  1564  0008CC                     l990:
  1565                           opt subtitle "HI-TECH Software Omniscient Code Generator (Lite mode) build 49521"
  1566  0008CC  2A11               	incf	((c:lcd_start@contagem)),c
  1567                           opt subtitle "HI-TECH Software Omniscient Code Generator (Lite mode) build 49521"
  1568                           
  1569  0008CE                     l122:
  1570                           opt subtitle "HI-TECH Software Omniscient Code Generator (Lite mode) build 49521"
  1571  0008CE  0E02               	movlw	(03h-1)
  1572  0008D0  6411               	cpfsgt	((c:lcd_start@contagem)),c
  1573  0008D2  D001               	goto	u241
  1574  0008D4  D001               	goto	u240
  1575  0008D6                     u241:
  1576  0008D6  D7BF               	goto	l978
  1577  0008D8                     u240:
  1578  0008D8  D000               	goto	l992
  1579                           opt subtitle "HI-TECH Software Omniscient Code Generator (Lite mode) build 49521"
  1580  0008DA                     l124:
  1581                           opt subtitle "HI-TECH Software Omniscient Code Generator (Lite mode) build 49521"
  1582                           
  1583  0008DA                     l992:
  1584                           opt subtitle "HI-TECH Software Omniscient Code Generator (Lite mode) build 49521"
  1585                           
  1586  0008DA  C013  F010         	movff	0+((c:lcd_start@lcd_conf)+01h),??_lcd_start+0+0
  1587  0008DE  90D8               	bcf	status,0
  1588  0008E0  3210               	rrcf	(??_lcd_start+0+0),c
  1589  0008E2  90D8               	bcf	status,0
  1590  0008E4  3210               	rrcf	(??_lcd_start+0+0),c
  1591  0008E6  90D8               	bcf	status,0
  1592  0008E8  3210               	rrcf	(??_lcd_start+0+0),c
  1593                           opt subtitle "HI-TECH Software Omniscient Code Generator (Lite mode) build 49521"
  1594  0008EA  3210               	rrcf	(??_lcd_start+0+0),c
  1595  0008EC  3210               	rrcf	(??_lcd_start+0+0),c
  1596  0008EE  5083               	movf	((c:3971)),c,w	;volatile
  1597  0008F0  1810               	xorwf	(??_lcd_start+0+0),c,w
  1598  0008F2  0B7F               	andlw	not (((1<<1)-1)<<7)
  1599  0008F4  1810               	xorwf	(??_lcd_start+0+0),c,w
  1600  0008F6  6E83               	movwf	((c:3971)),c	;volatile
  1601                           opt subtitle "HI-TECH Software Omniscient Code Generator (Lite mode) build 49521"
  1602                           
  1603  0008F8  C013  F010         	movff	0+((c:lcd_start@lcd_conf)+01h),??_lcd_start+0+0
  1604  0008FC  90D8               	bcf	status,0
  1605  0008FE  3210               	rrcf	(??_lcd_start+0+0),c
  1606  000900  90D8               	bcf	status,0
  1607  000902  3210               	rrcf	(??_lcd_start+0+0),c
  1608                           opt subtitle "HI-TECH Software Omniscient Code Generator (Lite mode) build 49521"
  1609  000904  3A10               	swapf	(??_lcd_start+0+0),c
  1610  000906  4610               	rlncf	(??_lcd_start+0+0),c
  1611  000908  4610               	rlncf	(??_lcd_start+0+0),c
  1612  00090A  5083               	movf	((c:3971)),c,w	;volatile
  1613  00090C  1810               	xorwf	(??_lcd_start+0+0),c,w
  1614  00090E  0BBF               	andlw	not (((1<<1)-1)<<6)
  1615  000910  1810               	xorwf	(??_lcd_start+0+0),c,w
  1616  000912  6E83               	movwf	((c:3971)),c	;volatile
  1617                           opt subtitle "HI-TECH Software Omniscient Code Generator (Lite mode) build 49521"
  1618                           
  1619  000914  C013  F010         	movff	0+((c:lcd_start@lcd_conf)+01h),??_lcd_start+0+0
  1620  000918  90D8               	bcf	status,0
  1621  00091A  3210               	rrcf	(??_lcd_start+0+0),c
  1622                           opt subtitle "HI-TECH Software Omniscient Code Generator (Lite mode) build 49521"
  1623  00091C  3A10               	swapf	(??_lcd_start+0+0),c
  1624  00091E  4610               	rlncf	(??_lcd_start+0+0),c
  1625  000920  5083               	movf	((c:3971)),c,w	;volatile
  1626  000922  1810               	xorwf	(??_lcd_start+0+0),c,w
  1627  000924  0BDF               	andlw	not (((1<<1)-1)<<5)
  1628  000926  1810               	xorwf	(??_lcd_start+0+0),c,w
  1629  000928  6E83               	movwf	((c:3971)),c	;volatile
  1630                           opt subtitle "HI-TECH Software Omniscient Code Generator (Lite mode) build 49521"
  1631                           
  1632  00092A                     l994:
  1633                           opt subtitle "HI-TECH Software Omniscient Code Generator (Lite mode) build 49521"
  1634  00092A  B013               	btfsc	0+((c:lcd_start@lcd_conf)+01h),c,0
  1635  00092C  D002               	bra	u255
  1636  00092E  9883               	bcf	((c:3971)),c,4	;volatile
  1637  000930  D001               	bra	u256
  1638  000932                     	u255:
  1639  000932  8883               	bsf	((c:3971)),c,4	;volatile
  1640  000934                     	u256:
  1641                           opt subtitle "HI-TECH Software Omniscient Code Generator (Lite mode) build 49521"
  1642                           
  1643                           opt pagewidth 120
  1644  000934                     l996:
  1645                           opt subtitle "HI-TECH Software Omniscient Code Generator (Lite mode) build 49521"
  1646  000934  8683               	bsf	((c:3971)),c,3	;volatile
  1647                           opt subtitle "HI-TECH Software Omniscient Code Generator (Lite mode) build 49521"
  1648  000936                     l998:
  1649  000936  0E00               	movlw	high(02h)
  1650  000938  6E02               	movwf	((c:?_tempo_us+1)),c
  1651  00093A  0E02               	movlw	low(02h)
  1652  00093C  6E01               	movwf	((c:?_tempo_us)),c
  1653  00093E  EC79  F005         	call	_tempo_us	;wreg free
  1654                           opt subtitle "HI-TECH Software Omniscient Code Generator (Lite mode) build 49521"
  1655  000942                     l1000:
  1656  000942  9683               	bcf	((c:3971)),c,3	;volatile
  1657                           opt subtitle "HI-TECH Software Omniscient Code Generator (Lite mode) build 49521"
  1658                           
  1659  000944                     l1002:
  1660                           opt subtitle "HI-TECH Software Omniscient Code Generator (Lite mode) build 49521"
  1661  000944  0E00               	movlw	high(028h)
  1662  000946  6E02               	movwf	((c:?_tempo_us+1)),c
  1663  000948  0E28               	movlw	low(028h)
  1664  00094A  6E01               	movwf	((c:?_tempo_us)),c
  1665  00094C  EC79  F005         	call	_tempo_us	;wreg free
  1666                           opt subtitle "HI-TECH Software Omniscient Code Generator (Lite mode) build 49521"
  1667                           
  1668  000950                     l1004:
  1669                           opt subtitle "HI-TECH Software Omniscient Code Generator (Lite mode) build 49521"
  1670  000950  C014  F003         	movff	0+((c:lcd_start@lcd_conf)+02h),(c:?_envia_lcd)
  1671  000954  6E10               	movwf	(??_lcd_start+0+0)&0ffh,c
  1672  000956  0E00               	movlw	low(0)
  1673  000958  6E04               	movwf	(0+((c:?_envia_lcd)+01h)),c
  1674  00095A  5010               	movf	(??_lcd_start+0+0)&0ffh,c,w
  1675  00095C  0E00               	movlw	high(028h)
  1676  00095E  6E06               	movwf	(1+((c:?_envia_lcd)+02h)),c
  1677  000960  0E28               	movlw	low(028h)
  1678  000962  6E05               	movwf	(0+((c:?_envia_lcd)+02h)),c
  1679  000964  ECFB  F005         	call	_envia_lcd	;wreg free
  1680                           opt subtitle "HI-TECH Software Omniscient Code Generator (Lite mode) build 49521"
  1681                           
  1682  000968                     l1006:
  1683                           opt subtitle "HI-TECH Software Omniscient Code Generator (Lite mode) build 49521"
  1684  000968  C015  F003         	movff	0+((c:lcd_start@lcd_conf)+03h),(c:?_envia_lcd)
  1685  00096C  6E10               	movwf	(??_lcd_start+0+0)&0ffh,c
  1686  00096E  0E00               	movlw	low(0)
  1687  000970  6E04               	movwf	(0+((c:?_envia_lcd)+01h)),c
  1688  000972  5010               	movf	(??_lcd_start+0+0)&0ffh,c,w
  1689  000974  0E00               	movlw	high(028h)
  1690  000976  6E06               	movwf	(1+((c:?_envia_lcd)+02h)),c
  1691  000978  0E28               	movlw	low(028h)
  1692  00097A  6E05               	movwf	(0+((c:?_envia_lcd)+02h)),c
  1693  00097C  ECFB  F005         	call	_envia_lcd	;wreg free
  1694                           opt subtitle "HI-TECH Software Omniscient Code Generator (Lite mode) build 49521"
  1695                           
  1696  000980                     l1008:
  1697                           opt subtitle "HI-TECH Software Omniscient Code Generator (Lite mode) build 49521"
  1698  000980  C016  F003         	movff	0+((c:lcd_start@lcd_conf)+04h),(c:?_envia_lcd)
  1699  000984  6E10               	movwf	(??_lcd_start+0+0)&0ffh,c
  1700  000986  0E00               	movlw	low(0)
  1701  000988  6E04               	movwf	(0+((c:?_envia_lcd)+01h)),c
  1702  00098A  5010               	movf	(??_lcd_start+0+0)&0ffh,c,w
  1703  00098C  0E00               	movlw	high(028h)
  1704  00098E  6E06               	movwf	(1+((c:?_envia_lcd)+02h)),c
  1705  000990  0E28               	movlw	low(028h)
  1706  000992  6E05               	movwf	(0+((c:?_envia_lcd)+02h)),c
  1707  000994  ECFB  F005         	call	_envia_lcd	;wreg free
  1708                           opt subtitle "HI-TECH Software Omniscient Code Generator (Lite mode) build 49521"
  1709                           
  1710  000998                     l1010:
  1711                           opt subtitle "HI-TECH Software Omniscient Code Generator (Lite mode) build 49521"
  1712  000998  EC8C  F007         	call	_limpa_tela	;wreg free
  1713                           opt subtitle "HI-TECH Software Omniscient Code Generator (Lite mode) build 49521"
  1714                           
  1715  00099C                     l1012:
  1716                           opt subtitle "HI-TECH Software Omniscient Code Generator (Lite mode) build 49521"
  1717  00099C  6E10               	movwf	(??_lcd_start+0+0)&0ffh,c
  1718  00099E  0E00               	movlw	low(0)
  1719  0009A0  6E09               	movwf	((c:?_ctrl_lcd_cursor)),c
  1720  0009A2  5010               	movf	(??_lcd_start+0+0)&0ffh,c,w
  1721  0009A4  EC1F  F007         	call	_ctrl_lcd_cursor	;wreg free
  1722                           opt subtitle "HI-TECH Software Omniscient Code Generator (Lite mode) build 49521"
  1723                           
  1724  0009A8                     l125:
  1725  0009A8  0012               	return
  1726                           opt subtitle "HI-TECH Software Omniscient Code Generator (Lite mode) build 49521"
  1727                           
  1728  0009AA                     	__end_of_lcd_start:
  1729                           opt subtitle "HI-TECH Software Omniscient Code Generator (Lite mode) build 49521"
  1730                           
  1731                           opt pagewidth 120
  1732                           
  1733                           	opt lm
  1734                           
  1735                           	processor	18F4550
  1736                           porta	equ	0F80h
  1737                           portb	equ	0F81h
  1738                           portc	equ	0F82h
  1739                           portd	equ	0F83h
  1740                           porte	equ	0F84h
  1741                           lata	equ	0F89h
  1742                           latb	equ	0F8Ah
  1743                           latc	equ	0F8Bh
  1744                           latd	equ	0F8Ch
  1745                           late	equ	0F8Dh
  1746                           trisa	equ	0F92h
  1747                           trisb	equ	0F93h
  1748                           trisc	equ	0F94h
  1749                           trisd	equ	0F95h
  1750                           trise	equ	0F96h
  1751                           pie1	equ	0F9Dh
  1752                           pir1	equ	0F9Eh
  1753                           ipr1	equ	0F9Fh
  1754                           pie2	equ	0FA0h
  1755                           pir2	equ	0FA1h
  1756                           ipr2	equ	0FA2h
  1757                           t3con	equ	0FB1h
  1758                           tmr3l	equ	0FB2h
  1759                           tmr3h	equ	0FB3h
  1760                           ccp1con	equ	0FBDh
  1761                           ccpr1l	equ	0FBEh
  1762                           ccpr1h	equ	0FBFh
  1763                           adcon1	equ	0FC1h
  1764                           adcon0	equ	0FC2h
  1765                           adresl	equ	0FC3h
  1766                           adresh	equ	0FC4h
  1767                           sspcon2	equ	0FC5h
  1768  000EB4                     __ptext2:
  1769                           opt subtitle "HI-TECH Software Omniscient Code Generator (Lite mode) build 49521"
  1770                           
  1771                           opt pagewidth 120
  1772                           
  1773  0000                     	__size_of_mostra_lcd_buff	equ	__end_of_mostra_lcd_buff-_mostra_lcd_buff
  1774                           opt subtitle "HI-TECH Software Omniscient Code Generator (Lite mode) build 49521"
  1775  000EB4                     _mostra_lcd_buff:
  1776                           opt subtitle "HI-TECH Software Omniscient Code Generator (Lite mode) build 49521"
  1777                           
  1778                           opt pagewidth 120
  1779  000EB4                     l954:
  1780                           opt subtitle "HI-TECH Software Omniscient Code Generator (Lite mode) build 49521"
  1781  000EB4  C00C  F009         	movff	(c:mostra_lcd_buff@line),(c:?_pos_lcd)
  1782  000EB8  C00D  F00A         	movff	(c:mostra_lcd_buff@column),0+((c:?_pos_lcd)+01h)
  1783  000EBC  EC79  F006         	call	_pos_lcd	;wreg free
  1784                           opt subtitle "HI-TECH Software Omniscient Code Generator (Lite mode) build 49521"
  1785                           
  1786  000EC0  D00B               	goto	l960
  1787                           opt subtitle "HI-TECH Software Omniscient Code Generator (Lite mode) build 49521"
  1788  000EC2                     l115:
  1789                           opt subtitle "HI-TECH Software Omniscient Code Generator (Lite mode) build 49521"
  1790                           
  1791  000EC2                     l956:
  1792                           opt subtitle "HI-TECH Software Omniscient Code Generator (Lite mode) build 49521"
  1793                           
  1794  000EC2  C00E  FFD9         	movff	(c:mostra_lcd_buff@p_char),fsr2l
  1795  000EC6  C00F  FFDA         	movff	(c:mostra_lcd_buff@p_char+1),fsr2h
  1796  000ECA  50DF               	movf	indf2,w
  1797  000ECC  6E09               	movwf	((c:?_envia_dado)),c
  1798  000ECE  EC9B  F007         	call	_envia_dado	;wreg free
  1799                           opt subtitle "HI-TECH Software Omniscient Code Generator (Lite mode) build 49521"
  1800                           
  1801  000ED2                     l958:
  1802                           opt subtitle "HI-TECH Software Omniscient Code Generator (Lite mode) build 49521"
  1803  000ED2  4A0E               	infsnz	((c:mostra_lcd_buff@p_char)),c
  1804  000ED4  2A0F               	incf	((c:mostra_lcd_buff@p_char+1)),c
  1805  000ED6  D000               	goto	l960
  1806                           opt subtitle "HI-TECH Software Omniscient Code Generator (Lite mode) build 49521"
  1807                           
  1808  000ED8                     l114:
  1809                           opt subtitle "HI-TECH Software Omniscient Code Generator (Lite mode) build 49521"
  1810                           
  1811  000ED8                     l960:
  1812  000ED8  0610               	decf	((c:mostra_lcd_buff@buffer_size)),c
  1813  000EDA  2810               	incf	((c:mostra_lcd_buff@buffer_size))&0ffh,w
  1814                           opt subtitle "HI-TECH Software Omniscient Code Generator (Lite mode) build 49521"
  1815  000EDC  A4D8               	btfss	status,2
  1816  000EDE  D001               	goto	u211
  1817  000EE0  D001               	goto	u210
  1818  000EE2                     u211:
  1819  000EE2  D7EF               	goto	l956
  1820  000EE4                     u210:
  1821  000EE4  D000               	goto	l117
  1822                           opt subtitle "HI-TECH Software Omniscient Code Generator (Lite mode) build 49521"
  1823  000EE6                     l116:
  1824                           opt subtitle "HI-TECH Software Omniscient Code Generator (Lite mode) build 49521"
  1825                           
  1826  000EE6                     l117:
  1827  000EE6  0012               	return
  1828                           opt subtitle "HI-TECH Software Omniscient Code Generator (Lite mode) build 49521"
  1829                           
  1830  000EE8                     	__end_of_mostra_lcd_buff:
  1831                           opt subtitle "HI-TECH Software Omniscient Code Generator (Lite mode) build 49521"
  1832                           
  1833                           opt pagewidth 120
  1834                           
  1835                           	opt lm
  1836                           
  1837                           	processor	18F4550
  1838                           porta	equ	0F80h
  1839                           portb	equ	0F81h
  1840                           portc	equ	0F82h
  1841                           portd	equ	0F83h
  1842                           porte	equ	0F84h
  1843                           lata	equ	0F89h
  1844                           latb	equ	0F8Ah
  1845                           latc	equ	0F8Bh
  1846                           latd	equ	0F8Ch
  1847                           late	equ	0F8Dh
  1848                           trisa	equ	0F92h
  1849                           trisb	equ	0F93h
  1850                           trisc	equ	0F94h
  1851                           trisd	equ	0F95h
  1852                           trise	equ	0F96h
  1853                           pie1	equ	0F9Dh
  1854                           pir1	equ	0F9Eh
  1855                           ipr1	equ	0F9Fh
  1856                           pie2	equ	0FA0h
  1857                           pir2	equ	0FA1h
  1858                           ipr2	equ	0FA2h
  1859                           t3con	equ	0FB1h
  1860                           tmr3l	equ	0FB2h
  1861                           tmr3h	equ	0FB3h
  1862                           ccp1con	equ	0FBDh
  1863                           ccpr1l	equ	0FBEh
  1864                           ccpr1h	equ	0FBFh
  1865                           adcon1	equ	0FC1h
  1866  000F36                     __ptext3:
  1867                           opt subtitle "HI-TECH Software Omniscient Code Generator (Lite mode) build 49521"
  1868                           
  1869                           opt pagewidth 120
  1870                           
  1871  0000                     	__size_of_envia_dado	equ	__end_of_envia_dado-_envia_dado
  1872                           opt subtitle "HI-TECH Software Omniscient Code Generator (Lite mode) build 49521"
  1873  000F36                     _envia_dado:
  1874                           opt subtitle "HI-TECH Software Omniscient Code Generator (Lite mode) build 49521"
  1875                           
  1876                           opt pagewidth 120
  1877  000F36                     l952:
  1878                           opt subtitle "HI-TECH Software Omniscient Code Generator (Lite mode) build 49521"
  1879  000F36  C009  F003         	movff	(c:envia_dado@dado),(c:?_envia_lcd)
  1880  000F3A  6E0A               	movwf	(??_envia_dado+0+0)&0ffh,c
  1881  000F3C  0E01               	movlw	low(01h)
  1882  000F3E  6E04               	movwf	(0+((c:?_envia_lcd)+01h)),c
  1883  000F40  500A               	movf	(??_envia_dado+0+0)&0ffh,c,w
  1884  000F42  0E00               	movlw	high(02Dh)
  1885  000F44  6E06               	movwf	(1+((c:?_envia_lcd)+02h)),c
  1886  000F46  0E2D               	movlw	low(02Dh)
  1887  000F48  6E05               	movwf	(0+((c:?_envia_lcd)+02h)),c
  1888  000F4A  ECFB  F005         	call	_envia_lcd	;wreg free
  1889                           opt subtitle "HI-TECH Software Omniscient Code Generator (Lite mode) build 49521"
  1890                           
  1891  000F4E                     l105:
  1892  000F4E  0012               	return
  1893                           opt subtitle "HI-TECH Software Omniscient Code Generator (Lite mode) build 49521"
  1894                           
  1895  000F50                     	__end_of_envia_dado:
  1896                           opt subtitle "HI-TECH Software Omniscient Code Generator (Lite mode) build 49521"
  1897                           
  1898                           opt pagewidth 120
  1899                           
  1900                           	opt lm
  1901                           
  1902                           	processor	18F4550
  1903                           porta	equ	0F80h
  1904                           portb	equ	0F81h
  1905                           portc	equ	0F82h
  1906                           portd	equ	0F83h
  1907                           porte	equ	0F84h
  1908                           lata	equ	0F89h
  1909                           latb	equ	0F8Ah
  1910                           latc	equ	0F8Bh
  1911                           latd	equ	0F8Ch
  1912                           late	equ	0F8Dh
  1913                           trisa	equ	0F92h
  1914                           trisb	equ	0F93h
  1915                           trisc	equ	0F94h
  1916                           trisd	equ	0F95h
  1917                           trise	equ	0F96h
  1918                           pie1	equ	0F9Dh
  1919                           pir1	equ	0F9Eh
  1920                           ipr1	equ	0F9Fh
  1921                           pie2	equ	0FA0h
  1922                           pir2	equ	0FA1h
  1923                           ipr2	equ	0FA2h
  1924                           t3con	equ	0FB1h
  1925                           tmr3l	equ	0FB2h
  1926                           tmr3h	equ	0FB3h
  1927                           ccp1con	equ	0FBDh
  1928                           ccpr1l	equ	0FBEh
  1929                           ccpr1h	equ	0FBFh
  1930                           adcon1	equ	0FC1h
  1931                           adcon0	equ	0FC2h
  1932  000CF2                     __ptext4:
  1933                           opt subtitle "HI-TECH Software Omniscient Code Generator (Lite mode) build 49521"
  1934                           
  1935                           opt pagewidth 120
  1936                           
  1937  0000                     	__size_of_pos_lcd	equ	__end_of_pos_lcd-_pos_lcd
  1938                           opt subtitle "HI-TECH Software Omniscient Code Generator (Lite mode) build 49521"
  1939  000CF2                     _pos_lcd:
  1940                           opt subtitle "HI-TECH Software Omniscient Code Generator (Lite mode) build 49521"
  1941                           
  1942                           opt pagewidth 120
  1943  000CF2                     l936:
  1944                           opt subtitle "HI-TECH Software Omniscient Code Generator (Lite mode) build 49521"
  1945  000CF2  0409               	decf	((c:pos_lcd@line)),c,w
  1946                           opt subtitle "HI-TECH Software Omniscient Code Generator (Lite mode) build 49521"
  1947  000CF4  A4D8               	btfss	status,2
  1948  000CF6  D001               	goto	u171
  1949  000CF8  D001               	goto	u170
  1950  000CFA                     u171:
  1951  000CFA  D00E               	goto	l940
  1952  000CFC                     u170:
  1953                           opt subtitle "HI-TECH Software Omniscient Code Generator (Lite mode) build 49521"
  1954                           
  1955  000CFC                     l938:
  1956                           opt subtitle "HI-TECH Software Omniscient Code Generator (Lite mode) build 49521"
  1957  000CFC  500A               	movf	((c:pos_lcd@column)),c,w
  1958  000CFE  0F7F               	addlw	low(07Fh)
  1959  000D00  6E03               	movwf	((c:?_envia_lcd)),c
  1960  000D02  6E0B               	movwf	(??_pos_lcd+0+0)&0ffh,c
  1961  000D04  0E00               	movlw	low(0)
  1962  000D06  6E04               	movwf	(0+((c:?_envia_lcd)+01h)),c
  1963  000D08  500B               	movf	(??_pos_lcd+0+0)&0ffh,c,w
  1964  000D0A  0E00               	movlw	high(028h)
  1965  000D0C  6E06               	movwf	(1+((c:?_envia_lcd)+02h)),c
  1966  000D0E  0E28               	movlw	low(028h)
  1967  000D10  6E05               	movwf	(0+((c:?_envia_lcd)+02h)),c
  1968  000D12  ECFB  F005         	call	_envia_lcd	;wreg free
  1969  000D16  D000               	goto	l940
  1970                           opt subtitle "HI-TECH Software Omniscient Code Generator (Lite mode) build 49521"
  1971  000D18                     l98:
  1972                           opt subtitle "HI-TECH Software Omniscient Code Generator (Lite mode) build 49521"
  1973                           
  1974  000D18                     l940:
  1975                           opt subtitle "HI-TECH Software Omniscient Code Generator (Lite mode) build 49521"
  1976  000D18  5009               	movf	((c:pos_lcd@line)),c,w
  1977  000D1A  0A02               	xorlw	2
  1978                           opt subtitle "HI-TECH Software Omniscient Code Generator (Lite mode) build 49521"
  1979  000D1C  A4D8               	btfss	status,2
  1980  000D1E  D001               	goto	u181
  1981  000D20  D001               	goto	u180
  1982  000D22                     u181:
  1983  000D22  D00E               	goto	l944
  1984  000D24                     u180:
  1985                           opt subtitle "HI-TECH Software Omniscient Code Generator (Lite mode) build 49521"
  1986                           
  1987  000D24                     l942:
  1988                           opt subtitle "HI-TECH Software Omniscient Code Generator (Lite mode) build 49521"
  1989  000D24  500A               	movf	((c:pos_lcd@column)),c,w
  1990  000D26  0FBF               	addlw	low(0BFh)
  1991  000D28  6E03               	movwf	((c:?_envia_lcd)),c
  1992  000D2A  6E0B               	movwf	(??_pos_lcd+0+0)&0ffh,c
  1993  000D2C  0E00               	movlw	low(0)
  1994  000D2E  6E04               	movwf	(0+((c:?_envia_lcd)+01h)),c
  1995  000D30  500B               	movf	(??_pos_lcd+0+0)&0ffh,c,w
  1996  000D32  0E00               	movlw	high(028h)
  1997  000D34  6E06               	movwf	(1+((c:?_envia_lcd)+02h)),c
  1998  000D36  0E28               	movlw	low(028h)
  1999  000D38  6E05               	movwf	(0+((c:?_envia_lcd)+02h)),c
  2000  000D3A  ECFB  F005         	call	_envia_lcd	;wreg free
  2001  000D3E  D000               	goto	l944
  2002                           opt subtitle "HI-TECH Software Omniscient Code Generator (Lite mode) build 49521"
  2003  000D40                     l99:
  2004                           opt subtitle "HI-TECH Software Omniscient Code Generator (Lite mode) build 49521"
  2005                           
  2006  000D40                     l944:
  2007                           opt subtitle "HI-TECH Software Omniscient Code Generator (Lite mode) build 49521"
  2008  000D40  5009               	movf	((c:pos_lcd@line)),c,w
  2009  000D42  0A03               	xorlw	3
  2010                           opt subtitle "HI-TECH Software Omniscient Code Generator (Lite mode) build 49521"
  2011  000D44  A4D8               	btfss	status,2
  2012  000D46  D001               	goto	u191
  2013  000D48  D001               	goto	u190
  2014  000D4A                     u191:
  2015  000D4A  D00E               	goto	l948
  2016  000D4C                     u190:
  2017                           opt subtitle "HI-TECH Software Omniscient Code Generator (Lite mode) build 49521"
  2018                           
  2019  000D4C                     l946:
  2020                           opt subtitle "HI-TECH Software Omniscient Code Generator (Lite mode) build 49521"
  2021  000D4C  500A               	movf	((c:pos_lcd@column)),c,w
  2022  000D4E  0F93               	addlw	low(093h)
  2023  000D50  6E03               	movwf	((c:?_envia_lcd)),c
  2024  000D52  6E0B               	movwf	(??_pos_lcd+0+0)&0ffh,c
  2025  000D54  0E00               	movlw	low(0)
  2026  000D56  6E04               	movwf	(0+((c:?_envia_lcd)+01h)),c
  2027  000D58  500B               	movf	(??_pos_lcd+0+0)&0ffh,c,w
  2028  000D5A  0E00               	movlw	high(028h)
  2029  000D5C  6E06               	movwf	(1+((c:?_envia_lcd)+02h)),c
  2030  000D5E  0E28               	movlw	low(028h)
  2031  000D60  6E05               	movwf	(0+((c:?_envia_lcd)+02h)),c
  2032  000D62  ECFB  F005         	call	_envia_lcd	;wreg free
  2033  000D66  D000               	goto	l948
  2034                           opt subtitle "HI-TECH Software Omniscient Code Generator (Lite mode) build 49521"
  2035  000D68                     l100:
  2036                           opt subtitle "HI-TECH Software Omniscient Code Generator (Lite mode) build 49521"
  2037                           
  2038  000D68                     l948:
  2039                           opt subtitle "HI-TECH Software Omniscient Code Generator (Lite mode) build 49521"
  2040  000D68  5009               	movf	((c:pos_lcd@line)),c,w
  2041  000D6A  0A04               	xorlw	4
  2042                           opt subtitle "HI-TECH Software Omniscient Code Generator (Lite mode) build 49521"
  2043  000D6C  A4D8               	btfss	status,2
  2044  000D6E  D001               	goto	u201
  2045  000D70  D001               	goto	u200
  2046  000D72                     u201:
  2047  000D72  D00E               	goto	l102
  2048  000D74                     u200:
  2049                           opt subtitle "HI-TECH Software Omniscient Code Generator (Lite mode) build 49521"
  2050                           
  2051  000D74                     l950:
  2052                           opt subtitle "HI-TECH Software Omniscient Code Generator (Lite mode) build 49521"
  2053  000D74  500A               	movf	((c:pos_lcd@column)),c,w
  2054  000D76  0FD3               	addlw	low(0D3h)
  2055  000D78  6E03               	movwf	((c:?_envia_lcd)),c
  2056  000D7A  6E0B               	movwf	(??_pos_lcd+0+0)&0ffh,c
  2057  000D7C  0E00               	movlw	low(0)
  2058  000D7E  6E04               	movwf	(0+((c:?_envia_lcd)+01h)),c
  2059  000D80  500B               	movf	(??_pos_lcd+0+0)&0ffh,c,w
  2060  000D82  0E00               	movlw	high(028h)
  2061  000D84  6E06               	movwf	(1+((c:?_envia_lcd)+02h)),c
  2062  000D86  0E28               	movlw	low(028h)
  2063  000D88  6E05               	movwf	(0+((c:?_envia_lcd)+02h)),c
  2064  000D8A  ECFB  F005         	call	_envia_lcd	;wreg free
  2065  000D8E  D000               	goto	l102
  2066                           opt subtitle "HI-TECH Software Omniscient Code Generator (Lite mode) build 49521"
  2067  000D90                     l101:
  2068                           opt subtitle "HI-TECH Software Omniscient Code Generator (Lite mode) build 49521"
  2069                           
  2070  000D90                     l102:
  2071  000D90  0012               	return
  2072                           opt subtitle "HI-TECH Software Omniscient Code Generator (Lite mode) build 49521"
  2073                           
  2074  000D92                     	__end_of_pos_lcd:
  2075                           opt subtitle "HI-TECH Software Omniscient Code Generator (Lite mode) build 49521"
  2076                           
  2077                           opt pagewidth 120
  2078                           
  2079                           	opt lm
  2080                           
  2081                           	processor	18F4550
  2082                           porta	equ	0F80h
  2083                           portb	equ	0F81h
  2084                           portc	equ	0F82h
  2085                           portd	equ	0F83h
  2086                           porte	equ	0F84h
  2087                           lata	equ	0F89h
  2088                           latb	equ	0F8Ah
  2089                           latc	equ	0F8Bh
  2090                           latd	equ	0F8Ch
  2091                           late	equ	0F8Dh
  2092                           trisa	equ	0F92h
  2093                           trisb	equ	0F93h
  2094                           trisc	equ	0F94h
  2095                           trisd	equ	0F95h
  2096                           trise	equ	0F96h
  2097                           pie1	equ	0F9Dh
  2098                           pir1	equ	0F9Eh
  2099                           ipr1	equ	0F9Fh
  2100                           pie2	equ	0FA0h
  2101                           pir2	equ	0FA1h
  2102                           ipr2	equ	0FA2h
  2103                           t3con	equ	0FB1h
  2104                           tmr3l	equ	0FB2h
  2105                           tmr3h	equ	0FB3h
  2106                           ccp1con	equ	0FBDh
  2107                           ccpr1l	equ	0FBEh
  2108                           ccpr1h	equ	0FBFh
  2109  000E3E                     __ptext5:
  2110                           opt subtitle "HI-TECH Software Omniscient Code Generator (Lite mode) build 49521"
  2111                           
  2112                           opt pagewidth 120
  2113                           
  2114  0000                     	__size_of_ctrl_lcd_cursor	equ	__end_of_ctrl_lcd_cursor-_ctrl_lcd_cursor
  2115                           opt subtitle "HI-TECH Software Omniscient Code Generator (Lite mode) build 49521"
  2116  000E3E                     _ctrl_lcd_cursor:
  2117                           opt subtitle "HI-TECH Software Omniscient Code Generator (Lite mode) build 49521"
  2118                           
  2119                           opt pagewidth 120
  2120  000E3E                     l932:
  2121                           opt subtitle "HI-TECH Software Omniscient Code Generator (Lite mode) build 49521"
  2122  000E3E  EE20  F032         	lfsr	2,(ctrl_lcd_cursor@F5309)
  2123  000E42  EE10  F00B         	lfsr	1,(ctrl_lcd_cursor@comando)
  2124  000E46  0E05               	movlw	5
  2125  000E48                     u161:
  2126  000E48  CFDE FFE6          	movff	postinc2,postinc1
  2127  000E4C  2EE8               	decfsz	wreg
  2128  000E4E  D7FC               	goto	u161
  2129                           opt subtitle "HI-TECH Software Omniscient Code Generator (Lite mode) build 49521"
  2130                           
  2131  000E50                     l934:
  2132                           opt subtitle "HI-TECH Software Omniscient Code Generator (Lite mode) build 49521"
  2133  000E50  5009               	movf	((c:ctrl_lcd_cursor@controle)),c,w
  2134  000E52  0D01               	mullw	01h
  2135  000E54  0E0B               	movlw	low((c:ctrl_lcd_cursor@comando))
  2136  000E56  24F3               	addwf	(prodl),c,w
  2137  000E58  6ED9               	movwf	c:fsr2l
  2138  000E5A  0E00               	movlw	high((c:ctrl_lcd_cursor@comando))
  2139  000E5C  20F4               	addwfc	prod+1,w
  2140  000E5E  6EDA               	movwf	1+c:fsr2l
  2141  000E60  50DF               	movf	indf2,w
  2142  000E62  6E03               	movwf	((c:?_envia_lcd)),c
  2143  000E64  6E0A               	movwf	(??_ctrl_lcd_cursor+0+0)&0ffh,c
  2144  000E66  0E00               	movlw	low(0)
  2145  000E68  6E04               	movwf	(0+((c:?_envia_lcd)+01h)),c
  2146  000E6A  500A               	movf	(??_ctrl_lcd_cursor+0+0)&0ffh,c,w
  2147  000E6C  0E00               	movlw	high(028h)
  2148  000E6E  6E06               	movwf	(1+((c:?_envia_lcd)+02h)),c
  2149  000E70  0E28               	movlw	low(028h)
  2150  000E72  6E05               	movwf	(0+((c:?_envia_lcd)+02h)),c
  2151  000E74  ECFB  F005         	call	_envia_lcd	;wreg free
  2152                           opt subtitle "HI-TECH Software Omniscient Code Generator (Lite mode) build 49521"
  2153                           
  2154  000E78                     l95:
  2155  000E78  0012               	return
  2156                           opt subtitle "HI-TECH Software Omniscient Code Generator (Lite mode) build 49521"
  2157                           
  2158  000E7A                     	__end_of_ctrl_lcd_cursor:
  2159                           opt subtitle "HI-TECH Software Omniscient Code Generator (Lite mode) build 49521"
  2160                           
  2161                           opt pagewidth 120
  2162                           
  2163                           	opt lm
  2164                           
  2165                           	processor	18F4550
  2166                           porta	equ	0F80h
  2167                           portb	equ	0F81h
  2168                           portc	equ	0F82h
  2169                           portd	equ	0F83h
  2170                           porte	equ	0F84h
  2171                           lata	equ	0F89h
  2172                           latb	equ	0F8Ah
  2173                           latc	equ	0F8Bh
  2174                           latd	equ	0F8Ch
  2175                           late	equ	0F8Dh
  2176                           trisa	equ	0F92h
  2177                           trisb	equ	0F93h
  2178                           trisc	equ	0F94h
  2179                           trisd	equ	0F95h
  2180                           trise	equ	0F96h
  2181                           pie1	equ	0F9Dh
  2182                           pir1	equ	0F9Eh
  2183                           ipr1	equ	0F9Fh
  2184                           pie2	equ	0FA0h
  2185                           pir2	equ	0FA1h
  2186                           ipr2	equ	0FA2h
  2187                           t3con	equ	0FB1h
  2188                           tmr3l	equ	0FB2h
  2189                           tmr3h	equ	0FB3h
  2190                           ccp1con	equ	0FBDh
  2191                           ccpr1l	equ	0FBEh
  2192                           ccpr1h	equ	0FBFh
  2193  000F18                     __ptext6:
  2194                           opt subtitle "HI-TECH Software Omniscient Code Generator (Lite mode) build 49521"
  2195                           
  2196                           opt pagewidth 120
  2197                           
  2198  0000                     	__size_of_limpa_tela	equ	__end_of_limpa_tela-_limpa_tela
  2199                           opt subtitle "HI-TECH Software Omniscient Code Generator (Lite mode) build 49521"
  2200  000F18                     _limpa_tela:
  2201                           opt subtitle "HI-TECH Software Omniscient Code Generator (Lite mode) build 49521"
  2202                           
  2203                           opt pagewidth 120
  2204  000F18                     l930:
  2205                           opt subtitle "HI-TECH Software Omniscient Code Generator (Lite mode) build 49521"
  2206  000F18  6E09               	movwf	(??_limpa_tela+0+0)&0ffh,c
  2207  000F1A  0E01               	movlw	low(01h)
  2208  000F1C  6E03               	movwf	((c:?_envia_lcd)),c
  2209  000F1E  5009               	movf	(??_limpa_tela+0+0)&0ffh,c,w
  2210  000F20  6E0A               	movwf	(??_limpa_tela+1+0)&0ffh,c
  2211  000F22  0E00               	movlw	low(0)
  2212  000F24  6E04               	movwf	(0+((c:?_envia_lcd)+01h)),c
  2213  000F26  500A               	movf	(??_limpa_tela+1+0)&0ffh,c,w
  2214  000F28  0E07               	movlw	high(07D0h)
  2215  000F2A  6E06               	movwf	(1+((c:?_envia_lcd)+02h)),c
  2216  000F2C  0ED0               	movlw	low(07D0h)
  2217  000F2E  6E05               	movwf	(0+((c:?_envia_lcd)+02h)),c
  2218  000F30  ECFB  F005         	call	_envia_lcd	;wreg free
  2219                           opt subtitle "HI-TECH Software Omniscient Code Generator (Lite mode) build 49521"
  2220                           
  2221  000F34                     l80:
  2222  000F34  0012               	return
  2223                           opt subtitle "HI-TECH Software Omniscient Code Generator (Lite mode) build 49521"
  2224                           
  2225  000F36                     	__end_of_limpa_tela:
  2226                           opt subtitle "HI-TECH Software Omniscient Code Generator (Lite mode) build 49521"
  2227                           
  2228                           opt pagewidth 120
  2229                           
  2230                           	opt lm
  2231                           
  2232                           	processor	18F4550
  2233                           porta	equ	0F80h
  2234                           portb	equ	0F81h
  2235                           portc	equ	0F82h
  2236                           portd	equ	0F83h
  2237                           porte	equ	0F84h
  2238                           lata	equ	0F89h
  2239                           latb	equ	0F8Ah
  2240                           latc	equ	0F8Bh
  2241                           latd	equ	0F8Ch
  2242                           late	equ	0F8Dh
  2243                           trisa	equ	0F92h
  2244                           trisb	equ	0F93h
  2245                           trisc	equ	0F94h
  2246                           trisd	equ	0F95h
  2247                           trise	equ	0F96h
  2248                           pie1	equ	0F9Dh
  2249                           pir1	equ	0F9Eh
  2250                           ipr1	equ	0F9Fh
  2251                           pie2	equ	0FA0h
  2252                           pir2	equ	0FA1h
  2253                           ipr2	equ	0FA2h
  2254                           t3con	equ	0FB1h
  2255                           tmr3l	equ	0FB2h
  2256                           tmr3h	equ	0FB3h
  2257                           ccp1con	equ	0FBDh
  2258                           ccpr1l	equ	0FBEh
  2259                           ccpr1h	equ	0FBFh
  2260                           adcon1	equ	0FC1h
  2261                           adcon0	equ	0FC2h
  2262                           adresl	equ	0FC3h
  2263                           adresh	equ	0FC4h
  2264                           sspcon2	equ	0FC5h
  2265                           sspcon1	equ	0FC6h
  2266                           sspstat	equ	0FC7h
  2267                           sspadd	equ	0FC8h
  2268                           sspbuf	equ	0FC9h
  2269  000BF6                     __ptext7:
  2270                           opt subtitle "HI-TECH Software Omniscient Code Generator (Lite mode) build 49521"
  2271                           
  2272                           opt pagewidth 120
  2273                           
  2274  0000                     	__size_of_envia_lcd	equ	__end_of_envia_lcd-_envia_lcd
  2275                           opt subtitle "HI-TECH Software Omniscient Code Generator (Lite mode) build 49521"
  2276  000BF6                     _envia_lcd:
  2277                           opt subtitle "HI-TECH Software Omniscient Code Generator (Lite mode) build 49521"
  2278                           
  2279                           opt pagewidth 120
  2280  000BF6                     l908:
  2281                           opt subtitle "HI-TECH Software Omniscient Code Generator (Lite mode) build 49521"
  2282  000BF6  B004               	btfsc	(c:envia_lcd@cmd_data),c,0
  2283  000BF8  D002               	bra	u115
  2284  000BFA  9483               	bcf	((c:3971)),c,2	;volatile
  2285  000BFC  D001               	bra	u116
  2286  000BFE                     	u115:
  2287  000BFE  8483               	bsf	((c:3971)),c,2	;volatile
  2288  000C00                     	u116:
  2289                           opt subtitle "HI-TECH Software Omniscient Code Generator (Lite mode) build 49521"
  2290                           
  2291                           opt pagewidth 120
  2292  000C00                     l910:
  2293                           opt subtitle "HI-TECH Software Omniscient Code Generator (Lite mode) build 49521"
  2294  000C00  6A07               	clrf	(??_envia_lcd+0+0)&0ffh,c
  2295  000C02  AE03               	btfss	((c:envia_lcd@byte)),c,7
  2296  000C04  D001               	bra	u125
  2297  000C06  2A07               	incf	(??_envia_lcd+0+0)&0ffh,c
  2298  000C08                     	u125:
  2299  000C08  3207               	rrcf	(??_envia_lcd+0+0),c
  2300  000C0A  3207               	rrcf	(??_envia_lcd+0+0),c
  2301  000C0C  5083               	movf	((c:3971)),c,w	;volatile
  2302  000C0E  1807               	xorwf	(??_envia_lcd+0+0),c,w
  2303  000C10  0B7F               	andlw	not (((1<<1)-1)<<7)
  2304  000C12  1807               	xorwf	(??_envia_lcd+0+0),c,w
  2305  000C14  6E83               	movwf	((c:3971)),c	;volatile
  2306                           opt subtitle "HI-TECH Software Omniscient Code Generator (Lite mode) build 49521"
  2307                           
  2308  000C16  C003  F007         	movff	(c:envia_lcd@byte),??_envia_lcd+0+0
  2309  000C1A  0E06               	movlw	06h
  2310  000C1C  6E08               	movwf	(??_envia_lcd+1+0)&0ffh,c
  2311  000C1E                     u135:
  2312  000C1E  90D8               	bcf	status,0
  2313  000C20  3207               	rrcf	(??_envia_lcd+0+0),c
  2314  000C22  2E08               	decfsz	(??_envia_lcd+1+0)&0ffh,c
  2315  000C24  D7FC               	goto	u135
  2316  000C26  3A07               	swapf	(??_envia_lcd+0+0),c
  2317  000C28  4607               	rlncf	(??_envia_lcd+0+0),c
  2318  000C2A  4607               	rlncf	(??_envia_lcd+0+0),c
  2319  000C2C  5083               	movf	((c:3971)),c,w	;volatile
  2320  000C2E  1807               	xorwf	(??_envia_lcd+0+0),c,w
  2321  000C30  0BBF               	andlw	not (((1<<1)-1)<<6)
  2322  000C32  1807               	xorwf	(??_envia_lcd+0+0),c,w
  2323  000C34  6E83               	movwf	((c:3971)),c	;volatile
  2324                           opt subtitle "HI-TECH Software Omniscient Code Generator (Lite mode) build 49521"
  2325                           
  2326  000C36  C003  F007         	movff	(c:envia_lcd@byte),??_envia_lcd+0+0
  2327  000C3A  0E05               	movlw	05h
  2328  000C3C  6E08               	movwf	(??_envia_lcd+1+0)&0ffh,c
  2329  000C3E                     u145:
  2330  000C3E  90D8               	bcf	status,0
  2331  000C40  3207               	rrcf	(??_envia_lcd+0+0),c
  2332  000C42  2E08               	decfsz	(??_envia_lcd+1+0)&0ffh,c
  2333  000C44  D7FC               	goto	u145
  2334  000C46  3A07               	swapf	(??_envia_lcd+0+0),c
  2335  000C48  4607               	rlncf	(??_envia_lcd+0+0),c
  2336  000C4A  5083               	movf	((c:3971)),c,w	;volatile
  2337  000C4C  1807               	xorwf	(??_envia_lcd+0+0),c,w
  2338  000C4E  0BDF               	andlw	not (((1<<1)-1)<<5)
  2339  000C50  1807               	xorwf	(??_envia_lcd+0+0),c,w
  2340  000C52  6E83               	movwf	((c:3971)),c	;volatile
  2341                           opt subtitle "HI-TECH Software Omniscient Code Generator (Lite mode) build 49521"
  2342                           
  2343  000C54  C003  F007         	movff	(c:envia_lcd@byte),??_envia_lcd+0+0
  2344  000C58  3A07               	swapf	(??_envia_lcd+0+0),c
  2345  000C5A  0E0F               	movlw	(0ffh shr 4) & 0ffh
  2346  000C5C  1607               	andwf	(??_envia_lcd+0+0),c
  2347  000C5E  3A07               	swapf	(??_envia_lcd+0+0),c
  2348  000C60  5083               	movf	((c:3971)),c,w	;volatile
  2349  000C62  1807               	xorwf	(??_envia_lcd+0+0),c,w
  2350  000C64  0BEF               	andlw	not (((1<<1)-1)<<4)
  2351  000C66  1807               	xorwf	(??_envia_lcd+0+0),c,w
  2352  000C68  6E83               	movwf	((c:3971)),c	;volatile
  2353                           opt subtitle "HI-TECH Software Omniscient Code Generator (Lite mode) build 49521"
  2354                           
  2355  000C6A                     l912:
  2356                           opt subtitle "HI-TECH Software Omniscient Code Generator (Lite mode) build 49521"
  2357  000C6A  8683               	bsf	((c:3971)),c,3	;volatile
  2358                           opt subtitle "HI-TECH Software Omniscient Code Generator (Lite mode) build 49521"
  2359  000C6C                     l914:
  2360  000C6C  0E00               	movlw	high(02h)
  2361  000C6E  6E02               	movwf	((c:?_tempo_us+1)),c
  2362  000C70  0E02               	movlw	low(02h)
  2363  000C72  6E01               	movwf	((c:?_tempo_us)),c
  2364  000C74  EC79  F005         	call	_tempo_us	;wreg free
  2365                           opt subtitle "HI-TECH Software Omniscient Code Generator (Lite mode) build 49521"
  2366  000C78                     l916:
  2367  000C78  9683               	bcf	((c:3971)),c,3	;volatile
  2368                           opt subtitle "HI-TECH Software Omniscient Code Generator (Lite mode) build 49521"
  2369                           
  2370  000C7A                     l918:
  2371                           opt subtitle "HI-TECH Software Omniscient Code Generator (Lite mode) build 49521"
  2372  000C7A  C003  F007         	movff	(c:envia_lcd@byte),??_envia_lcd+0+0
  2373  000C7E  90D8               	bcf	status,0
  2374  000C80  3207               	rrcf	(??_envia_lcd+0+0),c
  2375  000C82  90D8               	bcf	status,0
  2376  000C84  3207               	rrcf	(??_envia_lcd+0+0),c
  2377  000C86  90D8               	bcf	status,0
  2378  000C88  3207               	rrcf	(??_envia_lcd+0+0),c
  2379                           opt subtitle "HI-TECH Software Omniscient Code Generator (Lite mode) build 49521"
  2380  000C8A  3207               	rrcf	(??_envia_lcd+0+0),c
  2381  000C8C  3207               	rrcf	(??_envia_lcd+0+0),c
  2382  000C8E  5083               	movf	((c:3971)),c,w	;volatile
  2383  000C90  1807               	xorwf	(??_envia_lcd+0+0),c,w
  2384  000C92  0B7F               	andlw	not (((1<<1)-1)<<7)
  2385  000C94  1807               	xorwf	(??_envia_lcd+0+0),c,w
  2386  000C96  6E83               	movwf	((c:3971)),c	;volatile
  2387                           opt subtitle "HI-TECH Software Omniscient Code Generator (Lite mode) build 49521"
  2388                           
  2389  000C98                     l920:
  2390                           opt subtitle "HI-TECH Software Omniscient Code Generator (Lite mode) build 49521"
  2391  000C98  C003  F007         	movff	(c:envia_lcd@byte),??_envia_lcd+0+0
  2392  000C9C  90D8               	bcf	status,0
  2393  000C9E  3207               	rrcf	(??_envia_lcd+0+0),c
  2394  000CA0  90D8               	bcf	status,0
  2395  000CA2  3207               	rrcf	(??_envia_lcd+0+0),c
  2396                           opt subtitle "HI-TECH Software Omniscient Code Generator (Lite mode) build 49521"
  2397  000CA4  3A07               	swapf	(??_envia_lcd+0+0),c
  2398  000CA6  4607               	rlncf	(??_envia_lcd+0+0),c
  2399  000CA8  4607               	rlncf	(??_envia_lcd+0+0),c
  2400  000CAA  5083               	movf	((c:3971)),c,w	;volatile
  2401  000CAC  1807               	xorwf	(??_envia_lcd+0+0),c,w
  2402  000CAE  0BBF               	andlw	not (((1<<1)-1)<<6)
  2403  000CB0  1807               	xorwf	(??_envia_lcd+0+0),c,w
  2404  000CB2  6E83               	movwf	((c:3971)),c	;volatile
  2405                           opt subtitle "HI-TECH Software Omniscient Code Generator (Lite mode) build 49521"
  2406                           
  2407  000CB4                     l922:
  2408                           opt subtitle "HI-TECH Software Omniscient Code Generator (Lite mode) build 49521"
  2409  000CB4  C003  F007         	movff	(c:envia_lcd@byte),??_envia_lcd+0+0
  2410  000CB8  90D8               	bcf	status,0
  2411  000CBA  3207               	rrcf	(??_envia_lcd+0+0),c
  2412                           opt subtitle "HI-TECH Software Omniscient Code Generator (Lite mode) build 49521"
  2413  000CBC  3A07               	swapf	(??_envia_lcd+0+0),c
  2414  000CBE  4607               	rlncf	(??_envia_lcd+0+0),c
  2415  000CC0  5083               	movf	((c:3971)),c,w	;volatile
  2416  000CC2  1807               	xorwf	(??_envia_lcd+0+0),c,w
  2417  000CC4  0BDF               	andlw	not (((1<<1)-1)<<5)
  2418  000CC6  1807               	xorwf	(??_envia_lcd+0+0),c,w
  2419  000CC8  6E83               	movwf	((c:3971)),c	;volatile
  2420                           opt subtitle "HI-TECH Software Omniscient Code Generator (Lite mode) build 49521"
  2421                           
  2422  000CCA                     l924:
  2423                           opt subtitle "HI-TECH Software Omniscient Code Generator (Lite mode) build 49521"
  2424  000CCA  B003               	btfsc	(c:envia_lcd@byte),c,0
  2425  000CCC  D002               	bra	u155
  2426  000CCE  9883               	bcf	((c:3971)),c,4	;volatile
  2427  000CD0  D001               	bra	u156
  2428  000CD2                     	u155:
  2429  000CD2  8883               	bsf	((c:3971)),c,4	;volatile
  2430  000CD4                     	u156:
  2431                           opt subtitle "HI-TECH Software Omniscient Code Generator (Lite mode) build 49521"
  2432                           
  2433                           opt pagewidth 120
  2434  000CD4                     l926:
  2435                           opt subtitle "HI-TECH Software Omniscient Code Generator (Lite mode) build 49521"
  2436  000CD4  8683               	bsf	((c:3971)),c,3	;volatile
  2437  000CD6  0E00               	movlw	high(02h)
  2438  000CD8  6E02               	movwf	((c:?_tempo_us+1)),c
  2439  000CDA  0E02               	movlw	low(02h)
  2440  000CDC  6E01               	movwf	((c:?_tempo_us)),c
  2441  000CDE  EC79  F005         	call	_tempo_us	;wreg free
  2442                           opt subtitle "HI-TECH Software Omniscient Code Generator (Lite mode) build 49521"
  2443  000CE2                     l928:
  2444  000CE2  9683               	bcf	((c:3971)),c,3	;volatile
  2445                           opt subtitle "HI-TECH Software Omniscient Code Generator (Lite mode) build 49521"
  2446                           
  2447  000CE4  C005  F001         	movff	(c:envia_lcd@delay),(c:?_tempo_us)
  2448  000CE8  C006  F002         	movff	(c:envia_lcd@delay+1),(c:?_tempo_us+1)
  2449  000CEC  EC79  F005         	call	_tempo_us	;wreg free
  2450                           opt subtitle "HI-TECH Software Omniscient Code Generator (Lite mode) build 49521"
  2451                           
  2452  000CF0                     l74:
  2453  000CF0  0012               	return
  2454                           opt subtitle "HI-TECH Software Omniscient Code Generator (Lite mode) build 49521"
  2455                           
  2456  000CF2                     	__end_of_envia_lcd:
  2457                           opt subtitle "HI-TECH Software Omniscient Code Generator (Lite mode) build 49521"
  2458                           
  2459                           opt pagewidth 120
  2460                           
  2461                           	opt lm
  2462                           
  2463                           	processor	18F4550
  2464                           porta	equ	0F80h
  2465                           portb	equ	0F81h
  2466                           portc	equ	0F82h
  2467                           portd	equ	0F83h
  2468                           porte	equ	0F84h
  2469                           lata	equ	0F89h
  2470                           latb	equ	0F8Ah
  2471                           latc	equ	0F8Bh
  2472                           latd	equ	0F8Ch
  2473                           late	equ	0F8Dh
  2474                           trisa	equ	0F92h
  2475                           trisb	equ	0F93h
  2476                           trisc	equ	0F94h
  2477                           trisd	equ	0F95h
  2478                           trise	equ	0F96h
  2479                           pie1	equ	0F9Dh
  2480                           pir1	equ	0F9Eh
  2481                           ipr1	equ	0F9Fh
  2482                           pie2	equ	0FA0h
  2483                           pir2	equ	0FA1h
  2484                           ipr2	equ	0FA2h
  2485                           t3con	equ	0FB1h
  2486                           tmr3l	equ	0FB2h
  2487                           tmr3h	equ	0FB3h
  2488                           ccp1con	equ	0FBDh
  2489                           ccpr1l	equ	0FBEh
  2490                           ccpr1h	equ	0FBFh
  2491  000AF2                     __ptext8:
  2492                           opt subtitle "HI-TECH Software Omniscient Code Generator (Lite mode) build 49521"
  2493                           
  2494                           opt pagewidth 120
  2495                           
  2496  0000                     	__size_of_tempo_us	equ	__end_of_tempo_us-_tempo_us
  2497                           opt subtitle "HI-TECH Software Omniscient Code Generator (Lite mode) build 49521"
  2498  000AF2                     _tempo_us:
  2499                           opt subtitle "HI-TECH Software Omniscient Code Generator (Lite mode) build 49521"
  2500                           
  2501                           opt pagewidth 120
  2502  000AF2                     l864:
  2503                           opt subtitle "HI-TECH Software Omniscient Code Generator (Lite mode) build 49521"
  2504  000AF2  D074               	goto	l902
  2505                           opt subtitle "HI-TECH Software Omniscient Code Generator (Lite mode) build 49521"
  2506                           
  2507  000AF4                     l866:
  2508                           opt subtitle "HI-TECH Software Omniscient Code Generator (Lite mode) build 49521"
  2509                           
  2510  000AF4  D009               	goto	l48
  2511                           opt subtitle "HI-TECH Software Omniscient Code Generator (Lite mode) build 49521"
  2512  000AF6                     l49:
  2513                           opt subtitle "HI-TECH Software Omniscient Code Generator (Lite mode) build 49521"
  2514                           
  2515  000AF6                     l868:
  2516                           opt subtitle "HI-TECH Software Omniscient Code Generator (Lite mode) build 49521"
  2517                           
  2518  000AF6  0E03               	movlw	3
  2519  000AF8                     u327:
  2520  000AF8  2EE8               decfsz	wreg,f
  2521  000AFA  D7FE               	goto	u327
  2522  000AFC  F000               	nop
  2523                           opt subtitle "HI-TECH Software Omniscient Code Generator (Lite mode) build 49521"
  2524                           
  2525                           opt pagewidth 120
  2526  000AFE                     l870:
  2527                           opt subtitle "HI-TECH Software Omniscient Code Generator (Lite mode) build 49521"
  2528  000AFE  F000               	nop
  2529                           opt subtitle "HI-TECH Software Omniscient Code Generator (Lite mode) build 49521"
  2530                           
  2531  000B00                     l872:
  2532                           opt subtitle "HI-TECH Software Omniscient Code Generator (Lite mode) build 49521"
  2533  000B00  F000               	nop
  2534                           opt subtitle "HI-TECH Software Omniscient Code Generator (Lite mode) build 49521"
  2535                           
  2536  000B02                     l874:
  2537                           opt subtitle "HI-TECH Software Omniscient Code Generator (Lite mode) build 49521"
  2538  000B02  0601               	decf	((c:tempo_us@tempo)),c
  2539  000B04  A0D8               	btfss	status,0
  2540  000B06  0602               	decf	((c:tempo_us@tempo+1)),c
  2541                           opt subtitle "HI-TECH Software Omniscient Code Generator (Lite mode) build 49521"
  2542                           
  2543  000B08                     l48:
  2544                           opt subtitle "HI-TECH Software Omniscient Code Generator (Lite mode) build 49521"
  2545  000B08  5002               	movf	((c:tempo_us@tempo+1)),c,w
  2546  000B0A  0A80               	xorlw	80h
  2547  000B0C  0F80               	addlw	-((0)^80h)
  2548  000B0E  0E01               	movlw	01h
  2549  000B10  B4D8               	btfsc	status,2
  2550  000B12  5C01               	subwf	((c:tempo_us@tempo)),c,w
  2551  000B14  B0D8               	btfsc	status,0
  2552  000B16  D001               	goto	u51
  2553  000B18  D001               	goto	u50
  2554  000B1A                     u51:
  2555  000B1A  D7ED               	goto	l868
  2556  000B1C                     u50:
  2557  000B1C  D05F               	goto	l902
  2558                           opt subtitle "HI-TECH Software Omniscient Code Generator (Lite mode) build 49521"
  2559  000B1E                     l50:
  2560  000B1E  D05E               	goto	l902
  2561                           opt subtitle "HI-TECH Software Omniscient Code Generator (Lite mode) build 49521"
  2562                           
  2563  000B20                     l47:
  2564                           opt subtitle "HI-TECH Software Omniscient Code Generator (Lite mode) build 49521"
  2565                           
  2566                           opt pagewidth 120
  2567                           
  2568  000B20  D05D               	goto	l902
  2569                           opt subtitle "HI-TECH Software Omniscient Code Generator (Lite mode) build 49521"
  2570                           
  2571  000B22                     l876:
  2572                           opt subtitle "HI-TECH Software Omniscient Code Generator (Lite mode) build 49521"
  2573                           
  2574  000B22  D007               	goto	l52
  2575                           opt subtitle "HI-TECH Software Omniscient Code Generator (Lite mode) build 49521"
  2576  000B24                     l53:
  2577                           opt subtitle "HI-TECH Software Omniscient Code Generator (Lite mode) build 49521"
  2578                           
  2579  000B24                     l878:
  2580                           opt subtitle "HI-TECH Software Omniscient Code Generator (Lite mode) build 49521"
  2581                           
  2582  000B24  0E03               	movlw	3
  2583  000B26                     u337:
  2584  000B26  2EE8               decfsz	wreg,f
  2585  000B28  D7FE               	goto	u337
  2586  000B2A  F000               	nop
  2587                           opt subtitle "HI-TECH Software Omniscient Code Generator (Lite mode) build 49521"
  2588                           
  2589                           opt pagewidth 120
  2590  000B2C                     l880:
  2591                           opt subtitle "HI-TECH Software Omniscient Code Generator (Lite mode) build 49521"
  2592  000B2C  0601               	decf	((c:tempo_us@tempo)),c
  2593  000B2E  A0D8               	btfss	status,0
  2594  000B30  0602               	decf	((c:tempo_us@tempo+1)),c
  2595                           opt subtitle "HI-TECH Software Omniscient Code Generator (Lite mode) build 49521"
  2596                           
  2597  000B32                     l52:
  2598                           opt subtitle "HI-TECH Software Omniscient Code Generator (Lite mode) build 49521"
  2599  000B32  5002               	movf	((c:tempo_us@tempo+1)),c,w
  2600  000B34  0A80               	xorlw	80h
  2601  000B36  0F80               	addlw	-((0)^80h)
  2602  000B38  0E01               	movlw	01h
  2603  000B3A  B4D8               	btfsc	status,2
  2604  000B3C  5C01               	subwf	((c:tempo_us@tempo)),c,w
  2605  000B3E  B0D8               	btfsc	status,0
  2606  000B40  D001               	goto	u61
  2607  000B42  D001               	goto	u60
  2608  000B44                     u61:
  2609  000B44  D7EF               	goto	l878
  2610  000B46                     u60:
  2611  000B46  D04A               	goto	l902
  2612                           opt subtitle "HI-TECH Software Omniscient Code Generator (Lite mode) build 49521"
  2613  000B48                     l54:
  2614  000B48  D049               	goto	l902
  2615                           opt subtitle "HI-TECH Software Omniscient Code Generator (Lite mode) build 49521"
  2616                           
  2617  000B4A                     l51:
  2618                           opt subtitle "HI-TECH Software Omniscient Code Generator (Lite mode) build 49521"
  2619                           
  2620                           opt pagewidth 120
  2621                           
  2622  000B4A  D048               	goto	l902
  2623                           opt subtitle "HI-TECH Software Omniscient Code Generator (Lite mode) build 49521"
  2624                           
  2625  000B4C                     l882:
  2626                           opt subtitle "HI-TECH Software Omniscient Code Generator (Lite mode) build 49521"
  2627                           
  2628  000B4C  D009               	goto	l886
  2629                           opt subtitle "HI-TECH Software Omniscient Code Generator (Lite mode) build 49521"
  2630  000B4E                     l57:
  2631                           opt subtitle "HI-TECH Software Omniscient Code Generator (Lite mode) build 49521"
  2632                           
  2633                           opt pagewidth 120
  2634  000B4E  F000               	nop
  2635                           opt subtitle "HI-TECH Software Omniscient Code Generator (Lite mode) build 49521"
  2636                           
  2637  000B50  F000               	nop
  2638                           opt subtitle "HI-TECH Software Omniscient Code Generator (Lite mode) build 49521"
  2639                           
  2640  000B52  F000               	nop
  2641                           opt subtitle "HI-TECH Software Omniscient Code Generator (Lite mode) build 49521"
  2642                           
  2643  000B54  F000               	nop
  2644                           opt subtitle "HI-TECH Software Omniscient Code Generator (Lite mode) build 49521"
  2645                           
  2646  000B56  F000               	nop
  2647                           opt subtitle "HI-TECH Software Omniscient Code Generator (Lite mode) build 49521"
  2648                           
  2649  000B58                     l884:
  2650                           opt subtitle "HI-TECH Software Omniscient Code Generator (Lite mode) build 49521"
  2651  000B58  0601               	decf	((c:tempo_us@tempo)),c
  2652  000B5A  A0D8               	btfss	status,0
  2653  000B5C  0602               	decf	((c:tempo_us@tempo+1)),c
  2654  000B5E  D000               	goto	l886
  2655                           opt subtitle "HI-TECH Software Omniscient Code Generator (Lite mode) build 49521"
  2656                           
  2657  000B60                     l56:
  2658                           opt subtitle "HI-TECH Software Omniscient Code Generator (Lite mode) build 49521"
  2659                           
  2660  000B60                     l886:
  2661  000B60  5002               	movf	((c:tempo_us@tempo+1)),c,w
  2662  000B62  0A80               	xorlw	80h
  2663  000B64  0F80               	addlw	-((0)^80h)
  2664  000B66  0E01               	movlw	01h
  2665  000B68  B4D8               	btfsc	status,2
  2666  000B6A  5C01               	subwf	((c:tempo_us@tempo)),c,w
  2667  000B6C  B0D8               	btfsc	status,0
  2668  000B6E  D001               	goto	u71
  2669  000B70  D001               	goto	u70
  2670  000B72                     u71:
  2671  000B72  D7ED               	goto	l57
  2672  000B74                     u70:
  2673  000B74  D033               	goto	l902
  2674                           opt subtitle "HI-TECH Software Omniscient Code Generator (Lite mode) build 49521"
  2675  000B76                     l58:
  2676  000B76  D032               	goto	l902
  2677                           opt subtitle "HI-TECH Software Omniscient Code Generator (Lite mode) build 49521"
  2678                           
  2679  000B78                     l55:
  2680                           opt subtitle "HI-TECH Software Omniscient Code Generator (Lite mode) build 49521"
  2681                           
  2682                           opt pagewidth 120
  2683                           
  2684  000B78  D031               	goto	l902
  2685                           opt subtitle "HI-TECH Software Omniscient Code Generator (Lite mode) build 49521"
  2686                           
  2687  000B7A                     l888:
  2688                           opt subtitle "HI-TECH Software Omniscient Code Generator (Lite mode) build 49521"
  2689                           
  2690  000B7A  D008               	goto	l892
  2691                           opt subtitle "HI-TECH Software Omniscient Code Generator (Lite mode) build 49521"
  2692  000B7C                     l61:
  2693                           opt subtitle "HI-TECH Software Omniscient Code Generator (Lite mode) build 49521"
  2694                           
  2695                           opt pagewidth 120
  2696  000B7C  F000               	nop
  2697                           opt subtitle "HI-TECH Software Omniscient Code Generator (Lite mode) build 49521"
  2698                           
  2699  000B7E  F000               	nop
  2700                           opt subtitle "HI-TECH Software Omniscient Code Generator (Lite mode) build 49521"
  2701                           
  2702  000B80  F000               	nop
  2703                           opt subtitle "HI-TECH Software Omniscient Code Generator (Lite mode) build 49521"
  2704                           
  2705  000B82  F000               	nop
  2706                           opt subtitle "HI-TECH Software Omniscient Code Generator (Lite mode) build 49521"
  2707                           
  2708  000B84                     l890:
  2709                           opt subtitle "HI-TECH Software Omniscient Code Generator (Lite mode) build 49521"
  2710  000B84  0601               	decf	((c:tempo_us@tempo)),c
  2711  000B86  A0D8               	btfss	status,0
  2712  000B88  0602               	decf	((c:tempo_us@tempo+1)),c
  2713  000B8A  D000               	goto	l892
  2714                           opt subtitle "HI-TECH Software Omniscient Code Generator (Lite mode) build 49521"
  2715                           
  2716  000B8C                     l60:
  2717                           opt subtitle "HI-TECH Software Omniscient Code Generator (Lite mode) build 49521"
  2718                           
  2719  000B8C                     l892:
  2720  000B8C  5002               	movf	((c:tempo_us@tempo+1)),c,w
  2721  000B8E  0A80               	xorlw	80h
  2722  000B90  0F80               	addlw	-((0)^80h)
  2723  000B92  0E01               	movlw	01h
  2724  000B94  B4D8               	btfsc	status,2
  2725  000B96  5C01               	subwf	((c:tempo_us@tempo)),c,w
  2726  000B98  B0D8               	btfsc	status,0
  2727  000B9A  D001               	goto	u81
  2728  000B9C  D001               	goto	u80
  2729  000B9E                     u81:
  2730  000B9E  D7EE               	goto	l61
  2731  000BA0                     u80:
  2732  000BA0  D01D               	goto	l902
  2733                           opt subtitle "HI-TECH Software Omniscient Code Generator (Lite mode) build 49521"
  2734  000BA2                     l62:
  2735  000BA2  D01C               	goto	l902
  2736                           opt subtitle "HI-TECH Software Omniscient Code Generator (Lite mode) build 49521"
  2737                           
  2738  000BA4                     l59:
  2739                           opt subtitle "HI-TECH Software Omniscient Code Generator (Lite mode) build 49521"
  2740                           
  2741                           opt pagewidth 120
  2742                           
  2743  000BA4  D01B               	goto	l902
  2744                           opt subtitle "HI-TECH Software Omniscient Code Generator (Lite mode) build 49521"
  2745                           
  2746  000BA6                     l894:
  2747                           opt subtitle "HI-TECH Software Omniscient Code Generator (Lite mode) build 49521"
  2748                           
  2749  000BA6  D007               	goto	l898
  2750                           opt subtitle "HI-TECH Software Omniscient Code Generator (Lite mode) build 49521"
  2751  000BA8                     l65:
  2752                           opt subtitle "HI-TECH Software Omniscient Code Generator (Lite mode) build 49521"
  2753                           
  2754                           opt pagewidth 120
  2755  000BA8  F000               	nop
  2756                           opt subtitle "HI-TECH Software Omniscient Code Generator (Lite mode) build 49521"
  2757                           
  2758  000BAA  F000               	nop
  2759                           opt subtitle "HI-TECH Software Omniscient Code Generator (Lite mode) build 49521"
  2760                           
  2761  000BAC  F000               	nop
  2762                           opt subtitle "HI-TECH Software Omniscient Code Generator (Lite mode) build 49521"
  2763                           
  2764  000BAE                     l896:
  2765                           opt subtitle "HI-TECH Software Omniscient Code Generator (Lite mode) build 49521"
  2766  000BAE  0601               	decf	((c:tempo_us@tempo)),c
  2767  000BB0  A0D8               	btfss	status,0
  2768  000BB2  0602               	decf	((c:tempo_us@tempo+1)),c
  2769  000BB4  D000               	goto	l898
  2770                           opt subtitle "HI-TECH Software Omniscient Code Generator (Lite mode) build 49521"
  2771                           
  2772  000BB6                     l64:
  2773                           opt subtitle "HI-TECH Software Omniscient Code Generator (Lite mode) build 49521"
  2774                           
  2775  000BB6                     l898:
  2776  000BB6  5002               	movf	((c:tempo_us@tempo+1)),c,w
  2777  000BB8  0A80               	xorlw	80h
  2778  000BBA  0F80               	addlw	-((0)^80h)
  2779  000BBC  0E01               	movlw	01h
  2780  000BBE  B4D8               	btfsc	status,2
  2781  000BC0  5C01               	subwf	((c:tempo_us@tempo)),c,w
  2782  000BC2  B0D8               	btfsc	status,0
  2783  000BC4  D001               	goto	u91
  2784  000BC6  D001               	goto	u90
  2785  000BC8                     u91:
  2786  000BC8  D7EF               	goto	l65
  2787  000BCA                     u90:
  2788  000BCA  D008               	goto	l902
  2789                           opt subtitle "HI-TECH Software Omniscient Code Generator (Lite mode) build 49521"
  2790  000BCC                     l66:
  2791  000BCC  D007               	goto	l902
  2792                           opt subtitle "HI-TECH Software Omniscient Code Generator (Lite mode) build 49521"
  2793                           
  2794                           opt pagewidth 120
  2795                           
  2796                           	opt lm
  2797  000BCE                     l63:
  2798                           opt subtitle "HI-TECH Software Omniscient Code Generator (Lite mode) build 49521"
  2799                           
  2800                           opt pagewidth 120
  2801  000BCE  D006               	goto	l902
  2802                           opt subtitle "HI-TECH Software Omniscient Code Generator (Lite mode) build 49521"
  2803  000BD0                     l69:
  2804                           opt subtitle "HI-TECH Software Omniscient Code Generator (Lite mode) build 49521"
  2805                           
  2806                           opt pagewidth 120
  2807  000BD0  F000               	nop
  2808                           opt subtitle "HI-TECH Software Omniscient Code Generator (Lite mode) build 49521"
  2809                           
  2810  000BD2  F000               	nop
  2811                           opt subtitle "HI-TECH Software Omniscient Code Generator (Lite mode) build 49521"
  2812                           
  2813  000BD4                     l900:
  2814                           opt subtitle "HI-TECH Software Omniscient Code Generator (Lite mode) build 49521"
  2815  000BD4  0601               	decf	((c:tempo_us@tempo)),c
  2816  000BD6  A0D8               	btfss	status,0
  2817  000BD8  0602               	decf	((c:tempo_us@tempo+1)),c
  2818  000BDA  D000               	goto	l902
  2819                           opt subtitle "HI-TECH Software Omniscient Code Generator (Lite mode) build 49521"
  2820                           
  2821  000BDC                     l68:
  2822                           opt subtitle "HI-TECH Software Omniscient Code Generator (Lite mode) build 49521"
  2823                           
  2824  000BDC                     l902:
  2825  000BDC  5002               	movf	((c:tempo_us@tempo+1)),c,w
  2826  000BDE  0A80               	xorlw	80h
  2827  000BE0  0F80               	addlw	-((0)^80h)
  2828  000BE2  0E01               	movlw	01h
  2829  000BE4  B4D8               	btfsc	status,2
  2830  000BE6  5C01               	subwf	((c:tempo_us@tempo)),c,w
  2831  000BE8  B0D8               	btfsc	status,0
  2832  000BEA  D001               	goto	u101
  2833  000BEC  D001               	goto	u100
  2834  000BEE                     u101:
  2835  000BEE  D7F0               	goto	l69
  2836  000BF0                     u100:
  2837  000BF0  D001               	goto	l71
  2838                           opt subtitle "HI-TECH Software Omniscient Code Generator (Lite mode) build 49521"
  2839  000BF2                     l70:
  2840  000BF2  D000               	goto	l71
  2841                           opt subtitle "HI-TECH Software Omniscient Code Generator (Lite mode) build 49521"
  2842                           
  2843  000BF4                     l67:
  2844                           opt subtitle "HI-TECH Software Omniscient Code Generator (Lite mode) build 49521"
  2845                           
  2846  000BF4                     l71:
  2847  000BF4  0012               	return
  2848                           opt subtitle "HI-TECH Software Omniscient Code Generator (Lite mode) build 49521"
  2849                           
  2850  000BF6                     	__end_of_tempo_us:
  2851                           opt subtitle "HI-TECH Software Omniscient Code Generator (Lite mode) build 49521"
  2852                           
  2853                           opt pagewidth 120
  2854                           
  2855                           	opt lm
  2856                           
  2857                           	processor	18F4550
  2858                           porta	equ	0F80h
  2859                           portb	equ	0F81h
  2860                           portc	equ	0F82h
  2861                           portd	equ	0F83h
  2862                           porte	equ	0F84h
  2863                           lata	equ	0F89h
  2864                           latb	equ	0F8Ah
  2865                           latc	equ	0F8Bh
  2866                           latd	equ	0F8Ch
  2867                           late	equ	0F8Dh
  2868                           trisa	equ	0F92h
  2869                           trisb	equ	0F93h
  2870                           trisc	equ	0F94h
  2871                           trisd	equ	0F95h
  2872                           trise	equ	0F96h
  2873                           pie1	equ	0F9Dh
  2874                           pir1	equ	0F9Eh
  2875                           ipr1	equ	0F9Fh
  2876                           pie2	equ	0FA0h
  2877                           pir2	equ	0FA1h
  2878                           ipr2	equ	0FA2h
  2879                           t3con	equ	0FB1h
  2880                           tmr3l	equ	0FB2h
  2881                           tmr3h	equ	0FB3h
  2882                           ccp1con	equ	0FBDh
  2883                           ccpr1l	equ	0FBEh
  2884                           ccpr1h	equ	0FBFh
  2885                           adcon1	equ	0FC1h
  2886  000D92                     __ptext9:
  2887                           opt subtitle "HI-TECH Software Omniscient Code Generator (Lite mode) build 49521"
  2888                           
  2889                           opt pagewidth 120
  2890                           
  2891  0000                     	__size_of_OpenSPI	equ	__end_of_OpenSPI-_OpenSPI
  2892                           opt subtitle "HI-TECH Software Omniscient Code Generator (Lite mode) build 49521"
  2893  000D92                     _OpenSPI:
  2894                           opt subtitle "HI-TECH Software Omniscient Code Generator (Lite mode) build 49521"
  2895                           
  2896                           opt pagewidth 120
  2897  000D92                     l822:
  2898  000D92  0E3F               	movlw	(03Fh)&0ffh
  2899  000D94  16C7               	andwf	((c:4039)),c	;volatile
  2900                           opt subtitle "HI-TECH Software Omniscient Code Generator (Lite mode) build 49521"
  2901                           
  2902  000D96                     l824:
  2903  000D96  0E00               	movlw	low(0)
  2904  000D98  6EC6               	movwf	((c:4038)),c	;volatile
  2905                           opt subtitle "HI-TECH Software Omniscient Code Generator (Lite mode) build 49521"
  2906                           
  2907  000D9A                     l826:
  2908  000D9A  5001               	movf	((c:OpenSPI@sync_mode)),c,w
  2909  000D9C  12C6               	iorwf	((c:4038)),c	;volatile
  2910                           opt subtitle "HI-TECH Software Omniscient Code Generator (Lite mode) build 49521"
  2911                           
  2912  000D9E                     l828:
  2913  000D9E  5003               	movf	((c:OpenSPI@smp_phase)),c,w
  2914  000DA0  12C7               	iorwf	((c:4039)),c	;volatile
  2915                           opt subtitle "HI-TECH Software Omniscient Code Generator (Lite mode) build 49521"
  2916  000DA2  D009               	goto	l832
  2917                           opt subtitle "HI-TECH Software Omniscient Code Generator (Lite mode) build 49521"
  2918                           
  2919  000DA4                     l176:
  2920                           opt subtitle "HI-TECH Software Omniscient Code Generator (Lite mode) build 49521"
  2921  000DA4  8CC7               	bsf	((c:4039)),c,6	;volatile
  2922                           opt subtitle "HI-TECH Software Omniscient Code Generator (Lite mode) build 49521"
  2923  000DA6  D01B               	goto	l836
  2924                           opt subtitle "HI-TECH Software Omniscient Code Generator (Lite mode) build 49521"
  2925                           
  2926  000DA8                     l178:
  2927                           opt subtitle "HI-TECH Software Omniscient Code Generator (Lite mode) build 49521"
  2928  000DA8  8CC7               	bsf	((c:4039)),c,6	;volatile
  2929                           opt subtitle "HI-TECH Software Omniscient Code Generator (Lite mode) build 49521"
  2930  000DAA  88C6               	bsf	((c:4038)),c,4	;volatile
  2931                           opt subtitle "HI-TECH Software Omniscient Code Generator (Lite mode) build 49521"
  2932  000DAC  D018               	goto	l836
  2933                           opt subtitle "HI-TECH Software Omniscient Code Generator (Lite mode) build 49521"
  2934                           
  2935  000DAE                     l179:
  2936                           opt subtitle "HI-TECH Software Omniscient Code Generator (Lite mode) build 49521"
  2937  000DAE  88C6               	bsf	((c:4038)),c,4	;volatile
  2938                           opt subtitle "HI-TECH Software Omniscient Code Generator (Lite mode) build 49521"
  2939  000DB0  D016               	goto	l836
  2940                           opt subtitle "HI-TECH Software Omniscient Code Generator (Lite mode) build 49521"
  2941                           
  2942  000DB2                     l180:
  2943                           opt subtitle "HI-TECH Software Omniscient Code Generator (Lite mode) build 49521"
  2944  000DB2  D015               	goto	l836
  2945                           opt subtitle "HI-TECH Software Omniscient Code Generator (Lite mode) build 49521"
  2946                           
  2947  000DB4                     l830:
  2948  000DB4  D014               	goto	l836
  2949                           opt subtitle "HI-TECH Software Omniscient Code Generator (Lite mode) build 49521"
  2950                           
  2951  000DB6                     l175:
  2952                           opt subtitle "HI-TECH Software Omniscient Code Generator (Lite mode) build 49521"
  2953  000DB6                     l832:
  2954  000DB6  5002               	movf	((c:OpenSPI@bus_mode)),c,w
  2955                           opt subtitle "HI-TECH Software Omniscient Code Generator (Lite mode) build 49521"
  2956                           
  2957                           opt pagewidth 120
  2958                           
  2959                           	opt lm
  2960                           
  2961                           	processor	18F4550
  2962  000DB8  0A00               	xorlw	0^0	; case 0
  2963  000DBA  B4D8               	skipnz
  2964  000DBC  D7F3               	goto	l176
  2965  000DBE  0A02               	xorlw	2^0	; case 2
  2966  000DC0  B4D8               	skipnz
  2967  000DC2  D7F2               	goto	l178
  2968  000DC4  0A01               	xorlw	3^2	; case 3
  2969  000DC6  B4D8               	skipnz
  2970  000DC8  D7F2               	goto	l179
  2971  000DCA  D009               	goto	l836
  2972                           opt subtitle "HI-TECH Software Omniscient Code Generator (Lite mode) build 49521"
  2973                           
  2974                           opt pagewidth 120
  2975  000DCC                     l177:
  2976                           opt subtitle "HI-TECH Software Omniscient Code Generator (Lite mode) build 49521"
  2977  000DCC  D008               	goto	l836
  2978                           opt subtitle "HI-TECH Software Omniscient Code Generator (Lite mode) build 49521"
  2979                           
  2980  000DCE                     l182:
  2981                           opt subtitle "HI-TECH Software Omniscient Code Generator (Lite mode) build 49521"
  2982  000DCE  8A92               	bsf	((c:3986)),c,5	;volatile
  2983                           opt subtitle "HI-TECH Software Omniscient Code Generator (Lite mode) build 49521"
  2984  000DD0  8293               	bsf	((c:3987)),c,1	;volatile
  2985                           opt subtitle "HI-TECH Software Omniscient Code Generator (Lite mode) build 49521"
  2986  000DD2  D00D               	goto	l183
  2987                           opt subtitle "HI-TECH Software Omniscient Code Generator (Lite mode) build 49521"
  2988                           
  2989  000DD4                     l184:
  2990                           opt subtitle "HI-TECH Software Omniscient Code Generator (Lite mode) build 49521"
  2991  000DD4  8293               	bsf	((c:3987)),c,1	;volatile
  2992                           opt subtitle "HI-TECH Software Omniscient Code Generator (Lite mode) build 49521"
  2993  000DD6  D00B               	goto	l183
  2994                           opt subtitle "HI-TECH Software Omniscient Code Generator (Lite mode) build 49521"
  2995                           
  2996  000DD8                     l185:
  2997                           opt subtitle "HI-TECH Software Omniscient Code Generator (Lite mode) build 49521"
  2998  000DD8  9293               	bcf	((c:3987)),c,1	;volatile
  2999                           opt subtitle "HI-TECH Software Omniscient Code Generator (Lite mode) build 49521"
  3000  000DDA  D009               	goto	l183
  3001                           opt subtitle "HI-TECH Software Omniscient Code Generator (Lite mode) build 49521"
  3002                           
  3003  000DDC                     l834:
  3004  000DDC  D008               	goto	l183
  3005                           opt subtitle "HI-TECH Software Omniscient Code Generator (Lite mode) build 49521"
  3006                           
  3007  000DDE                     l181:
  3008                           opt subtitle "HI-TECH Software Omniscient Code Generator (Lite mode) build 49521"
  3009  000DDE                     l836:
  3010  000DDE  5001               	movf	((c:OpenSPI@sync_mode)),c,w
  3011                           opt subtitle "HI-TECH Software Omniscient Code Generator (Lite mode) build 49521"
  3012                           
  3013                           opt pagewidth 120
  3014                           
  3015                           	opt lm
  3016                           
  3017                           	processor	18F4550
  3018  000DE0  0A04               	xorlw	4^0	; case 4
  3019  000DE2  B4D8               	skipnz
  3020  000DE4  D7F4               	goto	l182
  3021  000DE6  0A01               	xorlw	5^4	; case 5
  3022  000DE8  B4D8               	skipnz
  3023  000DEA  D7F4               	goto	l184
  3024  000DEC  D7F5               	goto	l185
  3025                           opt subtitle "HI-TECH Software Omniscient Code Generator (Lite mode) build 49521"
  3026                           
  3027                           opt pagewidth 120
  3028  000DEE                     l183:
  3029                           opt subtitle "HI-TECH Software Omniscient Code Generator (Lite mode) build 49521"
  3030  000DEE  8093               	bsf	((c:3987)),c,0	;volatile
  3031                           opt subtitle "HI-TECH Software Omniscient Code Generator (Lite mode) build 49521"
  3032  000DF0  9E94               	bcf	((c:3988)),c,7	;volatile
  3033                           opt subtitle "HI-TECH Software Omniscient Code Generator (Lite mode) build 49521"
  3034                           
  3035  000DF2                     l838:
  3036  000DF2  8AC6               	bsf	(0+(5/8)+(c:4038)),c,(5)&7	;volatile
  3037                           opt subtitle "HI-TECH Software Omniscient Code Generator (Lite mode) build 49521"
  3038                           
  3039  000DF4                     l186:
  3040  000DF4  0012               	return
  3041                           opt subtitle "HI-TECH Software Omniscient Code Generator (Lite mode) build 49521"
  3042                           
  3043  000DF6                     	__end_of_OpenSPI:
  3044                           opt subtitle "HI-TECH Software Omniscient Code Generator (Lite mode) build 49521"
  3045                           
  3046                           opt pagewidth 120
  3047                           
  3048                           	opt lm
  3049                           
  3050                           	processor	18F4550
  3051                           porta	equ	0F80h
  3052                           portb	equ	0F81h
  3053                           portc	equ	0F82h
  3054                           portd	equ	0F83h
  3055                           porte	equ	0F84h
  3056                           lata	equ	0F89h
  3057                           latb	equ	0F8Ah
  3058                           latc	equ	0F8Bh
  3059                           latd	equ	0F8Ch
  3060                           late	equ	0F8Dh
  3061                           trisa	equ	0F92h
  3062                           trisb	equ	0F93h
  3063                           trisc	equ	0F94h
  3064                           trisd	equ	0F95h
  3065                           trise	equ	0F96h
  3066                           pie1	equ	0F9Dh
  3067                           pir1	equ	0F9Eh
  3068                           ipr1	equ	0F9Fh
  3069                           pie2	equ	0FA0h
  3070                           pir2	equ	0FA1h
  3071                           ipr2	equ	0FA2h
  3072                           t3con	equ	0FB1h
  3073                           tmr3l	equ	0FB2h
  3074                           tmr3h	equ	0FB3h
  3075                           ccp1con	equ	0FBDh
  3076                           ccpr1l	equ	0FBEh
  3077                           ccpr1h	equ	0FBFh
  3078                           adcon1	equ	0FC1h
  3079                           adcon0	equ	0FC2h
  3080                           adresl	equ	0FC3h
  3081                           adresh	equ	0FC4h
  3082                           sspcon2	equ	0FC5h
  3083                           sspcon1	equ	0FC6h
  3084                           sspstat	equ	0FC7h
  3085  000DF6                     __ptext10:
  3086                           opt subtitle "HI-TECH Software Omniscient Code Generator (Lite mode) build 49521"
  3087                           
  3088                           opt pagewidth 120
  3089                           
  3090  0000                     	__size_of_sprintf	equ	__end_of_sprintf-_sprintf
  3091                           opt subtitle "HI-TECH Software Omniscient Code Generator (Lite mode) build 49521"
  3092  000DF6                     _sprintf:
  3093                           opt subtitle "HI-TECH Software Omniscient Code Generator (Lite mode) build 49521"
  3094                           
  3095                           opt pagewidth 120
  3096  000DF6                     l840:
  3097                           opt subtitle "HI-TECH Software Omniscient Code Generator (Lite mode) build 49521"
  3098                           
  3099                           opt pagewidth 120
  3100                           
  3101                           	opt lm
  3102                           
  3103                           	processor	18F4550
  3104                           porta	equ	0F80h
  3105                           portb	equ	0F81h
  3106                           portc	equ	0F82h
  3107                           portd	equ	0F83h
  3108                           porte	equ	0F84h
  3109  000DF6  0E00               	movlw	high((c:?_sprintf)+04h)
  3110  000DF8  6E06               	movwf	((c:sprintf@ap+1)),c
  3111  000DFA  0E05               	movlw	low((c:?_sprintf)+04h)
  3112  000DFC  6E05               	movwf	((c:sprintf@ap)),c
  3113                           opt subtitle "HI-TECH Software Omniscient Code Generator (Lite mode) build 49521"
  3114                           
  3115  000DFE  D009               	goto	l846
  3116                           opt subtitle "HI-TECH Software Omniscient Code Generator (Lite mode) build 49521"
  3117  000E00                     l156:
  3118                           opt subtitle "HI-TECH Software Omniscient Code Generator (Lite mode) build 49521"
  3119                           
  3120  000E00                     l842:
  3121                           opt subtitle "HI-TECH Software Omniscient Code Generator (Lite mode) build 49521"
  3122                           
  3123  000E00  C001  FFD9         	movff	(c:sprintf@sp),fsr2l
  3124  000E04  C002  FFDA         	movff	(c:sprintf@sp+1),fsr2h
  3125  000E08  C007  FFDF         	movff	(c:sprintf@c),indf2
  3126                           opt subtitle "HI-TECH Software Omniscient Code Generator (Lite mode) build 49521"
  3127                           
  3128  000E0C                     l844:
  3129  000E0C  4A01               	infsnz	((c:sprintf@sp)),c
  3130  000E0E  2A02               	incf	((c:sprintf@sp+1)),c
  3131                           opt subtitle "HI-TECH Software Omniscient Code Generator (Lite mode) build 49521"
  3132                           
  3133  000E10  D000               	goto	l846
  3134                           opt subtitle "HI-TECH Software Omniscient Code Generator (Lite mode) build 49521"
  3135                           
  3136                           opt pagewidth 120
  3137                           
  3138  000E12                     l155:
  3139                           opt subtitle "HI-TECH Software Omniscient Code Generator (Lite mode) build 49521"
  3140                           
  3141  000E12                     l846:
  3142  000E12  C003  FFF6         	movff	(c:sprintf@f),tblptrl
  3143  000E16  C004  FFF7         	movff	(c:sprintf@f+1),tblptrh
  3144  000E1A  4A03               	infsnz	((c:sprintf@f)),c
  3145  000E1C  2A04               	incf	((c:sprintf@f+1)),c
  3146  000E1E  0008               	tblrd	*
  3147                           opt subtitle "HI-TECH Software Omniscient Code Generator (Lite mode) build 49521"
  3148  000E20  CFF5 F007          	movff	tablat,(c:sprintf@c)
  3149  000E24  6607               	tstfsz	((c:sprintf@c))&0ffh
  3150  000E26  D001               	goto	u21
  3151  000E28  D001               	goto	u20
  3152  000E2A                     u21:
  3153  000E2A  D7EA               	goto	l842
  3154  000E2C                     u20:
  3155  000E2C  D000               	goto	l848
  3156                           opt subtitle "HI-TECH Software Omniscient Code Generator (Lite mode) build 49521"
  3157  000E2E                     l157:
  3158                           opt subtitle "HI-TECH Software Omniscient Code Generator (Lite mode) build 49521"
  3159                           
  3160  000E2E                     l848:
  3161                           opt subtitle "HI-TECH Software Omniscient Code Generator (Lite mode) build 49521"
  3162                           
  3163                           opt pagewidth 120
  3164  000E2E  C001  FFD9         	movff	(c:sprintf@sp),fsr2l
  3165  000E32  C002  FFDA         	movff	(c:sprintf@sp+1),fsr2h
  3166  000E36  0E00               	movlw	low(0)
  3167  000E38  6EDF               	movwf	indf2
  3168  000E3A  D000               	goto	l158
  3169                           opt subtitle "HI-TECH Software Omniscient Code Generator (Lite mode) build 49521"
  3170                           
  3171  000E3C                     l850:
  3172                           opt subtitle "HI-TECH Software Omniscient Code Generator (Lite mode) build 49521"
  3173                           
  3174                           opt pagewidth 120
  3175                           
  3176  000E3C                     l158:
  3177  000E3C  0012               	return
  3178                           opt subtitle "HI-TECH Software Omniscient Code Generator (Lite mode) build 49521"
  3179                           
  3180  000E3E                     	__end_of_sprintf:
  3181                           opt subtitle "HI-TECH Software Omniscient Code Generator (Lite mode) build 49521"
  3182                           
  3183                           opt pagewidth 120
  3184                           
  3185                           	opt lm
  3186                           
  3187                           	processor	18F4550
  3188                           porta	equ	0F80h
  3189                           portb	equ	0F81h
  3190                           portc	equ	0F82h
  3191                           portd	equ	0F83h
  3192                           porte	equ	0F84h
  3193                           lata	equ	0F89h
  3194                           latb	equ	0F8Ah
  3195                           latc	equ	0F8Bh
  3196                           latd	equ	0F8Ch
  3197                           late	equ	0F8Dh
  3198                           trisa	equ	0F92h
  3199                           trisb	equ	0F93h
  3200                           trisc	equ	0F94h
  3201                           trisd	equ	0F95h
  3202                           trise	equ	0F96h
  3203                           pie1	equ	0F9Dh
  3204                           pir1	equ	0F9Eh
  3205                           ipr1	equ	0F9Fh
  3206                           pie2	equ	0FA0h
  3207                           pir2	equ	0FA1h
  3208                           ipr2	equ	0FA2h
  3209                           t3con	equ	0FB1h
  3210                           tmr3l	equ	0FB2h
  3211                           tmr3h	equ	0FB3h
  3212                           ccp1con	equ	0FBDh
  3213                           ccpr1l	equ	0FBEh
  3214  000EE8                     __ptext11:
  3215                           opt subtitle "HI-TECH Software Omniscient Code Generator (Lite mode) build 49521"
  3216                           
  3217                           opt pagewidth 120
  3218                           
  3219  0000                     	__size_of_WriteSPI	equ	__end_of_WriteSPI-_WriteSPI
  3220                           opt subtitle "HI-TECH Software Omniscient Code Generator (Lite mode) build 49521"
  3221  000EE8                     _WriteSPI:
  3222                           opt subtitle "HI-TECH Software Omniscient Code Generator (Lite mode) build 49521"
  3223                           
  3224                           opt pagewidth 120
  3225  000EE8                     l852:
  3226  000EE8  CFC9 F002          	movff	(c:4041),(c:WriteSPI@TempVar)	;volatile
  3227                           opt subtitle "HI-TECH Software Omniscient Code Generator (Lite mode) build 49521"
  3228  000EEC  969E               	bcf	((c:3998)),c,3	;volatile
  3229                           opt subtitle "HI-TECH Software Omniscient Code Generator (Lite mode) build 49521"
  3230  000EEE  9EC6               	bcf	((c:4038)),c,7	;volatile
  3231                           opt subtitle "HI-TECH Software Omniscient Code Generator (Lite mode) build 49521"
  3232  000EF0  C001  FFC9         	movff	(c:WriteSPI@data_out),(c:4041)	;volatile
  3233                           opt subtitle "HI-TECH Software Omniscient Code Generator (Lite mode) build 49521"
  3234                           
  3235  000EF4  AEC6               	btfss	((c:4038)),c,(7)&7	;volatile
  3236  000EF6  D001               	goto	u31
  3237  000EF8  D001               	goto	u30
  3238  000EFA                     u31:
  3239  000EFA  D005               	goto	l200
  3240  000EFC                     u30:
  3241                           opt subtitle "HI-TECH Software Omniscient Code Generator (Lite mode) build 49521"
  3242                           
  3243  000EFC                     l854:
  3244  000EFC  0EFF               	movlw	(-1)&0ffh
  3245  000EFE  D00B               	goto	l198
  3246                           opt subtitle "HI-TECH Software Omniscient Code Generator (Lite mode) build 49521"
  3247  000F00                     l856:
  3248  000F00  D00A               	goto	l198
  3249                           opt subtitle "HI-TECH Software Omniscient Code Generator (Lite mode) build 49521"
  3250  000F02                     l858:
  3251  000F02  D007               	goto	l860
  3252                           opt subtitle "HI-TECH Software Omniscient Code Generator (Lite mode) build 49521"
  3253                           
  3254  000F04                     l197:
  3255                           opt subtitle "HI-TECH Software Omniscient Code Generator (Lite mode) build 49521"
  3256  000F04  D000               	goto	l200
  3257                           opt subtitle "HI-TECH Software Omniscient Code Generator (Lite mode) build 49521"
  3258  000F06                     l201:
  3259                           opt subtitle "HI-TECH Software Omniscient Code Generator (Lite mode) build 49521"
  3260  000F06                     l200:
  3261                           opt subtitle "HI-TECH Software Omniscient Code Generator (Lite mode) build 49521"
  3262  000F06  A69E               	btfss	((c:3998)),c,3	;volatile
  3263  000F08  D001               	goto	u41
  3264  000F0A  D001               	goto	u40
  3265  000F0C                     u41:
  3266  000F0C  D7FC               	goto	l200
  3267  000F0E                     u40:
  3268  000F0E  D001               	goto	l860
  3269                           opt subtitle "HI-TECH Software Omniscient Code Generator (Lite mode) build 49521"
  3270  000F10                     l202:
  3271  000F10  D000               	goto	l860
  3272                           opt subtitle "HI-TECH Software Omniscient Code Generator (Lite mode) build 49521"
  3273  000F12                     l199:
  3274                           opt subtitle "HI-TECH Software Omniscient Code Generator (Lite mode) build 49521"
  3275                           
  3276  000F12                     l860:
  3277  000F12  0E00               	movlw	(0)&0ffh
  3278  000F14  D000               	goto	l198
  3279                           opt subtitle "HI-TECH Software Omniscient Code Generator (Lite mode) build 49521"
  3280  000F16                     l862:
  3281                           opt subtitle "HI-TECH Software Omniscient Code Generator (Lite mode) build 49521"
  3282                           
  3283  000F16                     l198:
  3284  000F16  0012               	return
  3285                           opt subtitle "HI-TECH Software Omniscient Code Generator (Lite mode) build 49521"
  3286                           
  3287  000F18                     	__end_of_WriteSPI:
  3288                           opt subtitle "HI-TECH Software Omniscient Code Generator (Lite mode) build 49521"
  3289                           
  3290                           opt pagewidth 120
  3291                           
  3292                           	opt lm
  3293                           
  3294                           	processor	18F4550
  3295                           porta	equ	0F80h
  3296                           portb	equ	0F81h
  3297                           portc	equ	0F82h
  3298                           portd	equ	0F83h
  3299                           porte	equ	0F84h
  3300                           lata	equ	0F89h
  3301                           latb	equ	0F8Ah
  3302                           latc	equ	0F8Bh
  3303                           latd	equ	0F8Ch
  3304                           late	equ	0F8Dh
  3305                           trisa	equ	0F92h
  3306                           trisb	equ	0F93h
  3307                           trisc	equ	0F94h
  3308                           trisd	equ	0F95h
  3309                           trise	equ	0F96h
  3310                           pie1	equ	0F9Dh
  3311                           pir1	equ	0F9Eh
  3312                           ipr1	equ	0F9Fh
  3313                           pie2	equ	0FA0h
  3314                           pir2	equ	0FA1h
  3315                           ipr2	equ	0FA2h
  3316                           t3con	equ	0FB1h
  3317                           tmr3l	equ	0FB2h
  3318                           tmr3h	equ	0FB3h
  3319                           ccp1con	equ	0FBDh
  3320                           ccpr1l	equ	0FBEh
  3321  000F50                     __ptext12:
  3322                           opt subtitle "HI-TECH Software Omniscient Code Generator (Lite mode) build 49521"
  3323                           
  3324                           opt pagewidth 120
  3325                           
  3326  0000                     	__size_of_Delay10KTCYx	equ	__end_of_Delay10KTCYx-_Delay10KTCYx
  3327                           opt subtitle "HI-TECH Software Omniscient Code Generator (Lite mode) build 49521"
  3328  000F50                     _Delay10KTCYx:
  3329                           opt subtitle "HI-TECH Software Omniscient Code Generator (Lite mode) build 49521"
  3330                           
  3331                           opt pagewidth 120
  3332  000F50                     l752:
  3333                           opt subtitle "HI-TECH Software Omniscient Code Generator (Lite mode) build 49521"
  3334                           
  3335  000F50                     l904:
  3336  000F50  0E0D               	movlw	13
  3337  000F52  6E02               movwf	(??_Delay10KTCYx+0+0)&0ffh,c,f
  3338  000F54  0EFB               	movlw	251
  3339  000F56                     u347:
  3340  000F56  2EE8               	decfsz	wreg,f
  3341  000F58  D7FE               	goto	u347
  3342  000F5A  2E02               	decfsz	(??_Delay10KTCYx+0+0)&0ffh,c,f
  3343  000F5C  D7FC               	goto	u347
  3344  000F5E  D000               	nop2
  3345                           opt subtitle "HI-TECH Software Omniscient Code Generator (Lite mode) build 49521"
  3346                           
  3347                           opt pagewidth 120
  3348  000F60                     l906:
  3349  000F60  2E01               	decfsz	((c:Delay10KTCYx@unit)),c
  3350                           opt subtitle "HI-TECH Software Omniscient Code Generator (Lite mode) build 49521"
  3351  000F62  D7F6               	goto	l752
  3352  000F64  D000               	goto	l754
  3353                           opt subtitle "HI-TECH Software Omniscient Code Generator (Lite mode) build 49521"
  3354  000F66                     l753:
  3355                           opt subtitle "HI-TECH Software Omniscient Code Generator (Lite mode) build 49521"
  3356                           
  3357  000F66                     l754:
  3358  000F66  0012               	return
  3359                           opt subtitle "HI-TECH Software Omniscient Code Generator (Lite mode) build 49521"
  3360                           
  3361  000F68                     	__end_of_Delay10KTCYx:
  3362                           opt subtitle "HI-TECH Software Omniscient Code Generator (Lite mode) build 49521"
  3363                           
  3364  000811  00                 	db 0	; dummy byte at the end
  3365                           opt subtitle "HI-TECH Software Omniscient Code Generator (Lite mode) build 49521"
  3366                           
  3367                           opt pagewidth 120
  3368  0000                     __activetblptr	EQU	1
  3369                           opt subtitle "HI-TECH Software Omniscient Code Generator (Lite mode) build 49521"
  3370                           
  3371                           opt pagewidth 120
  3372                           
  3373                           	opt lm
  3374                           
  3375  0000                     __Lparam	EQU	__Lrparam
  3376  0000                     __Hparam	EQU	__Hrparam


Data Sizes:
    Strings     17
    Constant    0
    Data        15
    BSS         17
    Persistent  0
    Stack       0

Auto Spaces:
    Space          Size  Autos    Used
    COMRAM           95     26      58
    BANK0           160      0       0
    BANK1           256      0       0
    BANK2           256      0       0
    BANK3           256      0       0
    BANK4           256      0       0
    BANK5           256      0       0
    BANK6           256      0       0
    BANK7           256      0       0

Pointer List with Targets:

    sprintf@f	PTR const unsigned char  size(2) Largest target is 17
		 -> STR_1(CODE[17]), 

    sprintf@sp	PTR unsigned char  size(2) Largest target is 17
		 -> mensagem_lcd(COMRAM[17]), 

    sprintf@ap	PTR void [1] size(2) Largest target is 2
		 -> ?_sprintf(COMRAM[2]), 

    S564$_cp	PTR const unsigned char  size(2) Largest target is 0

    _val._str._cp	PTR const unsigned char  size(2) Largest target is 0

    mostra_lcd_buff@p_char	PTR unsigned char  size(2) Largest target is 17
		 -> mensagem_lcd(COMRAM[17]), 


Critical Paths under _main in COMRAM

    _main->_lcd_start
    _lcd_start->_ctrl_lcd_cursor
    _mostra_lcd_buff->_pos_lcd
    _envia_dado->_envia_lcd
    _pos_lcd->_envia_lcd
    _ctrl_lcd_cursor->_envia_lcd
    _limpa_tela->_envia_lcd
    _envia_lcd->_tempo_us

Critical Paths under _main in BANK0

    None.

Critical Paths under _main in BANK1

    None.

Critical Paths under _main in BANK2

    None.

Critical Paths under _main in BANK3

    None.

Critical Paths under _main in BANK4

    None.

Critical Paths under _main in BANK5

    None.

Critical Paths under _main in BANK6

    None.

Critical Paths under _main in BANK7

    None.

Call Graph Tables:

 ---------------------------------------------------------------------------------
 (Depth) Function   	        Calls       Base Space   Used Autos Params    Refs
 ---------------------------------------------------------------------------------
 (0) _main                                                 3     3      0    1890
                                             23 COMRAM     3     3      0
                          _lcd_start
                            _OpenSPI
                            _sprintf
                    _mostra_lcd_buff
                           _WriteSPI
                       _Delay10KTCYx
 ---------------------------------------------------------------------------------
 (1) _lcd_start                                            8     8      0    1065
                                             15 COMRAM     8     8      0
                           _tempo_us
                          _envia_lcd
                         _limpa_tela
                    _ctrl_lcd_cursor
 ---------------------------------------------------------------------------------
 (1) _mostra_lcd_buff                                      5     0      5     675
                                             11 COMRAM     5     0      5
                            _pos_lcd
                         _envia_dado
 ---------------------------------------------------------------------------------
 (2) _envia_dado                                           2     1      1     255
                                              8 COMRAM     2     1      1
                          _envia_lcd
 ---------------------------------------------------------------------------------
 (2) _pos_lcd                                              3     1      2     360
                                              8 COMRAM     3     1      2
                          _envia_lcd
 ---------------------------------------------------------------------------------
 (2) _ctrl_lcd_cursor                                      7     6      1     270
                                              8 COMRAM     7     6      1
                          _envia_lcd
 ---------------------------------------------------------------------------------
 (2) _limpa_tela                                           2     2      0     240
                                              8 COMRAM     2     2      0
                          _envia_lcd
 ---------------------------------------------------------------------------------
 (3) _envia_lcd                                            6     2      4     240
                                              2 COMRAM     6     2      4
                           _tempo_us
 ---------------------------------------------------------------------------------
 (4) _tempo_us                                             2     0      2      90
                                              0 COMRAM     2     0      2
 ---------------------------------------------------------------------------------
 (1) _OpenSPI                                              3     0      3      60
                                              0 COMRAM     3     0      3
 ---------------------------------------------------------------------------------
 (1) _sprintf                                             14    10      4      60
                                              0 COMRAM     7     3      4
 ---------------------------------------------------------------------------------
 (1) _WriteSPI                                             2     1      1      15
                                              0 COMRAM     2     1      1
 ---------------------------------------------------------------------------------
 (1) _Delay10KTCYx                                         2     1      1      15
                                              0 COMRAM     2     1      1
 ---------------------------------------------------------------------------------
 Estimated maximum stack depth 4
 ---------------------------------------------------------------------------------

 Call Graph Graphs:

 _main (ROOT)
   _lcd_start
     _tempo_us
     _envia_lcd
       _tempo_us
     _limpa_tela
       _envia_lcd
         _tempo_us
     _ctrl_lcd_cursor
       _envia_lcd
         _tempo_us
   _OpenSPI
   _sprintf
   _mostra_lcd_buff
     _pos_lcd
       _envia_lcd
         _tempo_us
     _envia_dado
       _envia_lcd
         _tempo_us
   _WriteSPI
   _Delay10KTCYx

 Address spaces:
Name               Size   Autos  Total    Cost      Usage
BIGRAM             7FF      0       0      21        0.0%
EEDATA             100      0       0       0        0.0%
BITBANK7           100      0       0      18        0.0%
BANK7              100      0       0      19        0.0%
BITBANK6           100      0       0      16        0.0%
BANK6              100      0       0      17        0.0%
BITBANK5           100      0       0      14        0.0%
BANK5              100      0       0      15        0.0%
BITBANK4           100      0       0      12        0.0%
BANK4              100      0       0      13        0.0%
BITBANK3           100      0       0      10        0.0%
BANK3              100      0       0      11        0.0%
BITBANK2           100      0       0       8        0.0%
BANK2              100      0       0       9        0.0%
BITBANK1           100      0       0       6        0.0%
BANK1              100      0       0       7        0.0%
BITBANK0            A0      0       0       4        0.0%
BANK0               A0      0       0       5        0.0%
BITCOMRAM           5F      0       0       0        0.0%
COMRAM              5F     1A      3A       1       61.1%
BITSFR               0      0       0      40        0.0%
SFR                  0      0       0      40        0.0%
STACK                0      0       4       2        0.0%
NULL                 0      0       0       0        0.0%
ABS                  0      0      3A      20        0.0%
DATA                 0      0      3E       3        0.0%
CODE                 0      0       0       0        0.0%


Microchip Technology PIC18 Macro Assembler V1.12 build 49521 
Symbol Table                                                                                   Tue May  7 18:54:19 2013

               _SSPSTATbits 000FC7                          l50 0B1E                          l51 0B4A  
                        l60 0B8C                          l52 0B32                          l61 0B7C  
                        l53 0B24                          l70 0BF2                          l62 0BA2  
                        l54 0B48                          l71 0BF4                          l63 0BCE  
                        l55 0B78                          l47 0B20                          l64 0BB6  
                        l56 0B60                          l48 0B08                          l80 0F34  
                        l65 0BA8                          l57 0B4E                          l49 0AF6  
                        l66 0BCC                          l58 0B76                          l74 0CF0  
                        l67 0BF4                          l59 0BA4                          l68 0BDC  
                        l69 0BD0                          l95 0E78                          l98 0D18  
                        l99 0D40                          u20 0E2C                          u21 0E2A  
                        u30 0EFC                          u31 0EFA                          u40 0F0E  
                        u41 0F0C                          u50 0B1C                          u51 0B1A  
                        u60 0B46                          u61 0B44                          u70 0B74  
                        u71 0B72                          u80 0BA0                          u81 0B9E  
                        u90 0BCA                          u91 0BC8                         l100 0D68  
                       l101 0D90                         l102 0D90                         l200 0F06  
                       l201 0F06                         l105 0F4E                         l202 0F10  
                       l114 0ED8                         l122 08CE                         l130 0A42  
                       l115 0EC2                         l123 0856                         l131 0ADA  
                       l116 0EE6                         l124 08DA                         l140 0AA0  
                       l132 0A50                         l117 0EE6                         l125 09A8  
                       l141 0AA4                         l133 0A4E                         l150 0AEE  
                       l142 0AA2                         l134 0A68                         l143 0ABC  
                       l135 0A6C                         l144 0AC0                         l136 0A6A  
                       l145 0ABE                         l137 0A84                         l146 0AD6  
                       l138 0A88                         l155 0E12                         l147 0AEA  
                       l139 0A86                         l156 0E00                         l180 0DB2  
                       l148 0AEC                         l157 0E2E                         l181 0DDE  
                       l149 0AEE                         l158 0E3C                         l182 0DCE  
                       l183 0DEE                         l175 0DB6                         l184 0DD4  
                       l176 0DA4                         l185 0DD8                         l177 0DCC  
                       l186 0DF4                         l178 0DA8                         l179 0DAE  
                       l197 0F04                         l198 0F16                         l199 0F12  
                       l900 0BD4                         l830 0DB4                         l822 0D92  
                       l902 0BDC                         l910 0C00                         l904 0F50  
                       l752 0F50                         l840 0DF6                         l832 0DB6  
                       l824 0D96                         l920 0C98                         l912 0C6A  
                       l753 0F66                         l754 0F66                         l906 0F60  
                       l850 0E3C                         l842 0E00                         l834 0DDC  
                       l826 0D9A                         l922 0CB4                         l914 0C6C  
                       l930 0F18                         l860 0F12                         l852 0EE8  
                       l844 0E0C                         l836 0DDE                         l828 0D9E  
                       l924 0CCA                         l916 0C78                         l908 0BF6  
                       l932 0E3E                         l940 0D18                         l862 0F16  
                       l854 0EFC                         l846 0E12                         l838 0DF2  
                       l870 0AFE                         l926 0CD4                         l918 0C7A  
                       l934 0E50                         l950 0D74                         l942 0D24  
                       l856 0F00                         l848 0E2E                         l880 0B2C  
                       l872 0B00                         l864 0AF2                         l928 0CE2  
                       l944 0D40                         l936 0CF2                         l952 0F36  
                       l960 0ED8                         l858 0F02                         l890 0B84  
                       l882 0B4C                         l874 0B02                         l866 0AF4  
                       l946 0D4C                         l938 0CFC                         l954 0EB4  
                       l970 083C                         l962 0812                         l892 0B8C  
                       l884 0B58                         l876 0B22                         l868 0AF6  
                       l948 0D68                         l956 0EC2                         l980 08A6  
                       l972 0844                         l964 0824                         l894 0BA6  
                       l886 0B60                         l878 0B24                         l958 0ED2  
                       l990 08CC                         l982 08B0                         l974 0846  
                       l966 082C                         l896 0BAE                         l888 0B7A  
                       l992 08DA                         l984 08B2                         l976 0848  
                       l968 0834                         l898 0BB6                         l994 092A  
                       l986 08BE                         l978 0856                         l996 0934  
                       l988 08C0                         l998 0936                         u100 0BF0  
                       u101 0BEE                         u200 0D74                         u201 0D72  
                       u210 0EE4                         u115 0BFE                         u211 0EE2  
                       u116 0C00                         u300 0ABA                         u125 0C08  
                       u221 081C                         u301 0AB8                         u310 0AD6  
                       u135 0C1E                         u311 0AD4                         u240 08D8  
                       u145 0C3E                         u161 0E48                         u241 08D6  
                       u170 0CFC                         u155 0CD2                         u171 0CFA  
                       u235 08AE                         u156 0CD4                         u180 0D24  
                       u236 08B0                         u260 0A4A                         u181 0D22  
                       u261 0A48                         u190 0D4C                         u270 0A66  
                       u327 0AF8                         u191 0D4A                         u255 0932  
                       u271 0A64                         u256 0934                         u280 0A82  
                       u337 0B26                         u281 0A80                         u290 0A9E  
                       u347 0F56                         u291 0A9C                __CFG_BOR$OFF 000000  
                       prod 000FF3                         wreg 000FE8                __CFG_IESO$ON 000000  
mostra_lcd_buff@buffer_size 0010                __CFG_LVP$OFF 000000                __CFG_WDT$OFF 000000  
                      l1000 0942                        l1010 0998                        l1002 0944  
                      l1012 099C                        l1004 0950                        l1020 09EA  
                      l1006 0968                        l1030 0A4A                        l1022 09EC  
                      l1014 09AA                        l1008 0980                        l1040 0AC0  
                      l1032 0A50                        l1024 0A08                        l1016 09BE  
                      l1034 0A6C                        l1042 0ADA                        l1026 0A1C  
                      l1018 09E6                        l1044 0AE6                        l1036 0A88  
                      l1028 0A42                        l1038 0AA4                        STR_1 0800  
              __CFG_PWRT$ON 000000                        _main 09AA          move_mensagem@F5305 0039  
                      fsr2h 000FDA                        fsr1l 000FE1                        indf2 000FDF  
                      fsr2l 000FD9                        prodl 000FF3                        start 0000  
             __CFG_MCLRE$ON 000000           ??_mostra_lcd_buff 0011             __end_of_OpenSPI 0DF6  
            envia_dado@dado 0009               __CFG_PLLDIV$5 000000                       ?_main 0001  
                     _PORTA 000F80                       _PORTB 000F81                       _PORTC 000F82  
                     _PORTD 000F83                       _PORTE 000F84               __CFG_USBDIV$2 000000  
                     _TRISA 000F92                       _TRISB 000F93                       _TRISC 000F94  
                     _TRISD 000F95                       _TRISE 000F96       __size_of_Delay10KTCYx 0018  
            __CFG_FCMEN$OFF 000000              envia_lcd@delay 0005                       tablat 000FF5  
           __end_of_pos_lcd 0D92                       status 000FD8             __end_of_sprintf 0E3E  
           __initialization 0E7A                __end_of_main 0AF2                _Delay10KTCYx 0F50  
                    ??_main 0018               __activetblptr 000001            __end_of_WriteSPI 0F18  
                    _SSPBUF 000FC9              __CFG_VREGEN$ON 000000                   ??_OpenSPI 0004  
                    clear_0 0E80             WriteSPI@TempVar 0002                __pdataCOMRAM 002C  
          __end_of_tempo_us 0BF6                __mediumconst 0000                      tblptrh 000FF7  
                    tblptrl 000FF6                      tblptru 000FF8                   ??_pos_lcd 000B  
                 ??_sprintf 0005                  __accesstop 0060     __end_of__initialization 0EA6  
           __CFG_PBADEN$OFF 000000              __pcstackCOMRAM 0001          __size_of_lcd_start 0198  
        __size_of_envia_lcd 00FC             _mostra_lcd_buff 0EB4    __size_of_ctrl_lcd_cursor 003C  
                 ?_WriteSPI 0001                     _SSPCON1 000FC6                     _SSPSTAT 000FC7  
                _envia_dado 0F36                     _OpenSPI 0D92                     __Hparam 0000  
                   __Lparam 0000                   ?_tempo_us 0001           __end_of_lcd_start 09AA  
                 _CMCONbits 000FB4                __psmallconst 0800              lcd_start@F5326 002C  
                   __pcinit 0E7A                     __ramtop 0800                  ??_WriteSPI 0002  
         __end_of_envia_lcd 0CF2                     __ptext0 09AA                     __ptext1 0812  
                   __ptext2 0EB4                     __ptext3 0F36                     __ptext4 0CF2  
                   __ptext5 0E3E                     __ptext6 0F18                     __ptext7 0BF6  
                   __ptext8 0AF2                     __ptext9 0D92                  _limpa_tela 0F18  
                   _pos_lcd 0CF2     __end_of_mostra_lcd_buff 0EE8                     _sprintf 0DF6  
      end_of_initialization 0EA6                  ??_tempo_us 0003         mostra_lcd_buff@line 000C  
                   postdec1 000FE5            WriteSPI@data_out 0001                     postinc0 000FEE  
                   postinc1 000FE6                     postinc2 000FDE                 pos_lcd@line 0009  
         ??_ctrl_lcd_cursor 000A      ctrl_lcd_cursor@comando 000B                   _PORTDbits 000F83  
                 _PORTEbits 000F84            move_cursor@F5301 0037           lcd_start@lcd_conf 0012  
         lcd_start@contagem 0011                   _TRISAbits 000F92                   _TRISBbits 000F93  
                 _TRISCbits 000F94                 ?_envia_dado 0009               __pidataCOMRAM 0F68  
             envia_lcd@byte 0003                 ?_limpa_tela 0001            OpenSPI@smp_phase 0003  
       start_initialization 0E7A            ?_mostra_lcd_buff 000C            OpenSPI@sync_mode 0001  
          __CFG_LPT1OSC$OFF 000000           __size_of_WriteSPI 0030                 __pbssCOMRAM 001B  
       __size_of_envia_dado 001A         __end_of__stringdata 0811         __size_of_limpa_tela 001E  
                  ?_OpenSPI 0001                _mensagem_lcd 001B               ?_Delay10KTCYx 0001  
         __size_of_tempo_us 0104                   _lcd_start 0812                 __smallconst 0800  
                 _envia_lcd 0BF6                    ?_pos_lcd 0009                    ?_sprintf 0001  
                  _LATAbits 000F89             _ctrl_lcd_cursor 0E3E                    _PIR1bits 000F9E  
            ??_Delay10KTCYx 0002             OpenSPI@bus_mode 0002                  ?_lcd_start 0001  
                _ADCON1bits 000FC1                 __stringdata 0800                  ?_envia_lcd 0003  
          Delay10KTCYx@unit 0001                   copy_data0 0E9A                ??_envia_dado 000A  
                  __Hrparam 0000                    __Lrparam 0000            __size_of_OpenSPI 0064  
              __Lsmallconst 0800           envia_lcd@cmd_data 0004                    _WriteSPI 0EE8  
              ??_limpa_tela 0009          __end_of_envia_dado 0F50                    __ptext10 0DF6  
                  __ptext11 0EE8                    __ptext12 0F50            __size_of_pos_lcd 00A0  
   __end_of_ctrl_lcd_cursor 0E7A            __size_of_sprintf 0048        ctrl_lcd_cursor@F5309 0032  
             __size_of_main 0148          __end_of_limpa_tela 0F36                    _tempo_us 0AF2  
     mostra_lcd_buff@column 000D       mostra_lcd_buff@p_char 000E                 ??_lcd_start 0010  
     __CFG_CPUDIV$OSC1_PLL2 000000                 ??_envia_lcd 0007               pos_lcd@column 000A  
      __end_of_Delay10KTCYx 0F68                   sprintf@ap 0005                   sprintf@sp 0001  
  __size_of_mostra_lcd_buff 0034                  _OSCCONbits 000FD3               tempo_us@tempo 0001  
                  sprintf@c 0007                    sprintf@f 0003         __CFG_FOSC$INTOSC_HS 000000  
               _SSPCON1bits 000FC6            ?_ctrl_lcd_cursor 0009     ctrl_lcd_cursor@controle 0009  
